   1              		.cpu cortex-a9
   2              		.eabi_attribute 28, 1
   3              		.eabi_attribute 20, 1
   4              		.eabi_attribute 21, 1
   5              		.eabi_attribute 23, 3
   6              		.eabi_attribute 24, 1
   7              		.eabi_attribute 25, 1
   8              		.eabi_attribute 26, 1
   9              		.eabi_attribute 30, 1
  10              		.eabi_attribute 34, 0
  11              		.eabi_attribute 18, 4
  12              		.file	"TrackType.c"
  13              		.text
  14              	.Ltext0:
  15              		.cfi_sections	.debug_frame
  16              		.section	.text.FindInflectionPointR,"ax",%progbits
  17              		.align	2
  18              		.global	FindInflectionPointR
  19              		.syntax unified
  20              		.arm
  21              		.fpu neon
  23              	FindInflectionPointR:
  24              	.LFB3:
  25              		.file 1 "../src/renesas/application/smart_car/Tracker/TrackType.c"
   1:../src/renesas/application/smart_car/Tracker/TrackType.c **** #include "TrackType.h"
   2:../src/renesas/application/smart_car/Tracker/TrackType.c **** 
   3:../src/renesas/application/smart_car/Tracker/TrackType.c **** InflectionPoint  InflectionPointL;//Âª∫Á´ãÂ∑¶ËæπÊãêÁÇπÁªìÊûÑ‰ΩìÂèòÈáè
   4:../src/renesas/application/smart_car/Tracker/TrackType.c **** InflectionPoint  InflectionPointR;//Âª∫Á´ãÂè≥ËæπÊãêÁÇπÁªìÊûÑ‰ΩìÂèòÈáè
   5:../src/renesas/application/smart_car/Tracker/TrackType.c **** 
   6:../src/renesas/application/smart_car/Tracker/TrackType.c **** #define TestInflectionPointL  1//Ê≠§ÂÆèÂÆö‰πâÁΩÆ1ÔºåÂ∞±ÂèØ‰ª•ÂØπÂ∑¶ËæπÊúÄËøëÊãêÁÇπËøõË°åÊµãËØï
   7:../src/renesas/application/smart_car/Tracker/TrackType.c **** #define TestInflectionPointR  1//Ê≠§ÂÆèÂÆö‰πâÁΩÆ1ÔºåÂ∞±ÂèØ‰ª•ÂØπÂè≥ËæπÊúÄËøëÊãêÁÇπËøõË°åÊµãËØï
   8:../src/renesas/application/smart_car/Tracker/TrackType.c **** 
   9:../src/renesas/application/smart_car/Tracker/TrackType.c **** CrossType Cross;//Âª∫Á´ãÂçÅÂ≠óÁªìÊûÑ‰ΩìÂèòÈáè
  10:../src/renesas/application/smart_car/Tracker/TrackType.c **** 
  11:../src/renesas/application/smart_car/Tracker/TrackType.c **** //ÂçÅÂ≠óÁî®Âà∞ÁöÑÂèòÈáè
  12:../src/renesas/application/smart_car/Tracker/TrackType.c **** #if ClossRecognition
  13:../src/renesas/application/smart_car/Tracker/TrackType.c **** //Á´ñÂêëÊâ´ÊèèÔºåËÆ∞ÂΩïË°åÂùêÊ†áÁöÑÊï∞ÁªÑ
  14:../src/renesas/application/smart_car/Tracker/TrackType.c **** uint8_t RCross_flag = 0;
  15:../src/renesas/application/smart_car/Tracker/TrackType.c **** uint8_t LCross_flag = 0;
  16:../src/renesas/application/smart_car/Tracker/TrackType.c **** uint8_t LRCross_flag = 0;
  17:../src/renesas/application/smart_car/Tracker/TrackType.c **** uint8_t turn_flag = 0;
  18:../src/renesas/application/smart_car/Tracker/TrackType.c **** int normal_flag = 1;
  19:../src/renesas/application/smart_car/Tracker/TrackType.c **** int count = 0;
  20:../src/renesas/application/smart_car/Tracker/TrackType.c **** unsigned char LeftScanCol[COL];
  21:../src/renesas/application/smart_car/Tracker/TrackType.c **** unsigned char RightScanCol[COL];
  22:../src/renesas/application/smart_car/Tracker/TrackType.c **** #endif
  23:../src/renesas/application/smart_car/Tracker/TrackType.c **** 
  24:../src/renesas/application/smart_car/Tracker/TrackType.c **** 
  25:../src/renesas/application/smart_car/Tracker/TrackType.c **** 
  26:../src/renesas/application/smart_car/Tracker/TrackType.c **** //ÂØπÂè≥ËæπÁ∫øËøõË°åÊìç‰ΩúÔºåÂ¶ÇÊûúÂ≠òÂú®Â§ö‰∏™ÊãêÁÇπÂØªÊâæÊúÄËøëÁöÑÊãêÁÇπ
  27:../src/renesas/application/smart_car/Tracker/TrackType.c **** //prt:‰º†ÂÖ•‰∏Ä‰∏™ÁªìÊûÑ‰ΩìÂèòÈáèÁöÑÂú∞ÂùÄ
  28:../src/renesas/application/smart_car/Tracker/TrackType.c **** //StartÔºöÊâ´ÊèèÁöÑËµ∑ÂßãË°å
  29:../src/renesas/application/smart_car/Tracker/TrackType.c **** //End ÔºöÊâ´ÊèèÁöÑÁªìÊùüË°å
  30:../src/renesas/application/smart_car/Tracker/TrackType.c **** void FindInflectionPointR(InflectionPoint *prt,unsigned char Start,unsigned char End )
  31:../src/renesas/application/smart_car/Tracker/TrackType.c **** {
  26              		.loc 1 31 0
  27              		.cfi_startproc
  28              		@ args = 0, pretend = 0, frame = 0
  29              		@ frame_needed = 0, uses_anonymous_args = 0
  30              	.LVL0:
  32:../src/renesas/application/smart_car/Tracker/TrackType.c ****     int i;
  33:../src/renesas/application/smart_car/Tracker/TrackType.c ****     //ÂàùÂßãÂåñÁªìÊûÑ‰ΩìÂèòÈáè
  34:../src/renesas/application/smart_car/Tracker/TrackType.c ****     prt->ScanInflectionPointStart=Start;//ËÆæÁΩÆÊâ´ÊèèÁöÑËµ∑ÂßãË°å
  31              		.loc 1 34 0
  32 0000 0310C0E5 		strb	r1, [r0, #3]
  35:../src/renesas/application/smart_car/Tracker/TrackType.c ****     prt->ScanInflectionPointEnd=End;//ËÆæÁΩÆÊâ´ÊèèÁöÑÁªìÊùüË°å
  33              		.loc 1 35 0
  34 0004 0420C0E5 		strb	r2, [r0, #4]
  36:../src/renesas/application/smart_car/Tracker/TrackType.c ****     prt->InflectionPointRow=0;
  35              		.loc 1 36 0
  36 0008 0030A0E3 		mov	r3, #0
  37 000c 0030C0E5 		strb	r3, [r0]
  37:../src/renesas/application/smart_car/Tracker/TrackType.c ****     prt->InflectionPointCol=0;
  38              		.loc 1 37 0
  39 0010 0130C0E5 		strb	r3, [r0, #1]
  38:../src/renesas/application/smart_car/Tracker/TrackType.c ****     prt->InflectionPointFlag=0;
  40              		.loc 1 38 0
  41 0014 0230C0E5 		strb	r3, [r0, #2]
  42              	.LVL1:
  39:../src/renesas/application/smart_car/Tracker/TrackType.c **** 
  40:../src/renesas/application/smart_car/Tracker/TrackType.c ****     for(i=prt->ScanInflectionPointStart; i>=prt->ScanInflectionPointEnd; i--) //‰∏çËÉΩÊâ´ÊèèÂ§™ËøúÔ
  43              		.loc 1 40 0
  44 0018 010052E1 		cmp	r2, r1
  45 001c 1EFF2FC1 		bxgt	lr
  31:../src/renesas/application/smart_car/Tracker/TrackType.c ****     int i;
  46              		.loc 1 31 0
  47 0020 04E02DE5 		str	lr, [sp, #-4]!
  48              		.cfi_def_cfa_offset 4
  49              		.cfi_offset 14, -4
  50 0024 020000EA 		b	.L5
  51              	.LVL2:
  52              	.L3:
  53              		.loc 1 40 0 discriminator 2
  54 0028 011041E2 		sub	r1, r1, #1
  55              	.LVL3:
  56 002c 010052E1 		cmp	r2, r1
  57 0030 04F09DC4 		ldrgt	pc, [sp], #4
  58              	.L5:
  41:../src/renesas/application/smart_car/Tracker/TrackType.c ****     {
  42:../src/renesas/application/smart_car/Tracker/TrackType.c ****         if(RightEdge[i]!=COL-1&&RightEdge[i+1]!=COL-1)
  59              		.loc 1 42 0
  60 0034 003000E3 		movw	r3, #:lower16:RightEdge
  61 0038 003040E3 		movt	r3, #:upper16:RightEdge
  62 003c 013193E7 		ldr	r3, [r3, r1, lsl #2]
  63 0040 9F0053E3 		cmp	r3, #159
  64 0044 F7FFFF0A 		beq	.L3
  65              		.loc 1 42 0 is_stmt 0 discriminator 1
  66 0048 01E081E2 		add	lr, r1, #1
  67 004c 00C000E3 		movw	ip, #:lower16:RightEdge
  68 0050 00C040E3 		movt	ip, #:upper16:RightEdge
  69 0054 0EC19CE7 		ldr	ip, [ip, lr, lsl #2]
  70 0058 9F005CE3 		cmp	ip, #159
  71 005c F1FFFF0A 		beq	.L3
  43:../src/renesas/application/smart_car/Tracker/TrackType.c ****         {
  44:../src/renesas/application/smart_car/Tracker/TrackType.c ****             if((RightEdge[i]-RightEdge[i+1]<=0)&&(RightEdge[i-1]-RightEdge[i])>=1&&(RightEdge[i-2]-
  72              		.loc 1 44 0 is_stmt 1
  73 0060 0CC043E0 		sub	ip, r3, ip
  74 0064 00005CE3 		cmp	ip, #0
  75 0068 EEFFFFCA 		bgt	.L3
  76              		.loc 1 44 0 is_stmt 0 discriminator 1
  77 006c 01E041E2 		sub	lr, r1, #1
  78 0070 00C000E3 		movw	ip, #:lower16:RightEdge
  79 0074 00C040E3 		movt	ip, #:upper16:RightEdge
  80 0078 0EC19CE7 		ldr	ip, [ip, lr, lsl #2]
  81 007c 03C04CE0 		sub	ip, ip, r3
  82 0080 00005CE3 		cmp	ip, #0
  83 0084 E7FFFFDA 		ble	.L3
  84              		.loc 1 44 0 discriminator 2
  85 0088 02E041E2 		sub	lr, r1, #2
  86 008c 00C000E3 		movw	ip, #:lower16:RightEdge
  87 0090 00C040E3 		movt	ip, #:upper16:RightEdge
  88 0094 0EC19CE7 		ldr	ip, [ip, lr, lsl #2]
  89 0098 03304CE0 		sub	r3, ip, r3
  90 009c 010053E3 		cmp	r3, #1
  91 00a0 E0FFFFDA 		ble	.L3
  45:../src/renesas/application/smart_car/Tracker/TrackType.c ****             {
  46:../src/renesas/application/smart_car/Tracker/TrackType.c ****                 prt->InflectionPointRow=i;//ËÆ∞ÂΩïÊãêÁÇπÁöÑË°å
  92              		.loc 1 46 0 is_stmt 1
  93 00a4 0010C0E5 		strb	r1, [r0]
  47:../src/renesas/application/smart_car/Tracker/TrackType.c ****                 prt->InflectionPointCol=RightEdge[i];//ËÆ∞ÂΩïÊãêÁÇπÁöÑÂàó
  94              		.loc 1 47 0
  95 00a8 003000E3 		movw	r3, #:lower16:RightEdge
  96 00ac 003040E3 		movt	r3, #:upper16:RightEdge
  97 00b0 013193E7 		ldr	r3, [r3, r1, lsl #2]
  98 00b4 0130C0E5 		strb	r3, [r0, #1]
  48:../src/renesas/application/smart_car/Tracker/TrackType.c ****                 prt->InflectionPointFlag=1;//Ê†áËÆ∞ÊâæÂà∞Âè≥ÊãêÁÇπ
  99              		.loc 1 48 0
 100 00b8 0130A0E3 		mov	r3, #1
 101 00bc 0230C0E5 		strb	r3, [r0, #2]
  49:../src/renesas/application/smart_car/Tracker/TrackType.c ****                 break;//ÈÄÄÂá∫for
 102              		.loc 1 49 0
 103 00c0 04F09DE4 		ldr	pc, [sp], #4
 104              		.cfi_endproc
 105              	.LFE3:
 107              		.section	.text.FindInflectionPointL,"ax",%progbits
 108              		.align	2
 109              		.global	FindInflectionPointL
 110              		.syntax unified
 111              		.arm
 112              		.fpu neon
 114              	FindInflectionPointL:
 115              	.LFB4:
  50:../src/renesas/application/smart_car/Tracker/TrackType.c ****             }
  51:../src/renesas/application/smart_car/Tracker/TrackType.c ****         }
  52:../src/renesas/application/smart_car/Tracker/TrackType.c ****     }
  53:../src/renesas/application/smart_car/Tracker/TrackType.c **** }
  54:../src/renesas/application/smart_car/Tracker/TrackType.c **** 
  55:../src/renesas/application/smart_car/Tracker/TrackType.c **** //ÂØπÂ∑¶ËæπÁ∫øËøõË°åÊìç‰ΩúÔºåÂ¶ÇÊûúÂ≠òÂú®Â§ö‰∏™ÊãêÁÇπÂØªÊâæÊúÄËøëÁöÑÊãêÁÇπ
  56:../src/renesas/application/smart_car/Tracker/TrackType.c **** //prt:‰º†ÂÖ•‰∏Ä‰∏™ÁªìÊûÑ‰ΩìÂèòÈáèÁöÑÂú∞ÂùÄ
  57:../src/renesas/application/smart_car/Tracker/TrackType.c **** //StartÔºöÊâ´ÊèèÁöÑËµ∑ÂßãË°å
  58:../src/renesas/application/smart_car/Tracker/TrackType.c **** //End ÔºöÊâ´ÊèèÁöÑÁªìÊùüË°å
  59:../src/renesas/application/smart_car/Tracker/TrackType.c **** void FindInflectionPointL(InflectionPoint *prt,unsigned char Start,unsigned char End )
  60:../src/renesas/application/smart_car/Tracker/TrackType.c **** {
 116              		.loc 1 60 0
 117              		.cfi_startproc
 118              		@ args = 0, pretend = 0, frame = 0
 119              		@ frame_needed = 0, uses_anonymous_args = 0
 120              	.LVL4:
  61:../src/renesas/application/smart_car/Tracker/TrackType.c ****     int i;
  62:../src/renesas/application/smart_car/Tracker/TrackType.c ****     //ÂàùÂßãÂåñÁªìÊûÑ‰ΩìÂèòÈáè
  63:../src/renesas/application/smart_car/Tracker/TrackType.c ****     prt->ScanInflectionPointStart=Start;//ËÆæÁΩÆÊâ´ÊèèÁöÑËµ∑ÂßãË°å
 121              		.loc 1 63 0
 122 0000 0310C0E5 		strb	r1, [r0, #3]
  64:../src/renesas/application/smart_car/Tracker/TrackType.c ****     prt->ScanInflectionPointEnd=End;//ËÆæÁΩÆÊâ´ÊèèÁöÑÁªìÊùüË°å
 123              		.loc 1 64 0
 124 0004 0420C0E5 		strb	r2, [r0, #4]
  65:../src/renesas/application/smart_car/Tracker/TrackType.c ****     prt->InflectionPointRow=0;
 125              		.loc 1 65 0
 126 0008 0030A0E3 		mov	r3, #0
 127 000c 0030C0E5 		strb	r3, [r0]
  66:../src/renesas/application/smart_car/Tracker/TrackType.c ****     prt->InflectionPointCol=0;
 128              		.loc 1 66 0
 129 0010 0130C0E5 		strb	r3, [r0, #1]
  67:../src/renesas/application/smart_car/Tracker/TrackType.c ****     prt->InflectionPointFlag=0;
 130              		.loc 1 67 0
 131 0014 0230C0E5 		strb	r3, [r0, #2]
 132              	.LVL5:
  68:../src/renesas/application/smart_car/Tracker/TrackType.c **** 
  69:../src/renesas/application/smart_car/Tracker/TrackType.c ****     //Â∑¶ÊãêÁÇπ
  70:../src/renesas/application/smart_car/Tracker/TrackType.c ****     for(i= prt->ScanInflectionPointStart; i>prt->ScanInflectionPointEnd; i--)
 133              		.loc 1 70 0
 134 0018 010052E1 		cmp	r2, r1
 135 001c 1EFF2FA1 		bxge	lr
  60:../src/renesas/application/smart_car/Tracker/TrackType.c ****     int i;
 136              		.loc 1 60 0
 137 0020 04E02DE5 		str	lr, [sp, #-4]!
 138              		.cfi_def_cfa_offset 4
 139              		.cfi_offset 14, -4
 140 0024 020000EA 		b	.L15
 141              	.LVL6:
 142              	.L13:
 143              		.loc 1 70 0 discriminator 2
 144 0028 011041E2 		sub	r1, r1, #1
 145              	.LVL7:
 146 002c 010052E1 		cmp	r2, r1
 147 0030 04F09DA4 		ldrge	pc, [sp], #4
 148              	.L15:
  71:../src/renesas/application/smart_car/Tracker/TrackType.c ****     {
  72:../src/renesas/application/smart_car/Tracker/TrackType.c ****         if(LeftEdge[i]!=0&&LeftEdge[i+1]!=0)
 149              		.loc 1 72 0
 150 0034 003000E3 		movw	r3, #:lower16:LeftEdge
 151 0038 003040E3 		movt	r3, #:upper16:LeftEdge
 152 003c 013193E7 		ldr	r3, [r3, r1, lsl #2]
 153 0040 000053E3 		cmp	r3, #0
 154 0044 F7FFFF0A 		beq	.L13
 155              		.loc 1 72 0 is_stmt 0 discriminator 1
 156 0048 01E081E2 		add	lr, r1, #1
 157 004c 00C000E3 		movw	ip, #:lower16:LeftEdge
 158 0050 00C040E3 		movt	ip, #:upper16:LeftEdge
 159 0054 0EC19CE7 		ldr	ip, [ip, lr, lsl #2]
 160 0058 00005CE3 		cmp	ip, #0
 161 005c F1FFFF0A 		beq	.L13
  73:../src/renesas/application/smart_car/Tracker/TrackType.c ****         {
  74:../src/renesas/application/smart_car/Tracker/TrackType.c ****             if((LeftEdge[i]-LeftEdge[i+1]>=0)&&(LeftEdge[i]-LeftEdge[i-1]>=1)&&(LeftEdge[i]-LeftEdg
 162              		.loc 1 74 0 is_stmt 1
 163 0060 0CC043E0 		sub	ip, r3, ip
 164 0064 00005CE3 		cmp	ip, #0
 165 0068 EEFFFFBA 		blt	.L13
 166              		.loc 1 74 0 is_stmt 0 discriminator 1
 167 006c 01E041E2 		sub	lr, r1, #1
 168 0070 00C000E3 		movw	ip, #:lower16:LeftEdge
 169 0074 00C040E3 		movt	ip, #:upper16:LeftEdge
 170 0078 0EC19CE7 		ldr	ip, [ip, lr, lsl #2]
 171 007c 0CC043E0 		sub	ip, r3, ip
 172 0080 00005CE3 		cmp	ip, #0
 173 0084 E7FFFFDA 		ble	.L13
 174              		.loc 1 74 0 discriminator 2
 175 0088 02E041E2 		sub	lr, r1, #2
 176 008c 00C000E3 		movw	ip, #:lower16:LeftEdge
 177 0090 00C040E3 		movt	ip, #:upper16:LeftEdge
 178 0094 0EC19CE7 		ldr	ip, [ip, lr, lsl #2]
 179 0098 0C3043E0 		sub	r3, r3, ip
 180 009c 010053E3 		cmp	r3, #1
 181 00a0 E0FFFFDA 		ble	.L13
  75:../src/renesas/application/smart_car/Tracker/TrackType.c ****             {
  76:../src/renesas/application/smart_car/Tracker/TrackType.c ****                 prt->InflectionPointRow=i;//ËÆ∞ÂΩïËØ•ÊãêÁÇπÁöÑË°å
 182              		.loc 1 76 0 is_stmt 1
 183 00a4 0010C0E5 		strb	r1, [r0]
  77:../src/renesas/application/smart_car/Tracker/TrackType.c ****                 prt->InflectionPointCol=LeftEdge[i];//ËÆ∞ÂΩïËØ•ÊãêÁÇπÁöÑÂàó
 184              		.loc 1 77 0
 185 00a8 003000E3 		movw	r3, #:lower16:LeftEdge
 186 00ac 003040E3 		movt	r3, #:upper16:LeftEdge
 187 00b0 013193E7 		ldr	r3, [r3, r1, lsl #2]
 188 00b4 0130C0E5 		strb	r3, [r0, #1]
  78:../src/renesas/application/smart_car/Tracker/TrackType.c ****                 prt->InflectionPointFlag=1;//Ê†áËÆ∞ÊâæÂà∞Â∑¶ÊãêÁÇπ
 189              		.loc 1 78 0
 190 00b8 0130A0E3 		mov	r3, #1
 191 00bc 0230C0E5 		strb	r3, [r0, #2]
  79:../src/renesas/application/smart_car/Tracker/TrackType.c ****                 break;//ÊâæÂà∞ÈÄÄÂá∫
 192              		.loc 1 79 0
 193 00c0 04F09DE4 		ldr	pc, [sp], #4
 194              		.cfi_endproc
 195              	.LFE4:
 197              		.section	.text.CrossRecognition,"ax",%progbits
 198              		.align	2
 199              		.global	CrossRecognition
 200              		.syntax unified
 201              		.arm
 202              		.fpu neon
 204              	CrossRecognition:
 205              	.LFB5:
  80:../src/renesas/application/smart_car/Tracker/TrackType.c ****             }
  81:../src/renesas/application/smart_car/Tracker/TrackType.c ****         }
  82:../src/renesas/application/smart_car/Tracker/TrackType.c ****     }
  83:../src/renesas/application/smart_car/Tracker/TrackType.c **** }
  84:../src/renesas/application/smart_car/Tracker/TrackType.c **** 
  85:../src/renesas/application/smart_car/Tracker/TrackType.c **** 
  86:../src/renesas/application/smart_car/Tracker/TrackType.c **** 
  87:../src/renesas/application/smart_car/Tracker/TrackType.c **** #if ClossRecognition
  88:../src/renesas/application/smart_car/Tracker/TrackType.c **** void CrossRecognition(CrossType *prt)
  89:../src/renesas/application/smart_car/Tracker/TrackType.c **** {
 206              		.loc 1 89 0
 207              		.cfi_startproc
 208              		@ args = 0, pretend = 0, frame = 0
 209              		@ frame_needed = 0, uses_anonymous_args = 0
 210              	.LVL8:
 211 0000 70402DE9 		push	{r4, r5, r6, lr}
 212              		.cfi_def_cfa_offset 16
 213              		.cfi_offset 4, -16
 214              		.cfi_offset 5, -12
 215              		.cfi_offset 6, -8
 216              		.cfi_offset 14, -4
 217 0004 0050A0E1 		mov	r5, r0
  90:../src/renesas/application/smart_car/Tracker/TrackType.c ****     //ÂàùÂßãÂåñÂèòÈáè
  91:../src/renesas/application/smart_car/Tracker/TrackType.c ****     prt->CrossLR=0;
 218              		.loc 1 91 0
 219 0008 0030A0E3 		mov	r3, #0
 220 000c 0030C0E5 		strb	r3, [r0]
  92:../src/renesas/application/smart_car/Tracker/TrackType.c ****     prt->CrossL=0;
 221              		.loc 1 92 0
 222 0010 0130C0E5 		strb	r3, [r0, #1]
  93:../src/renesas/application/smart_car/Tracker/TrackType.c ****     prt->CrossR=0;
 223              		.loc 1 93 0
 224 0014 0230C0E5 		strb	r3, [r0, #2]
  94:../src/renesas/application/smart_car/Tracker/TrackType.c **** 
  95:../src/renesas/application/smart_car/Tracker/TrackType.c ****     //ÂØªÊâæÂ∑¶Âè≥ÊãêÁÇπ
  96:../src/renesas/application/smart_car/Tracker/TrackType.c ****     FindInflectionPointR(&InflectionPointR,ROW-1,30);
 225              		.loc 1 96 0
 226 0018 004000E3 		movw	r4, #:lower16:InflectionPointR
 227 001c 004040E3 		movt	r4, #:upper16:InflectionPointR
 228 0020 1E20A0E3 		mov	r2, #30
 229 0024 7710A0E3 		mov	r1, #119
 230 0028 0400A0E1 		mov	r0, r4
 231              	.LVL9:
 232 002c FEFFFFEB 		bl	FindInflectionPointR
 233              	.LVL10:
  97:../src/renesas/application/smart_car/Tracker/TrackType.c ****     FindInflectionPointL(&InflectionPointL,ROW-1,30);
 234              		.loc 1 97 0
 235 0030 1E20A0E3 		mov	r2, #30
 236 0034 7710A0E3 		mov	r1, #119
 237 0038 000000E3 		movw	r0, #:lower16:InflectionPointL
 238 003c 000040E3 		movt	r0, #:upper16:InflectionPointL
 239 0040 FEFFFFEB 		bl	FindInflectionPointL
 240              	.LVL11:
  98:../src/renesas/application/smart_car/Tracker/TrackType.c ****     //Â¶ÇÊûúÂ∑¶ËæπÁïåÂíåÂè≥ËæπÁïåÂêåÊó∂‰∏¢Á∫øÂ§ß‰∫é3Ë°åÔºåÂ∞±ËÆ§‰∏∫ÈÅáÂà∞‰∫ÜÂçÅÂ≠ó
  99:../src/renesas/application/smart_car/Tracker/TrackType.c ****     if( InflectionPointR.InflectionPointFlag
 241              		.loc 1 99 0
 242 0044 0220D4E5 		ldrb	r2, [r4, #2]	@ zero_extendqisi2
 243 0048 000052E3 		cmp	r2, #0
 244 004c 0900000A 		beq	.L22
 100:../src/renesas/application/smart_car/Tracker/TrackType.c ****         &&InflectionPointL.InflectionPointFlag
 245              		.loc 1 100 0
 246 0050 003000E3 		movw	r3, #:lower16:InflectionPointL
 247 0054 003040E3 		movt	r3, #:upper16:InflectionPointL
 248 0058 0230D3E5 		ldrb	r3, [r3, #2]	@ zero_extendqisi2
 249 005c 000053E3 		cmp	r3, #0
 250 0060 0400000A 		beq	.L22
 101:../src/renesas/application/smart_car/Tracker/TrackType.c ****         &&AllLose>=3)
 251              		.loc 1 101 0
 252 0064 003000E3 		movw	r3, #:lower16:AllLose
 253 0068 003040E3 		movt	r3, #:upper16:AllLose
 254 006c 003093E5 		ldr	r3, [r3]
 255 0070 020053E3 		cmp	r3, #2
 256 0074 2D0000CA 		bgt	.L26
 257              	.L22:
 102:../src/renesas/application/smart_car/Tracker/TrackType.c ****     {
 103:../src/renesas/application/smart_car/Tracker/TrackType.c ****         prt->CrossLR=1;//ÂçÅÂ≠ó
 104:../src/renesas/application/smart_car/Tracker/TrackType.c ****     }
 105:../src/renesas/application/smart_car/Tracker/TrackType.c ****     //Âà§Êñ≠Âè≥ÂàÜÂ≤îË∑Ø
 106:../src/renesas/application/smart_car/Tracker/TrackType.c ****     else if(InflectionPointR.InflectionPointFlag //Â≠òÂú®Âè≥ËæπÊãêÁÇπ
 258              		.loc 1 106 0
 259 0078 000052E3 		cmp	r2, #0
 260 007c 1300000A 		beq	.L24
 107:../src/renesas/application/smart_car/Tracker/TrackType.c ****             &&InflectionPointL.InflectionPointFlag==0
 261              		.loc 1 107 0
 262 0080 003000E3 		movw	r3, #:lower16:InflectionPointL
 263 0084 003040E3 		movt	r3, #:upper16:InflectionPointL
 264 0088 0230D3E5 		ldrb	r3, [r3, #2]	@ zero_extendqisi2
 265 008c 000053E3 		cmp	r3, #0
 266 0090 0E00001A 		bne	.L24
 108:../src/renesas/application/smart_car/Tracker/TrackType.c ****             &&RightLose>=5&&LeftLose<3&&AllLose<3)
 267              		.loc 1 108 0
 268 0094 003000E3 		movw	r3, #:lower16:RightLose
 269 0098 003040E3 		movt	r3, #:upper16:RightLose
 270 009c 003093E5 		ldr	r3, [r3]
 271 00a0 040053E3 		cmp	r3, #4
 272 00a4 090000DA 		ble	.L24
 273              		.loc 1 108 0 is_stmt 0 discriminator 1
 274 00a8 003000E3 		movw	r3, #:lower16:LeftLose
 275 00ac 003040E3 		movt	r3, #:upper16:LeftLose
 276 00b0 003093E5 		ldr	r3, [r3]
 277 00b4 020053E3 		cmp	r3, #2
 278 00b8 040000CA 		bgt	.L24
 279              		.loc 1 108 0 discriminator 2
 280 00bc 003000E3 		movw	r3, #:lower16:AllLose
 281 00c0 003040E3 		movt	r3, #:upper16:AllLose
 282 00c4 003093E5 		ldr	r3, [r3]
 283 00c8 020053E3 		cmp	r3, #2
 284 00cc 1A0000DA 		ble	.L27
 285              	.L24:
 109:../src/renesas/application/smart_car/Tracker/TrackType.c ****     {
 110:../src/renesas/application/smart_car/Tracker/TrackType.c ****         prt->CrossR=1;//Ê†áÂøóÂè≥Â≤îË∑Ø
 111:../src/renesas/application/smart_car/Tracker/TrackType.c ****     }
 112:../src/renesas/application/smart_car/Tracker/TrackType.c ****     //Âà§Êñ≠Â∑¶ÂàÜÂ≤îË∑Ø
 113:../src/renesas/application/smart_car/Tracker/TrackType.c ****     else if(InflectionPointL.InflectionPointFlag//Â≠òÂú®Â∑¶ËæπÊãêÁÇπ
 286              		.loc 1 113 0 is_stmt 1
 287 00d0 003000E3 		movw	r3, #:lower16:InflectionPointL
 288 00d4 003040E3 		movt	r3, #:upper16:InflectionPointL
 289 00d8 0230D3E5 		ldrb	r3, [r3, #2]	@ zero_extendqisi2
 290 00dc 000053E3 		cmp	r3, #0
 291 00e0 7080BD08 		popeq	{r4, r5, r6, pc}
 114:../src/renesas/application/smart_car/Tracker/TrackType.c ****             &&InflectionPointR.InflectionPointFlag==0
 292              		.loc 1 114 0
 293 00e4 000052E3 		cmp	r2, #0
 294 00e8 7080BD18 		popne	{r4, r5, r6, pc}
 115:../src/renesas/application/smart_car/Tracker/TrackType.c ****             &&LeftLose>=5&&RightLose<3&&AllLose<3)
 295              		.loc 1 115 0
 296 00ec 003000E3 		movw	r3, #:lower16:LeftLose
 297 00f0 003040E3 		movt	r3, #:upper16:LeftLose
 298 00f4 003093E5 		ldr	r3, [r3]
 299 00f8 040053E3 		cmp	r3, #4
 300 00fc 7080BDD8 		pople	{r4, r5, r6, pc}
 301              		.loc 1 115 0 is_stmt 0 discriminator 1
 302 0100 003000E3 		movw	r3, #:lower16:RightLose
 303 0104 003040E3 		movt	r3, #:upper16:RightLose
 304 0108 003093E5 		ldr	r3, [r3]
 305 010c 020053E3 		cmp	r3, #2
 306 0110 7080BDC8 		popgt	{r4, r5, r6, pc}
 307              		.loc 1 115 0 discriminator 2
 308 0114 003000E3 		movw	r3, #:lower16:AllLose
 309 0118 003040E3 		movt	r3, #:upper16:AllLose
 310 011c 003093E5 		ldr	r3, [r3]
 311 0120 020053E3 		cmp	r3, #2
 116:../src/renesas/application/smart_car/Tracker/TrackType.c ****     {
 117:../src/renesas/application/smart_car/Tracker/TrackType.c ****         prt->CrossL=1;//Ê†áÂøóÂ∑¶Â≤îË∑Ø
 312              		.loc 1 117 0 is_stmt 1
 313 0124 0130A0D3 		movle	r3, #1
 314 0128 0130C5D5 		strble	r3, [r5, #1]
 118:../src/renesas/application/smart_car/Tracker/TrackType.c ****     }
 119:../src/renesas/application/smart_car/Tracker/TrackType.c **** }
 315              		.loc 1 119 0
 316 012c 7080BDE8 		pop	{r4, r5, r6, pc}
 317              	.L26:
 103:../src/renesas/application/smart_car/Tracker/TrackType.c ****     }
 318              		.loc 1 103 0
 319 0130 0130A0E3 		mov	r3, #1
 320 0134 0030C5E5 		strb	r3, [r5]
 321 0138 7080BDE8 		pop	{r4, r5, r6, pc}
 322              	.L27:
 110:../src/renesas/application/smart_car/Tracker/TrackType.c ****     }
 323              		.loc 1 110 0
 324 013c 0130A0E3 		mov	r3, #1
 325 0140 0230C5E5 		strb	r3, [r5, #2]
 326 0144 7080BDE8 		pop	{r4, r5, r6, pc}
 327              		.cfi_endproc
 328              	.LFE5:
 330              		.comm	RightScanCol,160,4
 331              		.comm	LeftScanCol,160,4
 332              		.global	count
 333              		.global	normal_flag
 334              		.global	turn_flag
 335              		.global	LRCross_flag
 336              		.global	LCross_flag
 337              		.global	RCross_flag
 338              		.comm	Cross,3,4
 339              		.comm	InflectionPointR,6,4
 340              		.comm	InflectionPointL,6,4
 341              		.section	.bss.LCross_flag,"aw",%nobits
 344              	LCross_flag:
 345 0000 00       		.space	1
 346              		.section	.bss.LRCross_flag,"aw",%nobits
 349              	LRCross_flag:
 350 0000 00       		.space	1
 351              		.section	.bss.RCross_flag,"aw",%nobits
 354              	RCross_flag:
 355 0000 00       		.space	1
 356              		.section	.bss.count,"aw",%nobits
 357              		.align	2
 360              	count:
 361 0000 00000000 		.space	4
 362              		.section	.bss.turn_flag,"aw",%nobits
 365              	turn_flag:
 366 0000 00       		.space	1
 367              		.section	.data.normal_flag,"aw",%progbits
 368              		.align	2
 371              	normal_flag:
 372 0000 01000000 		.word	1
 373              		.text
 374              	.Letext0:
 375              		.file 2 "c:\\program files (x86)\\gnu tools arm embedded\\7 2017-q4-major\\arm-none-eabi\\include\
 376              		.file 3 "c:\\program files (x86)\\gnu tools arm embedded\\7 2017-q4-major\\arm-none-eabi\\include\
 377              		.file 4 "c:\\program files (x86)\\gnu tools arm embedded\\7 2017-q4-major\\arm-none-eabi\\include\
 378              		.file 5 "c:\\program files (x86)\\gnu tools arm embedded\\7 2017-q4-major\\arm-none-eabi\\include\
 379              		.file 6 "c:\\program files (x86)\\gnu tools arm embedded\\7 2017-q4-major\\lib\\gcc\\arm-none-eabi
 380              		.file 7 "c:\\program files (x86)\\gnu tools arm embedded\\7 2017-q4-major\\arm-none-eabi\\include\
 381              		.file 8 "c:\\program files (x86)\\gnu tools arm embedded\\7 2017-q4-major\\arm-none-eabi\\include\
 382              		.file 9 "D:\\Project\\e2_studio\\workspace2\\RZA2M_DRP_Benchmark_V1.0.0\\RZA2M_DRP_Benchmark_V1.0.
 383              		.file 10 "c:\\program files (x86)\\gnu tools arm embedded\\7 2017-q4-major\\arm-none-eabi\\include
 384              		.file 11 "c:\\program files (x86)\\gnu tools arm embedded\\7 2017-q4-major\\arm-none-eabi\\include
 385              		.file 12 "D:\\Project\\e2_studio\\workspace2\\RZA2M_DRP_Benchmark_V1.0.0\\RZA2M_DRP_Benchmark_V1.0
 386              		.file 13 "D:\\Project\\e2_studio\\workspace2\\RZA2M_DRP_Benchmark_V1.0.0\\RZA2M_DRP_Benchmark_V1.0
 387              		.file 14 "D:\\Project\\e2_studio\\workspace2\\RZA2M_DRP_Benchmark_V1.0.0\\RZA2M_DRP_Benchmark_V1.0
 388              		.file 15 "../src/renesas/application/smart_car/Tracker/TrackType.h"