   1              		.cpu cortex-a9
   2              		.eabi_attribute 28, 1
   3              		.eabi_attribute 20, 1
   4              		.eabi_attribute 21, 1
   5              		.eabi_attribute 23, 3
   6              		.eabi_attribute 24, 1
   7              		.eabi_attribute 25, 1
   8              		.eabi_attribute 26, 1
   9              		.eabi_attribute 30, 6
  10              		.eabi_attribute 34, 0
  11              		.eabi_attribute 18, 4
  12              		.file	"r_bcd_lcd.c"
  13              		.text
  14              	.Ltext0:
  15              		.cfi_sections	.debug_frame
  16              		.section	.rodata.s_sc_cpg_xtal_frequency_khz_config,"a",%progbits
  17              		.align	3
  20              	s_sc_cpg_xtal_frequency_khz_config:
  21 0000 00000000 		.word	0
  22 0004 0070D740 		.word	1087860736
  23              		.section	.rodata.s_sc_cpg_main_clock_config,"a",%progbits
  24              		.align	3
  27              	s_sc_cpg_main_clock_config:
  28 0000 00       		.byte	0
  29 0001 00000000 		.space	7
  29      000000
  30 0008 00000000 		.word	0
  31 000c 001D3041 		.word	1093672192
  32              		.section	.rodata.s_sc_cpg_sub_clock_div_config,"a",%progbits
  33              		.align	3
  36              	s_sc_cpg_sub_clock_div_config:
  37 0000 00       		.byte	0
  38 0001 00000000 		.space	7
  38      000000
  39 0008 00000000 		.word	0
  40 000c 001D2041 		.word	1092623616
  41 0010 01       		.byte	1
  42 0011 00000000 		.space	7
  42      000000
  43 0018 00000000 		.word	0
  44 001c 001D0041 		.word	1090526464
  45 0020 02       		.byte	2
  46 0021 00000000 		.space	7
  46      000000
  47 0028 00000000 		.word	0
  48 002c 001DF040 		.word	1089477888
  49              		.section	.rodata.s_sc_cpg_sub_clock_src_config,"a",%progbits
  50              		.align	2
  53              	s_sc_cpg_sub_clock_src_config:
  54 0000 00       		.byte	0
  55 0001 00       		.byte	0
  56 0002 01       		.byte	1
  57 0003 02       		.byte	2
  58 0004 02       		.byte	2
  59 0005 02       		.byte	2
  60 0006 03       		.byte	3
  61 0007 00       		.byte	0
  62              		.section	.rodata.s_sc_cpg_ext_clk_config,"a",%progbits
  63              		.align	2
  66              	s_sc_cpg_ext_clk_config:
  67 0000 04       		.byte	4
  68              		.section	.rodata.GPIO_SC_TABLE_INIT,"a",%progbits
  69              		.align	2
  72              	GPIO_SC_TABLE_INIT:
  73 0000 0108     		.short	2049
  74 0002 02       		.byte	2
  75 0003 01       		.byte	1
  76 0004 05       		.byte	5
  77 0005 00       		.space	1
  78 0006 0000     		.short	0
  79 0008 02       		.byte	2
  80 0009 01       		.byte	1
  81 000a 05       		.byte	5
  82 000b 00       		.space	1
  83              		.section	.rodata.GPIO_SC_TABLE_MANUAL,"a",%progbits
  84              		.align	2
  87              	GPIO_SC_TABLE_MANUAL:
  88 0000 0004     		.short	1024
  89 0002 08       		.byte	8
  90 0003 01       		.byte	1
  91 0004 04       		.byte	4
  92 0005 00       		.space	1
  93 0006 0104     		.short	1025
  94 0008 08       		.byte	8
  95 0009 01       		.byte	1
  96 000a 04       		.byte	4
  97 000b 00       		.space	1
  98 000c 0204     		.short	1026
  99 000e 08       		.byte	8
 100 000f 01       		.byte	1
 101 0010 04       		.byte	4
 102 0011 00       		.space	1
 103 0012 0304     		.short	1027
 104 0014 08       		.byte	8
 105 0015 01       		.byte	1
 106 0016 04       		.byte	4
 107 0017 00       		.space	1
 108 0018 0404     		.short	1028
 109 001a 08       		.byte	8
 110 001b 01       		.byte	1
 111 001c 04       		.byte	4
 112 001d 00       		.space	1
 113 001e 0504     		.short	1029
 114 0020 08       		.byte	8
 115 0021 01       		.byte	1
 116 0022 04       		.byte	4
 117 0023 00       		.space	1
 118 0024 0604     		.short	1030
 119 0026 08       		.byte	8
 120 0027 01       		.byte	1
 121 0028 04       		.byte	4
 122 0029 00       		.space	1
 123 002a 0704     		.short	1031
 124 002c 08       		.byte	8
 125 002d 01       		.byte	1
 126 002e 04       		.byte	4
 127 002f 00       		.space	1
 128 0030 0006     		.short	1536
 129 0032 04       		.byte	4
 130 0033 01       		.byte	1
 131 0034 04       		.byte	4
 132 0035 00       		.space	1
 133 0036 0106     		.short	1537
 134 0038 08       		.byte	8
 135 0039 01       		.byte	1
 136 003a 05       		.byte	5
 137 003b 00       		.space	1
 138 003c 0206     		.short	1538
 139 003e 08       		.byte	8
 140 003f 01       		.byte	1
 141 0040 05       		.byte	5
 142 0041 00       		.space	1
 143 0042 0306     		.short	1539
 144 0044 08       		.byte	8
 145 0045 01       		.byte	1
 146 0046 05       		.byte	5
 147 0047 00       		.space	1
 148 0048 0406     		.short	1540
 149 004a 04       		.byte	4
 150 004b 01       		.byte	1
 151 004c 04       		.byte	4
 152 004d 00       		.space	1
 153 004e 0506     		.short	1541
 154 0050 04       		.byte	4
 155 0051 01       		.byte	1
 156 0052 04       		.byte	4
 157 0053 00       		.space	1
 158 0054 0606     		.short	1542
 159 0056 04       		.byte	4
 160 0057 01       		.byte	1
 161 0058 04       		.byte	4
 162 0059 00       		.space	1
 163 005a 0706     		.short	1543
 164 005c 04       		.byte	4
 165 005d 01       		.byte	1
 166 005e 04       		.byte	4
 167 005f 00       		.space	1
 168 0060 0007     		.short	1792
 169 0062 04       		.byte	4
 170 0063 01       		.byte	1
 171 0064 04       		.byte	4
 172 0065 00       		.space	1
 173 0066 0107     		.short	1793
 174 0068 04       		.byte	4
 175 0069 01       		.byte	1
 176 006a 04       		.byte	4
 177 006b 00       		.space	1
 178 006c 0307     		.short	1795
 179 006e 04       		.byte	4
 180 006f 01       		.byte	1
 181 0070 04       		.byte	4
 182 0071 00       		.space	1
 183 0072 0407     		.short	1796
 184 0074 04       		.byte	4
 185 0075 01       		.byte	1
 186 0076 04       		.byte	4
 187 0077 00       		.space	1
 188 0078 0507     		.short	1797
 189 007a 04       		.byte	4
 190 007b 01       		.byte	1
 191 007c 04       		.byte	4
 192 007d 00       		.space	1
 193 007e 0308     		.short	2051
 194 0080 04       		.byte	4
 195 0081 01       		.byte	1
 196 0082 04       		.byte	4
 197 0083 00       		.space	1
 198 0084 0408     		.short	2052
 199 0086 04       		.byte	4
 200 0087 01       		.byte	1
 201 0088 04       		.byte	4
 202 0089 00       		.space	1
 203 008a 0508     		.short	2053
 204 008c 04       		.byte	4
 205 008d 01       		.byte	1
 206 008e 04       		.byte	4
 207 008f 00       		.space	1
 208 0090 0608     		.short	2054
 209 0092 04       		.byte	4
 210 0093 01       		.byte	1
 211 0094 04       		.byte	4
 212 0095 00       		.space	1
 213 0096 0409     		.short	2308
 214 0098 04       		.byte	4
 215 0099 01       		.byte	1
 216 009a 04       		.byte	4
 217 009b 00       		.space	1
 218 009c 0509     		.short	2309
 219 009e 04       		.byte	4
 220 009f 01       		.byte	1
 221 00a0 04       		.byte	4
 222 00a1 00       		.space	1
 223 00a2 0609     		.short	2310
 224 00a4 04       		.byte	4
 225 00a5 01       		.byte	1
 226 00a6 04       		.byte	4
 227 00a7 00       		.space	1
 228 00a8 0709     		.short	2311
 229 00aa 04       		.byte	4
 230 00ab 01       		.byte	1
 231 00ac 04       		.byte	4
 232 00ad 00       		.space	1
 233 00ae 0707     		.short	1799
 234 00b0 09       		.byte	9
 235 00b1 01       		.byte	1
 236 00b2 04       		.byte	4
 237 00b3 00       		.space	1
 238 00b4 0008     		.short	2048
 239 00b6 09       		.byte	9
 240 00b7 01       		.byte	1
 241 00b8 04       		.byte	4
 242 00b9 00       		.space	1
 243 00ba 000A     		.short	2560
 244 00bc 09       		.byte	9
 245 00bd 01       		.byte	1
 246 00be 04       		.byte	4
 247 00bf 00       		.space	1
 248 00c0 010A     		.short	2561
 249 00c2 09       		.byte	9
 250 00c3 01       		.byte	1
 251 00c4 04       		.byte	4
 252 00c5 00       		.space	1
 253 00c6 020A     		.short	2562
 254 00c8 09       		.byte	9
 255 00c9 01       		.byte	1
 256 00ca 04       		.byte	4
 257 00cb 00       		.space	1
 258 00cc 030A     		.short	2563
 259 00ce 09       		.byte	9
 260 00cf 01       		.byte	1
 261 00d0 04       		.byte	4
 262 00d1 00       		.space	1
 263 00d2 040A     		.short	2564
 264 00d4 09       		.byte	9
 265 00d5 01       		.byte	1
 266 00d6 04       		.byte	4
 267 00d7 00       		.space	1
 268 00d8 050A     		.short	2565
 269 00da 09       		.byte	9
 270 00db 01       		.byte	1
 271 00dc 04       		.byte	4
 272 00dd 00       		.space	1
 273 00de 060A     		.short	2566
 274 00e0 09       		.byte	9
 275 00e1 01       		.byte	1
 276 00e2 04       		.byte	4
 277 00e3 00       		.space	1
 278 00e4 070A     		.short	2567
 279 00e6 09       		.byte	9
 280 00e7 01       		.byte	1
 281 00e8 04       		.byte	4
 282 00e9 00       		.space	1
 283 00ea 000B     		.short	2816
 284 00ec 09       		.byte	9
 285 00ed 01       		.byte	1
 286 00ee 04       		.byte	4
 287 00ef 00       		.space	1
 288 00f0 010B     		.short	2817
 289 00f2 09       		.byte	9
 290 00f3 01       		.byte	1
 291 00f4 04       		.byte	4
 292 00f5 00       		.space	1
 293 00f6 020B     		.short	2818
 294 00f8 09       		.byte	9
 295 00f9 01       		.byte	1
 296 00fa 04       		.byte	4
 297 00fb 00       		.space	1
 298 00fc 030B     		.short	2819
 299 00fe 09       		.byte	9
 300 00ff 01       		.byte	1
 301 0100 04       		.byte	4
 302 0101 00       		.space	1
 303 0102 040B     		.short	2820
 304 0104 09       		.byte	9
 305 0105 01       		.byte	1
 306 0106 04       		.byte	4
 307 0107 00       		.space	1
 308 0108 050B     		.short	2821
 309 010a 09       		.byte	9
 310 010b 01       		.byte	1
 311 010c 04       		.byte	4
 312 010d 00       		.space	1
 313 010e 030C     		.short	3075
 314 0110 0B       		.byte	11
 315 0111 01       		.byte	1
 316 0112 04       		.byte	4
 317 0113 00       		.space	1
 318 0114 040C     		.short	3076
 319 0116 0B       		.byte	11
 320 0117 01       		.byte	1
 321 0118 04       		.byte	4
 322 0119 00       		.space	1
 323 011a 010E     		.short	3585
 324 011c 08       		.byte	8
 325 011d 01       		.byte	1
 326 011e 05       		.byte	5
 327 011f 00       		.space	1
 328 0120 020E     		.short	3586
 329 0122 08       		.byte	8
 330 0123 01       		.byte	1
 331 0124 05       		.byte	5
 332 0125 00       		.space	1
 333 0126 030E     		.short	3587
 334 0128 08       		.byte	8
 335 0129 01       		.byte	1
 336 012a 05       		.byte	5
 337 012b 00       		.space	1
 338 012c 040E     		.short	3588
 339 012e 08       		.byte	8
 340 012f 01       		.byte	1
 341 0130 05       		.byte	5
 342 0131 00       		.space	1
 343 0132 050E     		.short	3589
 344 0134 08       		.byte	8
 345 0135 01       		.byte	1
 346 0136 05       		.byte	5
 347 0137 00       		.space	1
 348 0138 060E     		.short	3590
 349 013a 08       		.byte	8
 350 013b 01       		.byte	1
 351 013c 05       		.byte	5
 352 013d 00       		.space	1
 353 013e 000F     		.short	3840
 354 0140 09       		.byte	9
 355 0141 01       		.byte	1
 356 0142 04       		.byte	4
 357 0143 00       		.space	1
 358 0144 010F     		.short	3841
 359 0146 09       		.byte	9
 360 0147 01       		.byte	1
 361 0148 04       		.byte	4
 362 0149 00       		.space	1
 363 014a 020F     		.short	3842
 364 014c 09       		.byte	9
 365 014d 01       		.byte	1
 366 014e 04       		.byte	4
 367 014f 00       		.space	1
 368 0150 030F     		.short	3843
 369 0152 09       		.byte	9
 370 0153 01       		.byte	1
 371 0154 04       		.byte	4
 372 0155 00       		.space	1
 373 0156 040F     		.short	3844
 374 0158 09       		.byte	9
 375 0159 01       		.byte	1
 376 015a 04       		.byte	4
 377 015b 00       		.space	1
 378 015c 050F     		.short	3845
 379 015e 09       		.byte	9
 380 015f 01       		.byte	1
 381 0160 04       		.byte	4
 382 0161 00       		.space	1
 383 0162 060F     		.short	3846
 384 0164 09       		.byte	9
 385 0165 01       		.byte	1
 386 0166 04       		.byte	4
 387 0167 00       		.space	1
 388 0168 070F     		.short	3847
 389 016a 09       		.byte	9
 390 016b 01       		.byte	1
 391 016c 04       		.byte	4
 392 016d 00       		.space	1
 393 016e 0011     		.short	4352
 394 0170 08       		.byte	8
 395 0171 01       		.byte	1
 396 0172 05       		.byte	5
 397 0173 00       		.space	1
 398 0174 0111     		.short	4353
 399 0176 08       		.byte	8
 400 0177 01       		.byte	1
 401 0178 05       		.byte	5
 402 0179 00       		.space	1
 403 017a 0211     		.short	4354
 404 017c 09       		.byte	9
 405 017d 01       		.byte	1
 406 017e 04       		.byte	4
 407 017f 00       		.space	1
 408 0180 0612     		.short	4614
 409 0182 09       		.byte	9
 410 0183 01       		.byte	1
 411 0184 02       		.byte	2
 412 0185 00       		.space	1
 413 0186 0712     		.short	4615
 414 0188 09       		.byte	9
 415 0189 01       		.byte	1
 416 018a 05       		.byte	5
 417 018b 00       		.space	1
 418              		.section	.rodata.GPIO_SC_TABLE_riic2,"a",%progbits
 419              		.align	2
 422              	GPIO_SC_TABLE_riic2:
 423 0000 040D     		.short	3332
 424 0002 07       		.byte	7
 425 0003 01       		.byte	1
 426 0004 05       		.byte	5
 427 0005 00       		.space	1
 428 0006 050D     		.short	3333
 429 0008 07       		.byte	7
 430 0009 01       		.byte	1
 431 000a 05       		.byte	5
 432 000b 00       		.space	1
 433              		.section	.rodata.GPIO_SC_TABLE_riic3,"a",%progbits
 434              		.align	2
 437              	GPIO_SC_TABLE_riic3:
 438 0000 060D     		.short	3334
 439 0002 07       		.byte	7
 440 0003 01       		.byte	1
 441 0004 05       		.byte	5
 442 0005 00       		.space	1
 443 0006 070D     		.short	3335
 444 0008 07       		.byte	7
 445 0009 01       		.byte	1
 446 000a 05       		.byte	5
 447 000b 00       		.space	1
 448              		.section	.rodata.GPIO_SC_TABLE_scifa4,"a",%progbits
 449              		.align	2
 452              	GPIO_SC_TABLE_scifa4:
 453 0000 0009     		.short	2304
 454 0002 0A       		.byte	10
 455 0003 01       		.byte	1
 456 0004 04       		.byte	4
 457 0005 00       		.space	1
 458 0006 0109     		.short	2305
 459 0008 0A       		.byte	10
 460 0009 01       		.byte	1
 461 000a 05       		.byte	5
 462 000b 00       		.space	1
 463              		.section	.rodata.GPIO_SC_TABLE_BSC,"a",%progbits
 464              		.align	2
 467              	GPIO_SC_TABLE_BSC:
 468 0000 0000     		.short	0
 469 0002 07       		.byte	7
 470 0003 01       		.byte	1
 471 0004 04       		.byte	4
 472 0005 00       		.space	1
 473 0006 0100     		.short	1
 474 0008 07       		.byte	7
 475 0009 01       		.byte	1
 476 000a 04       		.byte	4
 477 000b 00       		.space	1
 478 000c 0200     		.short	2
 479 000e 07       		.byte	7
 480 000f 01       		.byte	1
 481 0010 04       		.byte	4
 482 0011 00       		.space	1
 483 0012 0300     		.short	3
 484 0014 07       		.byte	7
 485 0015 01       		.byte	1
 486 0016 04       		.byte	4
 487 0017 00       		.space	1
 488 0018 0400     		.short	4
 489 001a 07       		.byte	7
 490 001b 01       		.byte	1
 491 001c 04       		.byte	4
 492 001d 00       		.space	1
 493 001e 0500     		.short	5
 494 0020 07       		.byte	7
 495 0021 01       		.byte	1
 496 0022 04       		.byte	4
 497 0023 00       		.space	1
 498 0024 0600     		.short	6
 499 0026 07       		.byte	7
 500 0027 01       		.byte	1
 501 0028 04       		.byte	4
 502 0029 00       		.space	1
 503 002a 0001     		.short	256
 504 002c 07       		.byte	7
 505 002d 01       		.byte	1
 506 002e 04       		.byte	4
 507 002f 00       		.space	1
 508 0030 0101     		.short	257
 509 0032 07       		.byte	7
 510 0033 01       		.byte	1
 511 0034 04       		.byte	4
 512 0035 00       		.space	1
 513 0036 0201     		.short	258
 514 0038 07       		.byte	7
 515 0039 01       		.byte	1
 516 003a 04       		.byte	4
 517 003b 00       		.space	1
 518 003c 0301     		.short	259
 519 003e 07       		.byte	7
 520 003f 01       		.byte	1
 521 0040 04       		.byte	4
 522 0041 00       		.space	1
 523 0042 0401     		.short	260
 524 0044 07       		.byte	7
 525 0045 01       		.byte	1
 526 0046 04       		.byte	4
 527 0047 00       		.space	1
 528 0048 0002     		.short	512
 529 004a 07       		.byte	7
 530 004b 01       		.byte	1
 531 004c 04       		.byte	4
 532 004d 00       		.space	1
 533 004e 0102     		.short	513
 534 0050 07       		.byte	7
 535 0051 01       		.byte	1
 536 0052 04       		.byte	4
 537 0053 00       		.space	1
 538 0054 0202     		.short	514
 539 0056 07       		.byte	7
 540 0057 01       		.byte	1
 541 0058 04       		.byte	4
 542 0059 00       		.space	1
 543 005a 0302     		.short	515
 544 005c 07       		.byte	7
 545 005d 01       		.byte	1
 546 005e 04       		.byte	4
 547 005f 00       		.space	1
 548 0060 0007     		.short	1792
 549 0062 07       		.byte	7
 550 0063 01       		.byte	1
 551 0064 04       		.byte	4
 552 0065 00       		.space	1
 553 0066 0107     		.short	1793
 554 0068 07       		.byte	7
 555 0069 01       		.byte	1
 556 006a 04       		.byte	4
 557 006b 00       		.space	1
 558 006c 0307     		.short	1795
 559 006e 07       		.byte	7
 560 006f 01       		.byte	1
 561 0070 04       		.byte	4
 562 0071 00       		.space	1
 563 0072 0407     		.short	1796
 564 0074 07       		.byte	7
 565 0075 01       		.byte	1
 566 0076 04       		.byte	4
 567 0077 00       		.space	1
 568 0078 0507     		.short	1797
 569 007a 07       		.byte	7
 570 007b 01       		.byte	1
 571 007c 04       		.byte	4
 572 007d 00       		.space	1
 573 007e 0108     		.short	2049
 574 0080 07       		.byte	7
 575 0081 01       		.byte	1
 576 0082 04       		.byte	4
 577 0083 00       		.space	1
 578 0084 0208     		.short	2050
 579 0086 07       		.byte	7
 580 0087 01       		.byte	1
 581 0088 04       		.byte	4
 582 0089 00       		.space	1
 583 008a 0308     		.short	2051
 584 008c 07       		.byte	7
 585 008d 01       		.byte	1
 586 008e 04       		.byte	4
 587 008f 00       		.space	1
 588 0090 0408     		.short	2052
 589 0092 07       		.byte	7
 590 0093 01       		.byte	1
 591 0094 04       		.byte	4
 592 0095 00       		.space	1
 593 0096 0508     		.short	2053
 594 0098 07       		.byte	7
 595 0099 01       		.byte	1
 596 009a 04       		.byte	4
 597 009b 00       		.space	1
 598 009c 0608     		.short	2054
 599 009e 07       		.byte	7
 600 009f 01       		.byte	1
 601 00a0 04       		.byte	4
 602 00a1 00       		.space	1
 603 00a2 0708     		.short	2055
 604 00a4 07       		.byte	7
 605 00a5 01       		.byte	1
 606 00a6 04       		.byte	4
 607 00a7 00       		.space	1
 608 00a8 0009     		.short	2304
 609 00aa 07       		.byte	7
 610 00ab 01       		.byte	1
 611 00ac 04       		.byte	4
 612 00ad 00       		.space	1
 613 00ae 0109     		.short	2305
 614 00b0 07       		.byte	7
 615 00b1 01       		.byte	1
 616 00b2 04       		.byte	4
 617 00b3 00       		.space	1
 618 00b4 0209     		.short	2306
 619 00b6 07       		.byte	7
 620 00b7 01       		.byte	1
 621 00b8 04       		.byte	4
 622 00b9 00       		.space	1
 623 00ba 0309     		.short	2307
 624 00bc 07       		.byte	7
 625 00bd 01       		.byte	1
 626 00be 04       		.byte	4
 627 00bf 00       		.space	1
 628 00c0 0409     		.short	2308
 629 00c2 07       		.byte	7
 630 00c3 01       		.byte	1
 631 00c4 04       		.byte	4
 632 00c5 00       		.space	1
 633 00c6 0509     		.short	2309
 634 00c8 07       		.byte	7
 635 00c9 01       		.byte	1
 636 00ca 04       		.byte	4
 637 00cb 00       		.space	1
 638 00cc 0609     		.short	2310
 639 00ce 07       		.byte	7
 640 00cf 01       		.byte	1
 641 00d0 04       		.byte	4
 642 00d1 00       		.space	1
 643 00d2 0709     		.short	2311
 644 00d4 07       		.byte	7
 645 00d5 01       		.byte	1
 646 00d6 04       		.byte	4
 647 00d7 00       		.space	1
 648              		.section	.rodata.GPIO_SC_TABLE_sdhi_simplified0,"a",%progbits
 649              		.align	2
 652              	GPIO_SC_TABLE_sdhi_simplified0:
 653 0000 0005     		.short	1280
 654 0002 09       		.byte	9
 655 0003 01       		.byte	1
 656 0004 05       		.byte	5
 657 0005 00       		.space	1
 658 0006 0105     		.short	1281
 659 0008 09       		.byte	9
 660 0009 01       		.byte	1
 661 000a 05       		.byte	5
 662 000b 00       		.space	1
 663              		.section	.rodata.GPIO_SC_TABLE_sdhi_simplified1,"a",%progbits
 664              		.align	2
 667              	GPIO_SC_TABLE_sdhi_simplified1:
 668 0000 0405     		.short	1284
 669 0002 09       		.byte	9
 670 0003 01       		.byte	1
 671 0004 05       		.byte	5
 672 0005 00       		.space	1
 673 0006 0505     		.short	1285
 674 0008 09       		.byte	9
 675 0009 01       		.byte	1
 676 000a 05       		.byte	5
 677 000b 00       		.space	1
 678              		.section	.rodata.MMU_SC_TABLE,"a",%progbits
 679              		.align	2
 682              	MMU_SC_TABLE:
 683 0000 00000000 		.word	0
 684 0004 00000000 		.word	0
 685 0008 0010     		.short	4096
 686 000a 0000     		.space	2
 687 000c F20D0800 		.word	527858
 688 0010 00000000 		.word	0
 689 0014 00000000 		.word	0
 690 0018 4000     		.short	64
 691 001a 0000     		.space	2
 692 001c F20D0800 		.word	527858
 693 0020 00000004 		.word	67108864
 694 0024 00000004 		.word	67108864
 695 0028 4000     		.short	64
 696 002a 0000     		.space	2
 697 002c F20D0800 		.word	527858
 698 0030 00000008 		.word	134217728
 699 0034 00000008 		.word	134217728
 700 0038 4000     		.short	64
 701 003a 0000     		.space	2
 702 003c F20D0800 		.word	527858
 703 0040 0000000C 		.word	201326592
 704 0044 0000000C 		.word	201326592
 705 0048 4000     		.short	64
 706 004a 0000     		.space	2
 707 004c EE1D0800 		.word	531950
 708 0050 00000010 		.word	268435456
 709 0054 00000010 		.word	268435456
 710 0058 4000     		.short	64
 711 005a 0000     		.space	2
 712 005c F20D0800 		.word	527858
 713 0060 00000014 		.word	335544320
 714 0064 00000014 		.word	335544320
 715 0068 4000     		.short	64
 716 006a 0000     		.space	2
 717 006c F20D0800 		.word	527858
 718 0070 00000018 		.word	402653184
 719 0074 00000018 		.word	402653184
 720 0078 7000     		.short	112
 721 007a 0000     		.space	2
 722 007c F2010800 		.word	524786
 723 0080 0000001F 		.word	520093696
 724 0084 0000001F 		.word	520093696
 725 0088 1000     		.short	16
 726 008a 0000     		.space	2
 727 008c F20D0000 		.word	3570
 728 0090 00000020 		.word	536870912
 729 0094 00000020 		.word	536870912
 730 0098 0001     		.short	256
 731 009a 0000     		.space	2
 732 009c EE1D0800 		.word	531950
 733 00a0 00000030 		.word	805306368
 734 00a4 00000030 		.word	805306368
 735 00a8 0001     		.short	256
 736 00aa 0000     		.space	2
 737 00ac EE1D0800 		.word	531950
 738 00b0 00000040 		.word	1073741824
 739 00b4 00000040 		.word	1073741824
 740 00b8 0001     		.short	256
 741 00ba 0000     		.space	2
 742 00bc EE1D0800 		.word	531950
 743 00c0 00000050 		.word	1342177280
 744 00c4 00000050 		.word	1342177280
 745 00c8 0001     		.short	256
 746 00ca 0000     		.space	2
 747 00cc EE1D0800 		.word	531950
 748 00d0 00000060 		.word	1610612736
 749 00d4 00000060 		.word	1610612736
 750 00d8 0001     		.short	256
 751 00da 0000     		.space	2
 752 00dc EE1D0800 		.word	531950
 753 00e0 00000070 		.word	1879048192
 754 00e4 00000020 		.word	536870912
 755 00e8 0001     		.short	256
 756 00ea 0000     		.space	2
 757 00ec E20D0800 		.word	527842
 758 00f0 00000080 		.word	-2147483648
 759 00f4 00000080 		.word	-2147483648
 760 00f8 0400     		.short	4
 761 00fa 0000     		.space	2
 762 00fc E64D0800 		.word	544230
 763 0100 00004080 		.word	-2143289344
 764 0104 00004080 		.word	-2143289344
 765 0108 1C00     		.short	28
 766 010a 0000     		.space	2
 767 010c F2010800 		.word	524786
 768 0110 00000082 		.word	-2113929216
 769 0114 00000080 		.word	-2147483648
 770 0118 0400     		.short	4
 771 011a 0000     		.space	2
 772 011c E24D0800 		.word	544226
 773 0120 00004082 		.word	-2109734912
 774 0124 00004082 		.word	-2109734912
 775 0128 5C00     		.short	92
 776 012a 0000     		.space	2
 777 012c F2010800 		.word	524786
 778 0130 00000088 		.word	-2013265920
 779 0134 00000000 		.word	0
 780 0138 4000     		.short	64
 781 013a 0000     		.space	2
 782 013c F20D0800 		.word	527858
 783 0140 0000008C 		.word	-1946157056
 784 0144 00000004 		.word	67108864
 785 0148 4000     		.short	64
 786 014a 0000     		.space	2
 787 014c F20D0800 		.word	527858
 788 0150 00000090 		.word	-1879048192
 789 0154 00000008 		.word	134217728
 790 0158 4000     		.short	64
 791 015a 0000     		.space	2
 792 015c F20D0800 		.word	527858
 793 0160 00000094 		.word	-1811939328
 794 0164 0000000C 		.word	201326592
 795 0168 4000     		.short	64
 796 016a 0000     		.space	2
 797 016c E24D0800 		.word	544226
 798 0170 00000098 		.word	-1744830464
 799 0174 00000010 		.word	268435456
 800 0178 4000     		.short	64
 801 017a 0000     		.space	2
 802 017c F20D0800 		.word	527858
 803 0180 0000009C 		.word	-1677721600
 804 0184 00000014 		.word	335544320
 805 0188 4000     		.short	64
 806 018a 0000     		.space	2
 807 018c F20D0800 		.word	527858
 808 0190 000000A0 		.word	-1610612736
 809 0194 00000030 		.word	805306368
 810 0198 0001     		.short	256
 811 019a 0000     		.space	2
 812 019c E20D0800 		.word	527842
 813 01a0 000000B0 		.word	-1342177280
 814 01a4 00000040 		.word	1073741824
 815 01a8 0001     		.short	256
 816 01aa 0000     		.space	2
 817 01ac E24D0800 		.word	544226
 818 01b0 000000C0 		.word	-1073741824
 819 01b4 00000050 		.word	1342177280
 820 01b8 0001     		.short	256
 821 01ba 0000     		.space	2
 822 01bc E20D0800 		.word	527842
 823 01c0 000000D0 		.word	-805306368
 824 01c4 00000060 		.word	1610612736
 825 01c8 0001     		.short	256
 826 01ca 0000     		.space	2
 827 01cc E24D0800 		.word	544226
 828 01d0 000000E0 		.word	-536870912
 829 01d4 000000E0 		.word	-536870912
 830 01d8 8000     		.short	128
 831 01da 0000     		.space	2
 832 01dc F2010800 		.word	524786
 833 01e0 000000E8 		.word	-402653184
 834 01e4 000000E8 		.word	-402653184
 835 01e8 8001     		.short	384
 836 01ea 0000     		.space	2
 837 01ec F20D0000 		.word	3570
 838              		.section	.rodata.SCIFA_SC_TABLE,"a",%progbits
 839              		.align	2
 842              	SCIFA_SC_TABLE:
 843 0000 04000000 		.word	4
 844 0004 00       		.byte	0
 845 0005 000000   		.space	3
 846 0008 80250000 		.word	9600
 847 000c 00       		.byte	0
 848 000d 00       		.byte	0
 849 000e 00       		.byte	0
 850 000f 00       		.byte	0
 851 0010 01       		.byte	1
 852 0011 00       		.byte	0
 853 0012 00       		.byte	0
 854 0013 00       		.byte	0
 855 0014 00       		.byte	0
 856 0015 00       		.byte	0
 857 0016 00       		.byte	0
 858 0017 0F       		.byte	15
 859 0018 01       		.byte	1
 860 0019 01       		.byte	1
 861 001a 01       		.byte	1
 862 001b 01       		.byte	1
 863 001c 01       		.byte	1
 864 001d 02       		.byte	2
 865 001e 02       		.byte	2
 866 001f 00       		.byte	0
 867 0020 1E       		.byte	30
 868 0021 1E       		.byte	30
 869 0022 00       		.byte	0
 870 0023 00       		.space	1
 871 0024 00000000 		.word	GPIO_SC_TABLE_scifa4
 872 0028 02000000 		.word	2
 873 002c 00000000 		.space	4
 874              		.section	.rodata.SDHI_SC_TABLE,"a",%progbits
 875              		.align	2
 878              	SDHI_SC_TABLE:
 879 0000 00000000 		.word	0
 880 0004 00       		.byte	0
 881 0005 01       		.byte	1
 882 0006 01       		.byte	1
 883 0007 00       		.space	1
 884 0008 00000000 		.word	fat_sample_cd_int_cb_function
 885 000c 00000000 		.word	GPIO_SC_TABLE_sdhi_simplified0
 886 0010 02000000 		.word	2
 887 0014 00000000 		.space	4
 888 0018 01000000 		.word	1
 889 001c 00       		.byte	0
 890 001d 00       		.byte	0
 891 001e 00       		.byte	0
 892 001f 00       		.space	1
 893 0020 00000000 		.word	0
 894 0024 00000000 		.word	GPIO_SC_TABLE_sdhi_simplified1
 895 0028 02000000 		.word	2
 896 002c 00000000 		.space	4
 897              		.section	Video_RAM,"aw",%progbits
 898              		.align	2
 901              	video_buffer:
 902 0000 00000000 		.space	691200
 902      00000000 
 902      00000000 
 902      00000000 
 902      00000000 
 903              		.section	Graphics_RAM,"aw",%progbits
 904              		.align	2
 907              	graphics2_buffer:
 908 0000 00000000 		.space	345600
 908      00000000 
 908      00000000 
 908      00000000 
 908      00000000 
 909              		.section	.bss.vsync_count,"aw",%nobits
 910              		.align	2
 913              	vsync_count:
 914 0000 00000000 		.space	4
 915              		.section	.bss.Req_Layer1_Swap,"aw",%nobits
 916              		.align	2
 919              	Req_Layer1_Swap:
 920 0000 00000000 		.space	4
 921              		.section	.bss.Req_Layer2_Swap,"aw",%nobits
 922              		.align	2
 925              	Req_Layer2_Swap:
 926 0000 00000000 		.space	4
 927              		.section	.bss.Layer1_buffer_id,"aw",%nobits
 928              		.align	2
 931              	Layer1_buffer_id:
 932 0000 00000000 		.space	4
 933              		.section	.bss.layer2_buffer_id,"aw",%nobits
 934              		.align	2
 937              	layer2_buffer_id:
 938 0000 00000000 		.space	4
 939              		.section	.text.R_BCD_LcdGetVramAddress,"ax",%progbits
 940              		.align	2
 941              		.global	R_BCD_LcdGetVramAddress
 942              		.syntax unified
 943              		.arm
 944              		.fpu neon
 946              	R_BCD_LcdGetVramAddress:
 947              	.LFB3:
 948              		.file 1 "../src/renesas/application/r_bcd_lcd.c"
   1:../src/renesas/application/r_bcd_lcd.c **** /*******************************************************************************
   2:../src/renesas/application/r_bcd_lcd.c **** * DISCLAIMER
   3:../src/renesas/application/r_bcd_lcd.c **** * This software is supplied by Renesas Electronics Corporation and is only
   4:../src/renesas/application/r_bcd_lcd.c **** * intended for use with Renesas products. No other uses are authorized. This
   5:../src/renesas/application/r_bcd_lcd.c **** * software is owned by Renesas Electronics Corporation and is protected under
   6:../src/renesas/application/r_bcd_lcd.c **** * all applicable laws, including copyright laws.
   7:../src/renesas/application/r_bcd_lcd.c **** * THIS SOFTWARE IS PROVIDED "AS IS" AND RENESAS MAKES NO WARRANTIES REGARDING
   8:../src/renesas/application/r_bcd_lcd.c **** * THIS SOFTWARE, WHETHER EXPRESS, IMPLIED OR STATUTORY, INCLUDING BUT NOT
   9:../src/renesas/application/r_bcd_lcd.c **** * LIMITED TO WARRANTIES OF MERCHANTABILITY, FITNESS FOR A PARTICULAR PURPOSE
  10:../src/renesas/application/r_bcd_lcd.c **** * AND NON-INFRINGEMENT. ALL SUCH WARRANTIES ARE EXPRESSLY DISCLAIMED.
  11:../src/renesas/application/r_bcd_lcd.c **** * TO THE MAXIMUM EXTENT PERMITTED NOT PROHIBITED BY LAW, NEITHER RENESAS
  12:../src/renesas/application/r_bcd_lcd.c **** * ELECTRONICS CORPORATION NOR ANY OF ITS AFFILIATED COMPANIES SHALL BE LIABLE
  13:../src/renesas/application/r_bcd_lcd.c **** * FOR ANY DIRECT, INDIRECT, SPECIAL, INCIDENTAL OR CONSEQUENTIAL DAMAGES FOR
  14:../src/renesas/application/r_bcd_lcd.c **** * ANY REASON RELATED TO THIS SOFTWARE, EVEN IF RENESAS OR ITS AFFILIATES HAVE
  15:../src/renesas/application/r_bcd_lcd.c **** * BEEN ADVISED OF THE POSSIBILITY OF SUCH DAMAGES.
  16:../src/renesas/application/r_bcd_lcd.c **** * Renesas reserves the right, without notice, to make changes to this software
  17:../src/renesas/application/r_bcd_lcd.c **** * and to discontinue the availability of this software. By using this software,
  18:../src/renesas/application/r_bcd_lcd.c **** * you agree to the additional terms and conditions found by accessing the
  19:../src/renesas/application/r_bcd_lcd.c **** * following link:
  20:../src/renesas/application/r_bcd_lcd.c **** * http://www.renesas.com/disclaimer
  21:../src/renesas/application/r_bcd_lcd.c **** * Copyright (C) 2018 Renesas Electronics Corporation. All rights reserved.
  22:../src/renesas/application/r_bcd_lcd.c **** *******************************************************************************/
  23:../src/renesas/application/r_bcd_lcd.c **** 
  24:../src/renesas/application/r_bcd_lcd.c **** /******************************************************************************
  25:../src/renesas/application/r_bcd_lcd.c **** Includes   <System Includes> , "Project Includes"
  26:../src/renesas/application/r_bcd_lcd.c **** ******************************************************************************/
  27:../src/renesas/application/r_bcd_lcd.c **** #include <string.h>
  28:../src/renesas/application/r_bcd_lcd.c **** #include "r_typedefs.h"
  29:../src/renesas/application/r_bcd_lcd.c **** 
  30:../src/renesas/application/r_bcd_lcd.c **** #include "r_rvapi_vdc.h"
  31:../src/renesas/application/r_bcd_lcd.c **** #include "lcd_panel.h"
  32:../src/renesas/application/r_bcd_lcd.c **** #include "r_image_config.h"
  33:../src/renesas/application/r_bcd_lcd.c **** 
  34:../src/renesas/application/r_bcd_lcd.c **** #include "r_bcd_lcd.h"
  35:../src/renesas/application/r_bcd_lcd.c **** #include "draw.h"
  36:../src/renesas/application/r_bcd_lcd.c **** #include "fontdata.h"
  37:../src/renesas/application/r_bcd_lcd.c **** 
  38:../src/renesas/application/r_bcd_lcd.c **** /******************************************************************************
  39:../src/renesas/application/r_bcd_lcd.c **** Typedef definitions
  40:../src/renesas/application/r_bcd_lcd.c **** ******************************************************************************/
  41:../src/renesas/application/r_bcd_lcd.c **** 
  42:../src/renesas/application/r_bcd_lcd.c **** /******************************************************************************
  43:../src/renesas/application/r_bcd_lcd.c **** Macro definitions
  44:../src/renesas/application/r_bcd_lcd.c **** ******************************************************************************/
  45:../src/renesas/application/r_bcd_lcd.c **** 
  46:../src/renesas/application/r_bcd_lcd.c **** 
  47:../src/renesas/application/r_bcd_lcd.c **** /******************************************************************************
  48:../src/renesas/application/r_bcd_lcd.c **** Imported global variables and functions (from other files)
  49:../src/renesas/application/r_bcd_lcd.c **** ******************************************************************************/
  50:../src/renesas/application/r_bcd_lcd.c **** extern void VDC_LcdPortSetting(uint32_t param);
  51:../src/renesas/application/r_bcd_lcd.c **** extern void DrawLine( vdc_layer_id_t layer_id, int32_t x1, int32_t y1, int32_t x2, int32_t y2, uint
  52:../src/renesas/application/r_bcd_lcd.c **** 
  53:../src/renesas/application/r_bcd_lcd.c **** /******************************************************************************
  54:../src/renesas/application/r_bcd_lcd.c **** Exported global variables and functions (to be accessed by other files)
  55:../src/renesas/application/r_bcd_lcd.c **** ******************************************************************************/
  56:../src/renesas/application/r_bcd_lcd.c **** 
  57:../src/renesas/application/r_bcd_lcd.c **** /******************************************************************************
  58:../src/renesas/application/r_bcd_lcd.c **** Private global variables and functions
  59:../src/renesas/application/r_bcd_lcd.c **** ******************************************************************************/
  60:../src/renesas/application/r_bcd_lcd.c **** static uint8_t video_buffer[VIDEO_BUFFER_NUM][(VIDEO_BUFFER_STRIDE * VIDEO_BUFFER_HEIGHT)] __attrib
  61:../src/renesas/application/r_bcd_lcd.c **** static uint8_t graphics2_buffer[GRAPHICS2_BUFFER_NUM][(GRAPHICS2_BUFFER_STRIDE * GRAPHICS2_BUFFER_H
  62:../src/renesas/application/r_bcd_lcd.c **** static volatile int32_t vsync_count = 0;
  63:../src/renesas/application/r_bcd_lcd.c **** 
  64:../src/renesas/application/r_bcd_lcd.c **** static uint32_t Req_Layer1_Swap = 0;
  65:../src/renesas/application/r_bcd_lcd.c **** static uint32_t Req_Layer2_Swap = 0;
  66:../src/renesas/application/r_bcd_lcd.c **** static uint32_t Layer1_buffer_id = 0;
  67:../src/renesas/application/r_bcd_lcd.c **** static uint32_t layer2_buffer_id = 0;
  68:../src/renesas/application/r_bcd_lcd.c **** 
  69:../src/renesas/application/r_bcd_lcd.c **** static void IntCallbackFunc (vdc_int_type_t int_type);
  70:../src/renesas/application/r_bcd_lcd.c **** vdc_error_t r_display_init(const vdc_channel_t vdc_ch);
  71:../src/renesas/application/r_bcd_lcd.c **** vdc_error_t r_image_quality_adjustment(vdc_channel_t vdc_ch);
  72:../src/renesas/application/r_bcd_lcd.c **** vdc_error_t r_video_quality_adjustment(vdc_channel_t vdc_ch);
  73:../src/renesas/application/r_bcd_lcd.c **** 
  74:../src/renesas/application/r_bcd_lcd.c **** /******************************************************************************
  75:../src/renesas/application/r_bcd_lcd.c **** * Function Name: R_BCD_LcdGetVramAddress
  76:../src/renesas/application/r_bcd_lcd.c **** * Description  : Acquire the address of the video buffer which is not currently being displayed
  77:../src/renesas/application/r_bcd_lcd.c **** * Arguments    : -
  78:../src/renesas/application/r_bcd_lcd.c **** * Return Value : Video buffer address
  79:../src/renesas/application/r_bcd_lcd.c **** ******************************************************************************/
  80:../src/renesas/application/r_bcd_lcd.c **** uint8_t *R_BCD_LcdGetVramAddress(void)
  81:../src/renesas/application/r_bcd_lcd.c **** {
 949              		.loc 1 81 0
 950              		.cfi_startproc
 951              		@ args = 0, pretend = 0, frame = 8
 952              		@ frame_needed = 1, uses_anonymous_args = 0
 953              		@ link register save eliminated.
 954 0000 04B02DE5 		str	fp, [sp, #-4]!
 955              		.cfi_def_cfa_offset 4
 956              		.cfi_offset 11, -4
 957 0004 00B08DE2 		add	fp, sp, #0
 958              		.cfi_def_cfa_register 11
 959 0008 0CD04DE2 		sub	sp, sp, #12
  82:../src/renesas/application/r_bcd_lcd.c ****     uint8_t *paddr;
  83:../src/renesas/application/r_bcd_lcd.c **** 
  84:../src/renesas/application/r_bcd_lcd.c **** #if VIDEO_BUFFER_NUM == 1
  85:../src/renesas/application/r_bcd_lcd.c ****     paddr = &video_buffer[0][0];
 960              		.loc 1 85 0
 961 000c 003000E3 		movw	r3, #:lower16:video_buffer
 962 0010 003040E3 		movt	r3, #:upper16:video_buffer
 963 0014 08300BE5 		str	r3, [fp, #-8]
  86:../src/renesas/application/r_bcd_lcd.c **** #else
  87:../src/renesas/application/r_bcd_lcd.c ****     if (Req_Layer1_Swap != 0)
  88:../src/renesas/application/r_bcd_lcd.c ****     {
  89:../src/renesas/application/r_bcd_lcd.c ****         paddr = &video_buffer[1-Layer1_buffer_id][0];
  90:../src/renesas/application/r_bcd_lcd.c ****     }
  91:../src/renesas/application/r_bcd_lcd.c ****     else
  92:../src/renesas/application/r_bcd_lcd.c ****     {
  93:../src/renesas/application/r_bcd_lcd.c ****         paddr = &video_buffer[Layer1_buffer_id][0];
  94:../src/renesas/application/r_bcd_lcd.c ****     }
  95:../src/renesas/application/r_bcd_lcd.c **** #endif
  96:../src/renesas/application/r_bcd_lcd.c ****     return paddr;
 964              		.loc 1 96 0
 965 0018 08301BE5 		ldr	r3, [fp, #-8]
  97:../src/renesas/application/r_bcd_lcd.c **** }
 966              		.loc 1 97 0
 967 001c 0300A0E1 		mov	r0, r3
 968 0020 00D08BE2 		add	sp, fp, #0
 969              		.cfi_def_cfa_register 13
 970              		@ sp needed
 971 0024 04B09DE4 		ldr	fp, [sp], #4
 972              		.cfi_restore 11
 973              		.cfi_def_cfa_offset 0
 974 0028 1EFF2FE1 		bx	lr
 975              		.cfi_endproc
 976              	.LFE3:
 978              		.section	.text.R_BCD_LcdGetOLVramAddress,"ax",%progbits
 979              		.align	2
 980              		.global	R_BCD_LcdGetOLVramAddress
 981              		.syntax unified
 982              		.arm
 983              		.fpu neon
 985              	R_BCD_LcdGetOLVramAddress:
 986              	.LFB4:
  98:../src/renesas/application/r_bcd_lcd.c **** 
  99:../src/renesas/application/r_bcd_lcd.c **** /******************************************************************************
 100:../src/renesas/application/r_bcd_lcd.c **** * Function Name: R_BCD_LcdGetOLVramAddress
 101:../src/renesas/application/r_bcd_lcd.c **** * Description  : Acquire the address of the Overlap buffer which is not currently being displayed
 102:../src/renesas/application/r_bcd_lcd.c **** * Arguments    : -
 103:../src/renesas/application/r_bcd_lcd.c **** * Return Value : Overlap buffer address
 104:../src/renesas/application/r_bcd_lcd.c **** ******************************************************************************/
 105:../src/renesas/application/r_bcd_lcd.c **** uint8_t *R_BCD_LcdGetOLVramAddress(void)
 106:../src/renesas/application/r_bcd_lcd.c **** {
 987              		.loc 1 106 0
 988              		.cfi_startproc
 989              		@ args = 0, pretend = 0, frame = 8
 990              		@ frame_needed = 1, uses_anonymous_args = 0
 991              		@ link register save eliminated.
 992 0000 04B02DE5 		str	fp, [sp, #-4]!
 993              		.cfi_def_cfa_offset 4
 994              		.cfi_offset 11, -4
 995 0004 00B08DE2 		add	fp, sp, #0
 996              		.cfi_def_cfa_register 11
 997 0008 0CD04DE2 		sub	sp, sp, #12
 107:../src/renesas/application/r_bcd_lcd.c ****     uint8_t *paddr;
 108:../src/renesas/application/r_bcd_lcd.c **** 
 109:../src/renesas/application/r_bcd_lcd.c **** #if GRAPHICS2_BUFFER_NUM == 1
 110:../src/renesas/application/r_bcd_lcd.c ****     paddr = &graphics2_buffer[0][0];
 998              		.loc 1 110 0
 999 000c 003000E3 		movw	r3, #:lower16:graphics2_buffer
 1000 0010 003040E3 		movt	r3, #:upper16:graphics2_buffer
 1001 0014 08300BE5 		str	r3, [fp, #-8]
 111:../src/renesas/application/r_bcd_lcd.c **** #else
 112:../src/renesas/application/r_bcd_lcd.c ****     if (Req_Layer2_Swap != 0)
 113:../src/renesas/application/r_bcd_lcd.c ****     {
 114:../src/renesas/application/r_bcd_lcd.c ****         paddr = &graphics2_buffer[layer2_buffer_id][0];
 115:../src/renesas/application/r_bcd_lcd.c ****     }
 116:../src/renesas/application/r_bcd_lcd.c ****     else
 117:../src/renesas/application/r_bcd_lcd.c ****     {
 118:../src/renesas/application/r_bcd_lcd.c ****         paddr =  &graphics2_buffer[1-layer2_buffer_id][0];
 119:../src/renesas/application/r_bcd_lcd.c ****     }
 120:../src/renesas/application/r_bcd_lcd.c **** #endif
 121:../src/renesas/application/r_bcd_lcd.c ****     return paddr;
 1002              		.loc 1 121 0
 1003 0018 08301BE5 		ldr	r3, [fp, #-8]
 122:../src/renesas/application/r_bcd_lcd.c **** }
 1004              		.loc 1 122 0
 1005 001c 0300A0E1 		mov	r0, r3
 1006 0020 00D08BE2 		add	sp, fp, #0
 1007              		.cfi_def_cfa_register 13
 1008              		@ sp needed
 1009 0024 04B09DE4 		ldr	fp, [sp], #4
 1010              		.cfi_restore 11
 1011              		.cfi_def_cfa_offset 0
 1012 0028 1EFF2FE1 		bx	lr
 1013              		.cfi_endproc
 1014              	.LFE4:
 1016              		.section	.text.IntCallbackFunc,"ax",%progbits
 1017              		.align	2
 1018              		.syntax unified
 1019              		.arm
 1020              		.fpu neon
 1022              	IntCallbackFunc:
 1023              	.LFB5:
 123:../src/renesas/application/r_bcd_lcd.c **** 
 124:../src/renesas/application/r_bcd_lcd.c **** /******************************************************************************
 125:../src/renesas/application/r_bcd_lcd.c **** * Function Name: IntCallbackFunc
 126:../src/renesas/application/r_bcd_lcd.c **** * Description  : VDC6 Interrupt callback function
 127:../src/renesas/application/r_bcd_lcd.c **** * Arguments    : int_type
 128:../src/renesas/application/r_bcd_lcd.c **** *              :   VDC6 interrupt type
 129:../src/renesas/application/r_bcd_lcd.c **** * Return Value : -
 130:../src/renesas/application/r_bcd_lcd.c **** ******************************************************************************/
 131:../src/renesas/application/r_bcd_lcd.c **** static void IntCallbackFunc(vdc_int_type_t int_type)
 132:../src/renesas/application/r_bcd_lcd.c **** {
 1024              		.loc 1 132 0
 1025              		.cfi_startproc
 1026              		@ args = 0, pretend = 0, frame = 8
 1027              		@ frame_needed = 1, uses_anonymous_args = 0
 1028 0000 00482DE9 		push	{fp, lr}
 1029              		.cfi_def_cfa_offset 8
 1030              		.cfi_offset 11, -8
 1031              		.cfi_offset 14, -4
 1032 0004 04B08DE2 		add	fp, sp, #4
 1033              		.cfi_def_cfa 11, 4
 1034 0008 08D04DE2 		sub	sp, sp, #8
 1035 000c 0030A0E1 		mov	r3, r0
 1036 0010 05304BE5 		strb	r3, [fp, #-5]
 133:../src/renesas/application/r_bcd_lcd.c ****     if( int_type == VDC_INT_TYPE_VLINE )
 1037              		.loc 1 133 0
 1038 0014 05305BE5 		ldrb	r3, [fp, #-5]	@ zero_extendqisi2
 1039 0018 030053E3 		cmp	r3, #3
 1040 001c 0000001A 		bne	.L6
 134:../src/renesas/application/r_bcd_lcd.c ****     {
 135:../src/renesas/application/r_bcd_lcd.c ****         /* Update the LCD output.*/
 136:../src/renesas/application/r_bcd_lcd.c ****         R_BCD_LcdVSync();
 1041              		.loc 1 136 0
 1042 0020 FEFFFFEB 		bl	R_BCD_LcdVSync
 1043              	.L6:
 137:../src/renesas/application/r_bcd_lcd.c ****     }
 138:../src/renesas/application/r_bcd_lcd.c **** 
 139:../src/renesas/application/r_bcd_lcd.c ****     if( int_type == VDC_INT_TYPE_S0_LO_VSYNC )
 1044              		.loc 1 139 0
 1045 0024 05305BE5 		ldrb	r3, [fp, #-5]	@ zero_extendqisi2
 1046 0028 010053E3 		cmp	r3, #1
 1047 002c 0C00001A 		bne	.L9
 140:../src/renesas/application/r_bcd_lcd.c ****     {
 141:../src/renesas/application/r_bcd_lcd.c ****         if (vsync_count > 0)
 1048              		.loc 1 141 0
 1049 0030 003000E3 		movw	r3, #:lower16:vsync_count
 1050 0034 003040E3 		movt	r3, #:upper16:vsync_count
 1051 0038 003093E5 		ldr	r3, [r3]
 1052 003c 000053E3 		cmp	r3, #0
 1053 0040 070000DA 		ble	.L9
 142:../src/renesas/application/r_bcd_lcd.c ****         {
 143:../src/renesas/application/r_bcd_lcd.c ****             vsync_count--;
 1054              		.loc 1 143 0
 1055 0044 003000E3 		movw	r3, #:lower16:vsync_count
 1056 0048 003040E3 		movt	r3, #:upper16:vsync_count
 1057 004c 003093E5 		ldr	r3, [r3]
 1058 0050 012043E2 		sub	r2, r3, #1
 1059 0054 003000E3 		movw	r3, #:lower16:vsync_count
 1060 0058 003040E3 		movt	r3, #:upper16:vsync_count
 1061 005c 002083E5 		str	r2, [r3]
 144:../src/renesas/application/r_bcd_lcd.c ****         }
 145:../src/renesas/application/r_bcd_lcd.c ****     }
 146:../src/renesas/application/r_bcd_lcd.c **** 
 147:../src/renesas/application/r_bcd_lcd.c ****     return;
 1062              		.loc 1 147 0
 1063 0060 00F020E3 		nop
 1064              	.L9:
 1065 0064 00F020E3 		nop
 148:../src/renesas/application/r_bcd_lcd.c **** }
 1066              		.loc 1 148 0
 1067 0068 04D04BE2 		sub	sp, fp, #4
 1068              		.cfi_def_cfa 13, 8
 1069              		@ sp needed
 1070 006c 0088BDE8 		pop	{fp, pc}
 1071              		.cfi_endproc
 1072              	.LFE5:
 1074              		.section	.text.R_BCD_LcdInit,"ax",%progbits
 1075              		.align	2
 1076              		.global	R_BCD_LcdInit
 1077              		.syntax unified
 1078              		.arm
 1079              		.fpu neon
 1081              	R_BCD_LcdInit:
 1082              	.LFB6:
 149:../src/renesas/application/r_bcd_lcd.c **** 
 150:../src/renesas/application/r_bcd_lcd.c **** /******************************************************************************
 151:../src/renesas/application/r_bcd_lcd.c **** * Function Name: R_BCD_LcdInit
 152:../src/renesas/application/r_bcd_lcd.c **** * Description  : LCD initialization processing
 153:../src/renesas/application/r_bcd_lcd.c **** * Arguments    : -
 154:../src/renesas/application/r_bcd_lcd.c **** * Return Value : Always returns 0
 155:../src/renesas/application/r_bcd_lcd.c **** ******************************************************************************/
 156:../src/renesas/application/r_bcd_lcd.c **** int32_t R_BCD_LcdInit(void)
 157:../src/renesas/application/r_bcd_lcd.c **** {
 1083              		.loc 1 157 0
 1084              		.cfi_startproc
 1085              		@ args = 0, pretend = 0, frame = 1096
 1086              		@ frame_needed = 1, uses_anonymous_args = 0
 1087 0000 00482DE9 		push	{fp, lr}
 1088              		.cfi_def_cfa_offset 8
 1089              		.cfi_offset 11, -8
 1090              		.cfi_offset 14, -4
 1091 0004 04B08DE2 		add	fp, sp, #4
 1092              		.cfi_def_cfa 11, 4
 1093 0008 45DE4DE2 		sub	sp, sp, #1104
 158:../src/renesas/application/r_bcd_lcd.c ****     vdc_error_t error;
 159:../src/renesas/application/r_bcd_lcd.c ****     vdc_channel_t vdc_ch = VDC_CHANNEL_0;
 1094              		.loc 1 159 0
 1095 000c 0030A0E3 		mov	r3, #0
 1096 0010 0D304BE5 		strb	r3, [fp, #-13]
 160:../src/renesas/application/r_bcd_lcd.c ****     uint32_t table_no;
 161:../src/renesas/application/r_bcd_lcd.c ****     uint32_t clut[256];
 162:../src/renesas/application/r_bcd_lcd.c **** 
 163:../src/renesas/application/r_bcd_lcd.c ****     /***********************************************************************/
 164:../src/renesas/application/r_bcd_lcd.c ****     /* display init (VDC6 output setting) */
 165:../src/renesas/application/r_bcd_lcd.c ****     /***********************************************************************/
 166:../src/renesas/application/r_bcd_lcd.c ****     error = r_display_init (vdc_ch);
 1097              		.loc 1 166 0
 1098 0014 0D305BE5 		ldrb	r3, [fp, #-13]	@ zero_extendqisi2
 1099 0018 0300A0E1 		mov	r0, r3
 1100 001c FEFFFFEB 		bl	r_display_init
 1101 0020 0030A0E1 		mov	r3, r0
 1102 0024 05304BE5 		strb	r3, [fp, #-5]
 167:../src/renesas/application/r_bcd_lcd.c **** 
 168:../src/renesas/application/r_bcd_lcd.c ****     /***********************************************************************/
 169:../src/renesas/application/r_bcd_lcd.c ****     /* Interrupt init */
 170:../src/renesas/application/r_bcd_lcd.c ****     /***********************************************************************/
 171:../src/renesas/application/r_bcd_lcd.c **** //    if (error == VDC_OK)
 172:../src/renesas/application/r_bcd_lcd.c **** //    {
 173:../src/renesas/application/r_bcd_lcd.c **** //        uint16_t line_num;
 174:../src/renesas/application/r_bcd_lcd.c **** //
 175:../src/renesas/application/r_bcd_lcd.c **** //        line_num = LCD_CH0_DISP_VS + R_BCD_LCD_HEIGHT;
 176:../src/renesas/application/r_bcd_lcd.c **** //        error = R_RVAPI_InterruptEnableVDC(vdc_ch, VDC_INT_TYPE_VLINE, line_num, IntCallbackFunc)
 177:../src/renesas/application/r_bcd_lcd.c **** //    }
 178:../src/renesas/application/r_bcd_lcd.c **** 
 179:../src/renesas/application/r_bcd_lcd.c ****     if (error == VDC_OK)
 1103              		.loc 1 179 0
 1104 0028 05305BE5 		ldrb	r3, [fp, #-5]	@ zero_extendqisi2
 1105 002c 000053E3 		cmp	r3, #0
 1106 0030 0700001A 		bne	.L11
 180:../src/renesas/application/r_bcd_lcd.c ****     {
 181:../src/renesas/application/r_bcd_lcd.c ****         error = R_RVAPI_InterruptEnableVDC(vdc_ch, VDC_INT_TYPE_S0_LO_VSYNC, 0, IntCallbackFunc);
 1107              		.loc 1 181 0
 1108 0034 0D005BE5 		ldrb	r0, [fp, #-13]	@ zero_extendqisi2
 1109 0038 003000E3 		movw	r3, #:lower16:IntCallbackFunc
 1110 003c 003040E3 		movt	r3, #:upper16:IntCallbackFunc
 1111 0040 0020A0E3 		mov	r2, #0
 1112 0044 0110A0E3 		mov	r1, #1
 1113 0048 FEFFFFEB 		bl	R_RVAPI_InterruptEnableVDC
 1114 004c 0030A0E1 		mov	r3, r0
 1115 0050 05304BE5 		strb	r3, [fp, #-5]
 1116              	.L11:
 182:../src/renesas/application/r_bcd_lcd.c ****     }
 183:../src/renesas/application/r_bcd_lcd.c **** 
 184:../src/renesas/application/r_bcd_lcd.c ****     /***********************************************************************/
 185:../src/renesas/application/r_bcd_lcd.c ****     /* Graphic Layer 0 VDC6_GR_FORMAT_CLUT8 */
 186:../src/renesas/application/r_bcd_lcd.c ****     /***********************************************************************/
 187:../src/renesas/application/r_bcd_lcd.c ****     if (error == VDC_OK)
 1117              		.loc 1 187 0
 1118 0054 05305BE5 		ldrb	r3, [fp, #-5]	@ zero_extendqisi2
 1119 0058 000053E3 		cmp	r3, #0
 1120 005c 4500001A 		bne	.L12
 1121              	.LBB2:
 188:../src/renesas/application/r_bcd_lcd.c ****     {
 189:../src/renesas/application/r_bcd_lcd.c ****         gr_surface_disp_config_t gr_disp_cnf;
 190:../src/renesas/application/r_bcd_lcd.c **** 
 191:../src/renesas/application/r_bcd_lcd.c ****         for(table_no = 0; table_no < 256 ; table_no ++ )
 1122              		.loc 1 191 0
 1123 0060 0030A0E3 		mov	r3, #0
 1124 0064 0C300BE5 		str	r3, [fp, #-12]
 1125 0068 0F0000EA 		b	.L13
 1126              	.L14:
 192:../src/renesas/application/r_bcd_lcd.c ****         {
 193:../src/renesas/application/r_bcd_lcd.c ****             clut[table_no] = 0xFF000000 | (table_no << 16 ) | (table_no << 8) | table_no;
 1127              		.loc 1 193 0 discriminator 3
 1128 006c 0C301BE5 		ldr	r3, [fp, #-12]
 1129 0070 0328A0E1 		lsl	r2, r3, #16
 1130 0074 0C301BE5 		ldr	r3, [fp, #-12]
 1131 0078 0334A0E1 		lsl	r3, r3, #8
 1132 007c 032082E1 		orr	r2, r2, r3
 1133 0080 0C301BE5 		ldr	r3, [fp, #-12]
 1134 0084 033082E1 		orr	r3, r2, r3
 1135 0088 FF2483E3 		orr	r2, r3, #-16777216
 1136 008c 0C301BE5 		ldr	r3, [fp, #-12]
 1137 0090 0331A0E1 		lsl	r3, r3, #2
 1138 0094 04104BE2 		sub	r1, fp, #4
 1139 0098 033081E0 		add	r3, r1, r3
 1140 009c 0C2403E5 		str	r2, [r3, #-1036]
 191:../src/renesas/application/r_bcd_lcd.c ****         {
 1141              		.loc 1 191 0 discriminator 3
 1142 00a0 0C301BE5 		ldr	r3, [fp, #-12]
 1143 00a4 013083E2 		add	r3, r3, #1
 1144 00a8 0C300BE5 		str	r3, [fp, #-12]
 1145              	.L13:
 191:../src/renesas/application/r_bcd_lcd.c ****         {
 1146              		.loc 1 191 0 is_stmt 0 discriminator 1
 1147 00ac 0C301BE5 		ldr	r3, [fp, #-12]
 1148 00b0 FF0053E3 		cmp	r3, #255
 1149 00b4 ECFFFF9A 		bls	.L14
 194:../src/renesas/application/r_bcd_lcd.c ****         }
 195:../src/renesas/application/r_bcd_lcd.c **** 
 196:../src/renesas/application/r_bcd_lcd.c ****         gr_disp_cnf.layer_id  = VDC_LAYER_ID_0_RD;         /* Layer ID                        */
 1150              		.loc 1 196 0 is_stmt 1
 1151 00b8 0130A0E3 		mov	r3, #1
 1152 00bc 4C344BE5 		strb	r3, [fp, #-1100]
 197:../src/renesas/application/r_bcd_lcd.c ****         gr_disp_cnf.fb_buff   = (void *)&video_buffer[0];   /* Frame buffer address            */
 1153              		.loc 1 197 0
 1154 00c0 003000E3 		movw	r3, #:lower16:video_buffer
 1155 00c4 003040E3 		movt	r3, #:upper16:video_buffer
 1156 00c8 40340BE5 		str	r3, [fp, #-1088]
 198:../src/renesas/application/r_bcd_lcd.c ****         gr_disp_cnf.fb_stride = VIDEO_BUFFER_STRIDE;        /* Frame buffer stride             */
 1157              		.loc 1 198 0
 1158 00cc 0F3DA0E3 		mov	r3, #960
 1159 00d0 3C340BE5 		str	r3, [fp, #-1084]
 199:../src/renesas/application/r_bcd_lcd.c **** 
 200:../src/renesas/application/r_bcd_lcd.c ****         /* Display Area               */
 201:../src/renesas/application/r_bcd_lcd.c ****         gr_disp_cnf.disp_area.hs_rel = LAYER0_DISP_AREA_HS;
 1160              		.loc 1 201 0
 1161 00d4 04304BE2 		sub	r3, fp, #4
 1162 00d8 113D43E2 		sub	r3, r3, #1088
 1163 00dc 083043E2 		sub	r3, r3, #8
 1164 00e0 0020A0E3 		mov	r2, #0
 1165 00e4 B620C3E1 		strh	r2, [r3, #6]	@ movhi
 202:../src/renesas/application/r_bcd_lcd.c ****         gr_disp_cnf.disp_area.hw_rel = LAYER0_DISP_AREA_HW;
 1166              		.loc 1 202 0
 1167 00e8 04304BE2 		sub	r3, fp, #4
 1168 00ec 113D43E2 		sub	r3, r3, #1088
 1169 00f0 083043E2 		sub	r3, r3, #8
 1170 00f4 0F2DA0E3 		mov	r2, #960
 1171 00f8 B820C3E1 		strh	r2, [r3, #8]	@ movhi
 203:../src/renesas/application/r_bcd_lcd.c ****         gr_disp_cnf.disp_area.vs_rel = LAYER0_DISP_AREA_VS;
 1172              		.loc 1 203 0
 1173 00fc 04304BE2 		sub	r3, fp, #4
 1174 0100 113D43E2 		sub	r3, r3, #1088
 1175 0104 083043E2 		sub	r3, r3, #8
 1176 0108 0020A0E3 		mov	r2, #0
 1177 010c B220C3E1 		strh	r2, [r3, #2]	@ movhi
 204:../src/renesas/application/r_bcd_lcd.c ****         gr_disp_cnf.disp_area.vw_rel = LAYER0_DISP_AREA_VW;
 1178              		.loc 1 204 0
 1179 0110 04304BE2 		sub	r3, fp, #4
 1180 0114 113D43E2 		sub	r3, r3, #1088
 1181 0118 083043E2 		sub	r3, r3, #8
 1182 011c 2D2EA0E3 		mov	r2, #720
 1183 0120 B420C3E1 		strh	r2, [r3, #4]	@ movhi
 205:../src/renesas/application/r_bcd_lcd.c **** 
 206:../src/renesas/application/r_bcd_lcd.c ****         gr_disp_cnf.read_format   = VDC_GR_FORMAT_CLUT8;           /* Read Format                */
 1184              		.loc 1 206 0
 1185 0124 0530A0E3 		mov	r3, #5
 1186 0128 38344BE5 		strb	r3, [fp, #-1080]
 207:../src/renesas/application/r_bcd_lcd.c ****         gr_disp_cnf.read_ycc_swap = VDC_GR_YCCSWAP_CBY0CRY1;       /* Read Swap for YCbCr422     */
 1187              		.loc 1 207 0
 1188 012c 0030A0E3 		mov	r3, #0
 1189 0130 30344BE5 		strb	r3, [fp, #-1072]
 208:../src/renesas/application/r_bcd_lcd.c ****         gr_disp_cnf.read_swap     = VDC_WR_RD_WRSWA_32_16_8BIT;    /* Read Swap 8bit/16bit/32bit */
 1190              		.loc 1 208 0
 1191 0134 0730A0E3 		mov	r3, #7
 1192 0138 2F344BE5 		strb	r3, [fp, #-1071]
 209:../src/renesas/application/r_bcd_lcd.c **** 
 210:../src/renesas/application/r_bcd_lcd.c ****         gr_disp_cnf.clut_table = clut;  /* Setting if Read Format is CLUT. */
 1193              		.loc 1 210 0
 1194 013c 013B4BE2 		sub	r3, fp, #1024
 1195 0140 043043E2 		sub	r3, r3, #4
 1196 0144 0C3043E2 		sub	r3, r3, #12
 1197 0148 34340BE5 		str	r3, [fp, #-1076]
 211:../src/renesas/application/r_bcd_lcd.c **** 
 212:../src/renesas/application/r_bcd_lcd.c ****         gr_disp_cnf.disp_mode = VDC_DISPSEL_CURRENT;   /* Display mode select        */
 1198              		.loc 1 212 0
 1199 014c 0230A0E3 		mov	r3, #2
 1200 0150 2E344BE5 		strb	r3, [fp, #-1070]
 213:../src/renesas/application/r_bcd_lcd.c **** 
 214:../src/renesas/application/r_bcd_lcd.c ****         error = R_RVAPI_GraphCreateSurfaceVDC(vdc_ch, &gr_disp_cnf);
 1201              		.loc 1 214 0
 1202 0154 113D4BE2 		sub	r3, fp, #1088
 1203 0158 043043E2 		sub	r3, r3, #4
 1204 015c 083043E2 		sub	r3, r3, #8
 1205 0160 0D205BE5 		ldrb	r2, [fp, #-13]	@ zero_extendqisi2
 1206 0164 0310A0E1 		mov	r1, r3
 1207 0168 0200A0E1 		mov	r0, r2
 1208 016c FEFFFFEB 		bl	R_RVAPI_GraphCreateSurfaceVDC
 1209 0170 0030A0E1 		mov	r3, r0
 1210 0174 05304BE5 		strb	r3, [fp, #-5]
 1211              	.L12:
 1212              	.LBE2:
 215:../src/renesas/application/r_bcd_lcd.c ****    }
 216:../src/renesas/application/r_bcd_lcd.c **** 
 217:../src/renesas/application/r_bcd_lcd.c ****     /***********************************************************************/
 218:../src/renesas/application/r_bcd_lcd.c ****     /* Graphic Layer 2 VDC6_GR_FORMAT_CLUT4 */
 219:../src/renesas/application/r_bcd_lcd.c ****     /***********************************************************************/
 220:../src/renesas/application/r_bcd_lcd.c ****     if (error == VDC_OK)
 1213              		.loc 1 220 0
 1214 0178 05305BE5 		ldrb	r3, [fp, #-5]	@ zero_extendqisi2
 1215 017c 000053E3 		cmp	r3, #0
 1216 0180 5900001A 		bne	.L15
 1217              	.LBB3:
 221:../src/renesas/application/r_bcd_lcd.c ****     {
 222:../src/renesas/application/r_bcd_lcd.c ****         gr_surface_disp_config_t gr_disp_cnf;
 223:../src/renesas/application/r_bcd_lcd.c **** 
 224:../src/renesas/application/r_bcd_lcd.c ****         clut[BLACK]       = BLACK_DATA;
 1218              		.loc 1 224 0
 1219 0184 FF34A0E3 		mov	r3, #-16777216
 1220 0188 10340BE5 		str	r3, [fp, #-1040]
 225:../src/renesas/application/r_bcd_lcd.c ****         clut[BLUE]        = BLUE_DATA;
 1221              		.loc 1 225 0
 1222 018c FF30A0E3 		mov	r3, #255
 1223 0190 003F4FE3 		movt	r3, 65280
 1224 0194 0C340BE5 		str	r3, [fp, #-1036]
 226:../src/renesas/application/r_bcd_lcd.c ****         clut[GREEN]       = GREEN_DATA;
 1225              		.loc 1 226 0
 1226 0198 FF3CA0E3 		mov	r3, #65280
 1227 019c 003F4FE3 		movt	r3, 65280
 1228 01a0 08340BE5 		str	r3, [fp, #-1032]
 227:../src/renesas/application/r_bcd_lcd.c ****         clut[RED]         = RED_DATA;
 1229              		.loc 1 227 0
 1230 01a4 0030A0E3 		mov	r3, #0
 1231 01a8 FF3F4FE3 		movt	r3, 65535
 1232 01ac 04340BE5 		str	r3, [fp, #-1028]
 228:../src/renesas/application/r_bcd_lcd.c ****         clut[WHITE]       = WHITE_DATA;
 1233              		.loc 1 228 0
 1234 01b0 0030E0E3 		mvn	r3, #0
 1235 01b4 00340BE5 		str	r3, [fp, #-1024]
 229:../src/renesas/application/r_bcd_lcd.c ****         clut[CYAN]        = CYAN_DATA;
 1236              		.loc 1 229 0
 1237 01b8 FF38E0E3 		mvn	r3, #16711680
 1238 01bc FC330BE5 		str	r3, [fp, #-1020]
 230:../src/renesas/application/r_bcd_lcd.c ****         clut[YELLOW]      = YELLOW_DATA;
 1239              		.loc 1 230 0
 1240 01c0 FF30E0E3 		mvn	r3, #255
 1241 01c4 F8330BE5 		str	r3, [fp, #-1016]
 231:../src/renesas/application/r_bcd_lcd.c ****         clut[MAGENTA]     = MAGENTA_DATA;
 1242              		.loc 1 231 0
 1243 01c8 FF3CE0E3 		mvn	r3, #65280
 1244 01cc F4330BE5 		str	r3, [fp, #-1012]
 232:../src/renesas/application/r_bcd_lcd.c ****         clut[NAVY]        = NAVY_DATA;
 1245              		.loc 1 232 0
 1246 01d0 8030A0E3 		mov	r3, #128
 1247 01d4 003F4FE3 		movt	r3, 65280
 1248 01d8 F0330BE5 		str	r3, [fp, #-1008]
 233:../src/renesas/application/r_bcd_lcd.c ****         clut[DARKGREEN]   = DARKGREEN_DATA;
 1249              		.loc 1 233 0
 1250 01dc 193BA0E3 		mov	r3, #25600
 1251 01e0 003F4FE3 		movt	r3, 65280
 1252 01e4 EC330BE5 		str	r3, [fp, #-1004]
 234:../src/renesas/application/r_bcd_lcd.c ****         clut[DEEPSKYBLUE] = DEEPSKYBLUE_DATA;
 1253              		.loc 1 234 0
 1254 01e8 FF3F0BE3 		movw	r3, #49151
 1255 01ec 003F4FE3 		movt	r3, 65280
 1256 01f0 E8330BE5 		str	r3, [fp, #-1000]
 235:../src/renesas/application/r_bcd_lcd.c ****         clut[PURPLE]      = PURPLE_DATA;
 1257              		.loc 1 235 0
 1258 01f4 8030A0E3 		mov	r3, #128
 1259 01f8 803F4FE3 		movt	r3, 65408
 1260 01fc E4330BE5 		str	r3, [fp, #-996]
 236:../src/renesas/application/r_bcd_lcd.c ****         clut[GRAY]        = GRAY_DATA;
 1261              		.loc 1 236 0
 1262 0200 803008E3 		movw	r3, #32896
 1263 0204 803F4FE3 		movt	r3, 65408
 1264 0208 E0330BE5 		str	r3, [fp, #-992]
 237:../src/renesas/application/r_bcd_lcd.c ****         clut[BROWN]       = BROWN_DATA;
 1265              		.loc 1 237 0
 1266 020c 2A3A02E3 		movw	r3, #10794
 1267 0210 A53F4FE3 		movt	r3, 65445
 1268 0214 DC330BE5 		str	r3, [fp, #-988]
 238:../src/renesas/application/r_bcd_lcd.c ****         clut[GOLD]        = GOLD_DATA;
 1269              		.loc 1 238 0
 1270 0218 80370DE3 		movw	r3, #55168
 1271 021c FF3F4FE3 		movt	r3, 65535
 1272 0220 D8330BE5 		str	r3, [fp, #-984]
 239:../src/renesas/application/r_bcd_lcd.c ****         clut[TRANSPARENT] = TRANSPARENT_DATA;
 1273              		.loc 1 239 0
 1274 0224 FF34E0E3 		mvn	r3, #-16777216
 1275 0228 D4330BE5 		str	r3, [fp, #-980]
 240:../src/renesas/application/r_bcd_lcd.c **** 
 241:../src/renesas/application/r_bcd_lcd.c ****         gr_disp_cnf.layer_id  = VDC_LAYER_ID_2_RD;             /* Layer ID                        *
 1276              		.loc 1 241 0
 1277 022c 0230A0E3 		mov	r3, #2
 1278 0230 4C344BE5 		strb	r3, [fp, #-1100]
 242:../src/renesas/application/r_bcd_lcd.c ****         gr_disp_cnf.fb_buff   = (void *)&graphics2_buffer[0];   /* Frame buffer address            
 1279              		.loc 1 242 0
 1280 0234 003000E3 		movw	r3, #:lower16:graphics2_buffer
 1281 0238 003040E3 		movt	r3, #:upper16:graphics2_buffer
 1282 023c 40340BE5 		str	r3, [fp, #-1088]
 243:../src/renesas/application/r_bcd_lcd.c ****         gr_disp_cnf.fb_stride = GRAPHICS2_BUFFER_STRIDE;        /* Frame buffer stride             
 1283              		.loc 1 243 0
 1284 0240 1E3EA0E3 		mov	r3, #480
 1285 0244 3C340BE5 		str	r3, [fp, #-1084]
 244:../src/renesas/application/r_bcd_lcd.c **** 
 245:../src/renesas/application/r_bcd_lcd.c ****         /* Display Area               */
 246:../src/renesas/application/r_bcd_lcd.c ****         gr_disp_cnf.disp_area.hs_rel = LAYER2_DISP_AREA_HS;
 1286              		.loc 1 246 0
 1287 0248 04304BE2 		sub	r3, fp, #4
 1288 024c 113D43E2 		sub	r3, r3, #1088
 1289 0250 083043E2 		sub	r3, r3, #8
 1290 0254 0020A0E3 		mov	r2, #0
 1291 0258 B620C3E1 		strh	r2, [r3, #6]	@ movhi
 247:../src/renesas/application/r_bcd_lcd.c ****         gr_disp_cnf.disp_area.hw_rel = LAYER2_DISP_AREA_HW;
 1292              		.loc 1 247 0
 1293 025c 04304BE2 		sub	r3, fp, #4
 1294 0260 113D43E2 		sub	r3, r3, #1088
 1295 0264 083043E2 		sub	r3, r3, #8
 1296 0268 0F2DA0E3 		mov	r2, #960
 1297 026c B820C3E1 		strh	r2, [r3, #8]	@ movhi
 248:../src/renesas/application/r_bcd_lcd.c ****         gr_disp_cnf.disp_area.vs_rel = LAYER2_DISP_AREA_VS;
 1298              		.loc 1 248 0
 1299 0270 04304BE2 		sub	r3, fp, #4
 1300 0274 113D43E2 		sub	r3, r3, #1088
 1301 0278 083043E2 		sub	r3, r3, #8
 1302 027c 0020A0E3 		mov	r2, #0
 1303 0280 B220C3E1 		strh	r2, [r3, #2]	@ movhi
 249:../src/renesas/application/r_bcd_lcd.c ****         gr_disp_cnf.disp_area.vw_rel = LAYER2_DISP_AREA_VW;
 1304              		.loc 1 249 0
 1305 0284 04304BE2 		sub	r3, fp, #4
 1306 0288 113D43E2 		sub	r3, r3, #1088
 1307 028c 083043E2 		sub	r3, r3, #8
 1308 0290 2D2EA0E3 		mov	r2, #720
 1309 0294 B420C3E1 		strh	r2, [r3, #4]	@ movhi
 250:../src/renesas/application/r_bcd_lcd.c **** 
 251:../src/renesas/application/r_bcd_lcd.c ****         gr_disp_cnf.read_format   = VDC_GR_FORMAT_CLUT4;           /* Read Format                */
 1310              		.loc 1 251 0
 1311 0298 0630A0E3 		mov	r3, #6
 1312 029c 38344BE5 		strb	r3, [fp, #-1080]
 252:../src/renesas/application/r_bcd_lcd.c ****         gr_disp_cnf.read_ycc_swap = VDC_GR_YCCSWAP_CBY0CRY1;       /* Read Swap for YCbCr422     */
 1313              		.loc 1 252 0
 1314 02a0 0030A0E3 		mov	r3, #0
 1315 02a4 30344BE5 		strb	r3, [fp, #-1072]
 253:../src/renesas/application/r_bcd_lcd.c ****         gr_disp_cnf.read_swap     = VDC_WR_RD_WRSWA_32_16_8BIT;    /* Read Swap 8bit/16bit/32bit */
 1316              		.loc 1 253 0
 1317 02a8 0730A0E3 		mov	r3, #7
 1318 02ac 2F344BE5 		strb	r3, [fp, #-1071]
 254:../src/renesas/application/r_bcd_lcd.c **** 
 255:../src/renesas/application/r_bcd_lcd.c ****         gr_disp_cnf.clut_table = clut;  /* Setting if Read Format is CLUT. */
 1319              		.loc 1 255 0
 1320 02b0 013B4BE2 		sub	r3, fp, #1024
 1321 02b4 043043E2 		sub	r3, r3, #4
 1322 02b8 0C3043E2 		sub	r3, r3, #12
 1323 02bc 34340BE5 		str	r3, [fp, #-1076]
 256:../src/renesas/application/r_bcd_lcd.c **** 
 257:../src/renesas/application/r_bcd_lcd.c ****         gr_disp_cnf.disp_mode = VDC_DISPSEL_BLEND;   /* Display mode select */
 1324              		.loc 1 257 0
 1325 02c0 0330A0E3 		mov	r3, #3
 1326 02c4 2E344BE5 		strb	r3, [fp, #-1070]
 258:../src/renesas/application/r_bcd_lcd.c **** 
 259:../src/renesas/application/r_bcd_lcd.c ****         error = R_RVAPI_GraphCreateSurfaceVDC(vdc_ch, &gr_disp_cnf);
 1327              		.loc 1 259 0
 1328 02c8 113D4BE2 		sub	r3, fp, #1088
 1329 02cc 043043E2 		sub	r3, r3, #4
 1330 02d0 083043E2 		sub	r3, r3, #8
 1331 02d4 0D205BE5 		ldrb	r2, [fp, #-13]	@ zero_extendqisi2
 1332 02d8 0310A0E1 		mov	r1, r3
 1333 02dc 0200A0E1 		mov	r0, r2
 1334 02e0 FEFFFFEB 		bl	R_RVAPI_GraphCreateSurfaceVDC
 1335 02e4 0030A0E1 		mov	r3, r0
 1336 02e8 05304BE5 		strb	r3, [fp, #-5]
 1337              	.L15:
 1338              	.LBE3:
 1339              	.LBB4:
 260:../src/renesas/application/r_bcd_lcd.c ****     }
 261:../src/renesas/application/r_bcd_lcd.c **** 
 262:../src/renesas/application/r_bcd_lcd.c ****     {
 263:../src/renesas/application/r_bcd_lcd.c ****         draw_buffer_info            info;
 264:../src/renesas/application/r_bcd_lcd.c **** 
 265:../src/renesas/application/r_bcd_lcd.c ****         /* gra draw init */
 266:../src/renesas/application/r_bcd_lcd.c ****         info.buff_addr1        = graphics2_buffer[0];
 1340              		.loc 1 266 0
 1341 02ec 003000E3 		movw	r3, #:lower16:graphics2_buffer
 1342 02f0 003040E3 		movt	r3, #:upper16:graphics2_buffer
 1343 02f4 2C340BE5 		str	r3, [fp, #-1068]
 267:../src/renesas/application/r_bcd_lcd.c ****         info.buff_addr2 = (GRAPHICS2_BUFFER_NUM == 1)? graphics2_buffer[0] : graphics2_buffer[1];
 1344              		.loc 1 267 0
 1345 02f8 003000E3 		movw	r3, #:lower16:graphics2_buffer
 1346 02fc 003040E3 		movt	r3, #:upper16:graphics2_buffer
 1347 0300 28340BE5 		str	r3, [fp, #-1064]
 268:../src/renesas/application/r_bcd_lcd.c ****         info.buff_stride       = GRAPHICS2_BUFFER_STRIDE;
 1348              		.loc 1 268 0
 1349 0304 1E3EA0E3 		mov	r3, #480
 1350 0308 20340BE5 		str	r3, [fp, #-1056]
 269:../src/renesas/application/r_bcd_lcd.c ****         info.window_width      = LAYER2_DISP_AREA_HW;
 1351              		.loc 1 269 0
 1352 030c 0F3DA0E3 		mov	r3, #960
 1353 0310 18340BE5 		str	r3, [fp, #-1048]
 270:../src/renesas/application/r_bcd_lcd.c ****         info.window_height     = LAYER2_DISP_AREA_VW;
 1354              		.loc 1 270 0
 1355 0314 2D3EA0E3 		mov	r3, #720
 1356 0318 14340BE5 		str	r3, [fp, #-1044]
 271:../src/renesas/application/r_bcd_lcd.c ****         DrawInit( VDC_LAYER_ID_2_RD, &info );
 1357              		.loc 1 271 0
 1358 031c 423E4BE2 		sub	r3, fp, #1056
 1359 0320 043043E2 		sub	r3, r3, #4
 1360 0324 083043E2 		sub	r3, r3, #8
 1361 0328 0310A0E1 		mov	r1, r3
 1362 032c 0200A0E3 		mov	r0, #2
 1363 0330 FEFFFFEB 		bl	DrawInit
 272:../src/renesas/application/r_bcd_lcd.c **** 
 273:../src/renesas/application/r_bcd_lcd.c ****         /* buffer claer */
 274:../src/renesas/application/r_bcd_lcd.c ****         DrawRectFill( VDC_LAYER_ID_2_RD, 0 ,0, GRAPHICS2_BUFFER_STRIDE, R_BCD_LCD_HEIGHT, TRANSPARE
 1364              		.loc 1 274 0
 1365 0334 0F30A0E3 		mov	r3, #15
 1366 0338 04308DE5 		str	r3, [sp, #4]
 1367 033c 2D3EA0E3 		mov	r3, #720
 1368 0340 00308DE5 		str	r3, [sp]
 1369 0344 1E3EA0E3 		mov	r3, #480
 1370 0348 0020A0E3 		mov	r2, #0
 1371 034c 0010A0E3 		mov	r1, #0
 1372 0350 0200A0E3 		mov	r0, #2
 1373 0354 FEFFFFEB 		bl	DrawRectFill
 1374              	.LBE4:
 275:../src/renesas/application/r_bcd_lcd.c ****     }
 276:../src/renesas/application/r_bcd_lcd.c **** 
 277:../src/renesas/application/r_bcd_lcd.c ****     /* image and video quality adjustment */
 278:../src/renesas/application/r_bcd_lcd.c ****     if (VDC_OK == error)
 1375              		.loc 1 278 0
 1376 0358 05305BE5 		ldrb	r3, [fp, #-5]	@ zero_extendqisi2
 1377 035c 000053E3 		cmp	r3, #0
 1378 0360 0200001A 		bne	.L16
 279:../src/renesas/application/r_bcd_lcd.c ****     {
 280:../src/renesas/application/r_bcd_lcd.c ****         r_image_quality_adjustment(vdc_ch);
 1379              		.loc 1 280 0
 1380 0364 0D305BE5 		ldrb	r3, [fp, #-13]	@ zero_extendqisi2
 1381 0368 0300A0E1 		mov	r0, r3
 1382 036c FEFFFFEB 		bl	r_image_quality_adjustment
 1383              	.L16:
 281:../src/renesas/application/r_bcd_lcd.c **** #if 0
 282:../src/renesas/application/r_bcd_lcd.c ****         r_video_quality_adjustment(vdc_ch);  /* It is possible to use it when inputting video with 
 283:../src/renesas/application/r_bcd_lcd.c ****                                               In this sample, it can not be used because it is vide
 284:../src/renesas/application/r_bcd_lcd.c **** #endif
 285:../src/renesas/application/r_bcd_lcd.c ****     }
 286:../src/renesas/application/r_bcd_lcd.c **** 
 287:../src/renesas/application/r_bcd_lcd.c ****     /* Display On */
 288:../src/renesas/application/r_bcd_lcd.c ****     if (VDC_OK == error)
 1384              		.loc 1 288 0
 1385 0370 05305BE5 		ldrb	r3, [fp, #-5]	@ zero_extendqisi2
 1386 0374 000053E3 		cmp	r3, #0
 1387 0378 0400001A 		bne	.L17
 289:../src/renesas/application/r_bcd_lcd.c ****     {
 290:../src/renesas/application/r_bcd_lcd.c ****         R_RVAPI_DispPortSettingVDC(vdc_ch, &VDC_LcdPortSetting);
 1388              		.loc 1 290 0
 1389 037c 0D305BE5 		ldrb	r3, [fp, #-13]	@ zero_extendqisi2
 1390 0380 001000E3 		movw	r1, #:lower16:VDC_LcdPortSetting
 1391 0384 001040E3 		movt	r1, #:upper16:VDC_LcdPortSetting
 1392 0388 0300A0E1 		mov	r0, r3
 1393 038c FEFFFFEB 		bl	R_RVAPI_DispPortSettingVDC
 1394              	.L17:
 291:../src/renesas/application/r_bcd_lcd.c ****     }
 292:../src/renesas/application/r_bcd_lcd.c **** 
 293:../src/renesas/application/r_bcd_lcd.c ****     return 0;
 1395              		.loc 1 293 0
 1396 0390 0030A0E3 		mov	r3, #0
 294:../src/renesas/application/r_bcd_lcd.c **** }
 1397              		.loc 1 294 0
 1398 0394 0300A0E1 		mov	r0, r3
 1399 0398 04D04BE2 		sub	sp, fp, #4
 1400              		.cfi_def_cfa 13, 8
 1401              		@ sp needed
 1402 039c 0088BDE8 		pop	{fp, pc}
 1403              		.cfi_endproc
 1404              	.LFE6:
 1406              		.section	.text.r_display_init,"ax",%progbits
 1407              		.align	2
 1408              		.global	r_display_init
 1409              		.syntax unified
 1410              		.arm
 1411              		.fpu neon
 1413              	r_display_init:
 1414              	.LFB7:
 295:../src/renesas/application/r_bcd_lcd.c **** 
 296:../src/renesas/application/r_bcd_lcd.c **** /******************************************************************************
 297:../src/renesas/application/r_bcd_lcd.c **** * Function Name: r_display_init
 298:../src/renesas/application/r_bcd_lcd.c **** * Description  : VDC6 output setting
 299:../src/renesas/application/r_bcd_lcd.c **** * Arguments    : vdc_ch
 300:../src/renesas/application/r_bcd_lcd.c **** *              :   Channel
 301:../src/renesas/application/r_bcd_lcd.c **** * Return Value : 0
 302:../src/renesas/application/r_bcd_lcd.c **** *              :   success
 303:../src/renesas/application/r_bcd_lcd.c **** *              : other
 304:../src/renesas/application/r_bcd_lcd.c **** *              :   fail (vdc_error_t)
 305:../src/renesas/application/r_bcd_lcd.c **** ******************************************************************************/
 306:../src/renesas/application/r_bcd_lcd.c **** vdc_error_t r_display_init(const vdc_channel_t vdc_ch)
 307:../src/renesas/application/r_bcd_lcd.c **** {
 1415              		.loc 1 307 0
 1416              		.cfi_startproc
 1417              		@ args = 0, pretend = 0, frame = 64
 1418              		@ frame_needed = 1, uses_anonymous_args = 0
 1419 0000 00482DE9 		push	{fp, lr}
 1420              		.cfi_def_cfa_offset 8
 1421              		.cfi_offset 11, -8
 1422              		.cfi_offset 14, -4
 1423 0004 04B08DE2 		add	fp, sp, #4
 1424              		.cfi_def_cfa 11, 4
 1425 0008 40D04DE2 		sub	sp, sp, #64
 1426 000c 0030A0E1 		mov	r3, r0
 1427 0010 3D304BE5 		strb	r3, [fp, #-61]
 1428              	.LBB5:
 308:../src/renesas/application/r_bcd_lcd.c ****     vdc_error_t error;
 309:../src/renesas/application/r_bcd_lcd.c **** 
 310:../src/renesas/application/r_bcd_lcd.c ****     /* Display clock setting */
 311:../src/renesas/application/r_bcd_lcd.c ****     {
 312:../src/renesas/application/r_bcd_lcd.c ****         clock_config_t clock_config;
 313:../src/renesas/application/r_bcd_lcd.c ****         vdc_lvds_t lvds;
 314:../src/renesas/application/r_bcd_lcd.c **** 
 315:../src/renesas/application/r_bcd_lcd.c ****         clock_config.panel_clk = LCD_CH0_PANEL_CLK;
 1429              		.loc 1 315 0
 1430 0014 0330A0E3 		mov	r3, #3
 1431 0018 10304BE5 		strb	r3, [fp, #-16]
 316:../src/renesas/application/r_bcd_lcd.c ****         clock_config.panel_clk_div = LCD_CH0_PANEL_CLK_DIV;
 1432              		.loc 1 316 0
 1433 001c 0030A0E3 		mov	r3, #0
 1434 0020 0F304BE5 		strb	r3, [fp, #-15]
 317:../src/renesas/application/r_bcd_lcd.c **** 
 318:../src/renesas/application/r_bcd_lcd.c ****         lvds.lvds_vdc_sel = vdc_ch;                 /* A channel in VDC6 whose data is to be output
 1435              		.loc 1 318 0
 1436 0024 3D305BE5 		ldrb	r3, [fp, #-61]
 1437 0028 17304BE5 		strb	r3, [fp, #-23]
 319:../src/renesas/application/r_bcd_lcd.c ****         lvds.lvds_in_clk_sel = LVDS_PLL_INPUT_CLK;  /* The clock input to frequency divider 1 */
 1438              		.loc 1 319 0
 1439 002c 0230A0E3 		mov	r3, #2
 1440 0030 1C304BE5 		strb	r3, [fp, #-28]
 320:../src/renesas/application/r_bcd_lcd.c ****         lvds.lvds_idiv_set = LVDS_PLL_NIDV;         /* Not use */
 1441              		.loc 1 320 0
 1442 0034 0230A0E3 		mov	r3, #2
 1443 0038 1B304BE5 		strb	r3, [fp, #-27]
 321:../src/renesas/application/r_bcd_lcd.c ****         lvds.lvds_odiv_set = LVDS_PLL_NODIV;        /* The frequency dividing value (NODIV) for fre
 1444              		.loc 1 321 0
 1445 003c 0230A0E3 		mov	r3, #2
 1446 0040 18304BE5 		strb	r3, [fp, #-24]
 322:../src/renesas/application/r_bcd_lcd.c ****         lvds.lvdspll_fd = LVDS_PLL_NFD;             /* The frequency dividing value (NFD) for the f
 1447              		.loc 1 322 0
 1448 0044 1E30A0E3 		mov	r3, #30
 1449 0048 B6314BE1 		strh	r3, [fp, #-22]	@ movhi
 323:../src/renesas/application/r_bcd_lcd.c ****         lvds.lvdspll_rd = LVDS_PLL_NRD;             /* The frequency dividing value (NRD) for the i
 1450              		.loc 1 323 0
 1451 004c 0530A0E3 		mov	r3, #5
 1452 0050 B4314BE1 		strh	r3, [fp, #-20]	@ movhi
 324:../src/renesas/application/r_bcd_lcd.c ****         lvds.lvdspll_od = LVDS_PLL_NOD;             /* Not use */
 1453              		.loc 1 324 0
 1454 0054 0230A0E3 		mov	r3, #2
 1455 0058 12304BE5 		strb	r3, [fp, #-18]
 325:../src/renesas/application/r_bcd_lcd.c ****         clock_config.lvds = &lvds;
 1456              		.loc 1 325 0
 1457 005c 1C304BE2 		sub	r3, fp, #28
 1458 0060 0C300BE5 		str	r3, [fp, #-12]
 326:../src/renesas/application/r_bcd_lcd.c **** 
 327:../src/renesas/application/r_bcd_lcd.c ****         error = R_RVAPI_InitializeVDC (vdc_ch, &clock_config);
 1459              		.loc 1 327 0
 1460 0064 10204BE2 		sub	r2, fp, #16
 1461 0068 3D305BE5 		ldrb	r3, [fp, #-61]	@ zero_extendqisi2
 1462 006c 0210A0E1 		mov	r1, r2
 1463 0070 0300A0E1 		mov	r0, r3
 1464 0074 FEFFFFEB 		bl	R_RVAPI_InitializeVDC
 1465 0078 0030A0E1 		mov	r3, r0
 1466 007c 05304BE5 		strb	r3, [fp, #-5]
 1467              	.LBE5:
 328:../src/renesas/application/r_bcd_lcd.c ****     }
 329:../src/renesas/application/r_bcd_lcd.c **** 
 330:../src/renesas/application/r_bcd_lcd.c ****     /* Display setting */
 331:../src/renesas/application/r_bcd_lcd.c ****     if (VDC_OK == error)
 1468              		.loc 1 331 0
 1469 0080 05305BE5 		ldrb	r3, [fp, #-5]	@ zero_extendqisi2
 1470 0084 000053E3 		cmp	r3, #0
 1471 0088 2E00001A 		bne	.L20
 1472              	.LBB6:
 332:../src/renesas/application/r_bcd_lcd.c ****     {
 333:../src/renesas/application/r_bcd_lcd.c ****         qe_config_t q_cnf;
 334:../src/renesas/application/r_bcd_lcd.c **** 
 335:../src/renesas/application/r_bcd_lcd.c ****         q_cnf.vps = LCD_CH0_S_VSYNC;                    /* Vertical Pulse start position */
 1473              		.loc 1 335 0
 1474 008c 0030A0E3 		mov	r3, #0
 1475 0090 BC334BE1 		strh	r3, [fp, #-60]	@ movhi
 336:../src/renesas/application/r_bcd_lcd.c ****         q_cnf.vpw = LCD_CH0_W_VSYNC;                    /* Vertical Pulse Width(VPW) */
 1476              		.loc 1 336 0
 1477 0094 0630A0E3 		mov	r3, #6
 1478 0098 BA334BE1 		strh	r3, [fp, #-58]	@ movhi
 337:../src/renesas/application/r_bcd_lcd.c ****         q_cnf.vs = LCD_CH0_DISP_VS;                     /* LCD display area vertical start position
 1479              		.loc 1 337 0
 1480 009c 1730A0E3 		mov	r3, #23
 1481 00a0 B8334BE1 		strh	r3, [fp, #-56]	@ movhi
 338:../src/renesas/application/r_bcd_lcd.c ****         q_cnf.vdp = LCD_CH0_DISP_VW;                    /* Vertical Display Period(VDP) */
 1482              		.loc 1 338 0
 1483 00a4 033CA0E3 		mov	r3, #768
 1484 00a8 B6334BE1 		strh	r3, [fp, #-54]	@ movhi
 339:../src/renesas/application/r_bcd_lcd.c ****         q_cnf.hps = LCD_CH0_S_HSYNC;                    /* Horizontal Pulse start position */
 1485              		.loc 1 339 0
 1486 00ac 0030A0E3 		mov	r3, #0
 1487 00b0 B4334BE1 		strh	r3, [fp, #-52]	@ movhi
 340:../src/renesas/application/r_bcd_lcd.c ****         q_cnf.hpw = LCD_CH0_W_HSYNC;                    /* Horizontal Pulse Width(HPW) */
 1488              		.loc 1 340 0
 1489 00b4 7030A0E3 		mov	r3, #112
 1490 00b8 B2334BE1 		strh	r3, [fp, #-50]	@ movhi
 341:../src/renesas/application/r_bcd_lcd.c ****         q_cnf.hs = LCD_CH0_DISP_HS;                     /* LCD display area horizontal start positi
 1491              		.loc 1 341 0
 1492 00bc 173EA0E3 		mov	r3, #368
 1493 00c0 B0334BE1 		strh	r3, [fp, #-48]	@ movhi
 342:../src/renesas/application/r_bcd_lcd.c ****         q_cnf.hdp = LCD_CH0_DISP_HW;                    /* Horizontal Display Period(HDP */
 1494              		.loc 1 342 0
 1495 00c4 553EA0E3 		mov	r3, #1360
 1496 00c8 BE324BE1 		strh	r3, [fp, #-46]	@ movhi
 343:../src/renesas/application/r_bcd_lcd.c ****         q_cnf.vtp = LCD_CH0_SIG_FV;                     /* Vertical Total Period(VTP) */
 1497              		.loc 1 343 0
 1498 00cc 1A3300E3 		movw	r3, #794
 1499 00d0 BC324BE1 		strh	r3, [fp, #-44]	@ movhi
 344:../src/renesas/application/r_bcd_lcd.c ****         q_cnf.htp = LCD_CH0_SIG_FH;                     /* Horizontal Total Period(HTP) */
 1500              		.loc 1 344 0
 1501 00d4 F93CE0E3 		mvn	r3, #63744
 1502 00d8 BA324BE1 		strh	r3, [fp, #-42]	@ movhi
 345:../src/renesas/application/r_bcd_lcd.c ****         q_cnf.tcon_vsync = LCD_CH0_TCON_PIN_VSYNC;      /* Vsync_TCON_select */
 1503              		.loc 1 345 0
 1504 00dc 0030A0E3 		mov	r3, #0
 1505 00e0 28304BE5 		strb	r3, [fp, #-40]
 346:../src/renesas/application/r_bcd_lcd.c ****         q_cnf.tcon_hsync = LCD_CH0_TCON_PIN_HSYNC;      /* Hsync_TCON_select */
 1506              		.loc 1 346 0
 1507 00e4 0330A0E3 		mov	r3, #3
 1508 00e8 27304BE5 		strb	r3, [fp, #-39]
 347:../src/renesas/application/r_bcd_lcd.c ****         q_cnf.tcon_de = LCD_CH0_TCON_PIN_DE;            /* DE_TCON_select */
 1509              		.loc 1 347 0
 1510 00ec 0430A0E3 		mov	r3, #4
 1511 00f0 26304BE5 		strb	r3, [fp, #-38]
 348:../src/renesas/application/r_bcd_lcd.c ****         q_cnf.tcon_vsync_inv = LCD_CH0_TOCN_POL_VSYNC;  /* Vsync_POL */
 1512              		.loc 1 348 0
 1513 00f4 0030A0E3 		mov	r3, #0
 1514 00f8 25304BE5 		strb	r3, [fp, #-37]
 349:../src/renesas/application/r_bcd_lcd.c ****         q_cnf.tcon_hsync_inv = LCD_CH0_TOCN_POL_HSYNC;  /* Hsync_POL */
 1515              		.loc 1 349 0
 1516 00fc 0030A0E3 		mov	r3, #0
 1517 0100 24304BE5 		strb	r3, [fp, #-36]
 350:../src/renesas/application/r_bcd_lcd.c ****         q_cnf.tcon_de_inv = LCD_CH0_TOCN_POL_DE;        /* DE_POL */
 1518              		.loc 1 350 0
 1519 0104 0030A0E3 		mov	r3, #0
 1520 0108 23304BE5 		strb	r3, [fp, #-35]
 351:../src/renesas/application/r_bcd_lcd.c ****         q_cnf.tcon_half = LCD_CH0_TCON_HALF;            /* TCON reference timing, 1/2fH timing(HTP)
 1521              		.loc 1 351 0
 1522 010c 073CA0E3 		mov	r3, #1792
 1523 0110 B2324BE1 		strh	r3, [fp, #-34]	@ movhi
 352:../src/renesas/application/r_bcd_lcd.c ****         q_cnf.tcon_ofset = LCD_CH0_TCON_OFFSET;         /* TCON reference timing, offset Hsync sign
 1524              		.loc 1 352 0
 1525 0114 0030A0E3 		mov	r3, #0
 1526 0118 B0324BE1 		strh	r3, [fp, #-32]	@ movhi
 353:../src/renesas/application/r_bcd_lcd.c ****         q_cnf.lcd_data_out_edge = LCD_CH0_OUT_EDGE;     /* LCD_DATA_OUT_EDGE */
 1527              		.loc 1 353 0
 1528 011c 0130A0E3 		mov	r3, #1
 1529 0120 1E304BE5 		strb	r3, [fp, #-30]
 354:../src/renesas/application/r_bcd_lcd.c ****         q_cnf.lcd_outformat = LCD_CH0_OUT_FORMAT;       /* LCD output format select */
 1530              		.loc 1 354 0
 1531 0124 0030A0E3 		mov	r3, #0
 1532 0128 1D304BE5 		strb	r3, [fp, #-29]
 355:../src/renesas/application/r_bcd_lcd.c ****         error = R_RVAPI_DispControlVDC (vdc_ch, VDC_ON, &q_cnf);
 1533              		.loc 1 355 0
 1534 012c 3C204BE2 		sub	r2, fp, #60
 1535 0130 3D305BE5 		ldrb	r3, [fp, #-61]	@ zero_extendqisi2
 1536 0134 0110A0E3 		mov	r1, #1
 1537 0138 0300A0E1 		mov	r0, r3
 1538 013c FEFFFFEB 		bl	R_RVAPI_DispControlVDC
 1539 0140 0030A0E1 		mov	r3, r0
 1540 0144 05304BE5 		strb	r3, [fp, #-5]
 1541              	.L20:
 1542              	.LBE6:
 356:../src/renesas/application/r_bcd_lcd.c ****     }
 357:../src/renesas/application/r_bcd_lcd.c **** 
 358:../src/renesas/application/r_bcd_lcd.c ****     return error;
 1543              		.loc 1 358 0
 1544 0148 05305BE5 		ldrb	r3, [fp, #-5]	@ zero_extendqisi2
 359:../src/renesas/application/r_bcd_lcd.c **** }
 1545              		.loc 1 359 0
 1546 014c 0300A0E1 		mov	r0, r3
 1547 0150 04D04BE2 		sub	sp, fp, #4
 1548              		.cfi_def_cfa 13, 8
 1549              		@ sp needed
 1550 0154 0088BDE8 		pop	{fp, pc}
 1551              		.cfi_endproc
 1552              	.LFE7:
 1554              		.section	.text.r_image_quality_adjustment,"ax",%progbits
 1555              		.align	2
 1556              		.global	r_image_quality_adjustment
 1557              		.syntax unified
 1558              		.arm
 1559              		.fpu neon
 1561              	r_image_quality_adjustment:
 1562              	.LFB8:
 360:../src/renesas/application/r_bcd_lcd.c **** 
 361:../src/renesas/application/r_bcd_lcd.c **** /******************************************************************************
 362:../src/renesas/application/r_bcd_lcd.c **** * Function Name: r_image_quality_adjustment
 363:../src/renesas/application/r_bcd_lcd.c **** * Description  : Image Quality Adjustment
 364:../src/renesas/application/r_bcd_lcd.c **** * Arguments    : vdc_ch
 365:../src/renesas/application/r_bcd_lcd.c **** *              :   Channel
 366:../src/renesas/application/r_bcd_lcd.c **** * Return Value : 0
 367:../src/renesas/application/r_bcd_lcd.c **** *              :   success
 368:../src/renesas/application/r_bcd_lcd.c **** *              : other
 369:../src/renesas/application/r_bcd_lcd.c **** *              :   fail (vdc_error_t)
 370:../src/renesas/application/r_bcd_lcd.c **** ******************************************************************************/
 371:../src/renesas/application/r_bcd_lcd.c **** vdc_error_t r_image_quality_adjustment(vdc_channel_t vdc_ch)
 372:../src/renesas/application/r_bcd_lcd.c **** {
 1563              		.loc 1 372 0
 1564              		.cfi_startproc
 1565              		@ args = 0, pretend = 0, frame = 32
 1566              		@ frame_needed = 1, uses_anonymous_args = 0
 1567 0000 00482DE9 		push	{fp, lr}
 1568              		.cfi_def_cfa_offset 8
 1569              		.cfi_offset 11, -8
 1570              		.cfi_offset 14, -4
 1571 0004 04B08DE2 		add	fp, sp, #4
 1572              		.cfi_def_cfa 11, 4
 1573 0008 30D04DE2 		sub	sp, sp, #48
 1574 000c 0030A0E1 		mov	r3, r0
 1575 0010 1D304BE5 		strb	r3, [fp, #-29]
 1576              	.LBB7:
 373:../src/renesas/application/r_bcd_lcd.c ****     vdc_error_t error;
 374:../src/renesas/application/r_bcd_lcd.c **** 
 375:../src/renesas/application/r_bcd_lcd.c ****     /***********************************************************************/
 376:../src/renesas/application/r_bcd_lcd.c ****     /* Display out cakibration */
 377:../src/renesas/application/r_bcd_lcd.c ****     /***********************************************************************/
 378:../src/renesas/application/r_bcd_lcd.c ****     {
 379:../src/renesas/application/r_bcd_lcd.c ****         vdc_calibr_bright_t bright;
 380:../src/renesas/application/r_bcd_lcd.c ****         vdc_calibr_contrast_t contrast;
 381:../src/renesas/application/r_bcd_lcd.c ****         vdc_calibr_dither_t dither;
 382:../src/renesas/application/r_bcd_lcd.c **** 
 383:../src/renesas/application/r_bcd_lcd.c ****         /* Bright */
 384:../src/renesas/application/r_bcd_lcd.c ****         bright.pbrt_g = IMGC_BRIGHT_OUTCTL_OFFSET_G;
 1577              		.loc 1 384 0
 1578 0014 023CA0E3 		mov	r3, #512
 1579 0018 BC304BE1 		strh	r3, [fp, #-12]	@ movhi
 385:../src/renesas/application/r_bcd_lcd.c ****         bright.pbrt_b = IMGC_BRIGHT_OUTCTL_OFFSET_B;
 1580              		.loc 1 385 0
 1581 001c 023CA0E3 		mov	r3, #512
 1582 0020 BA304BE1 		strh	r3, [fp, #-10]	@ movhi
 386:../src/renesas/application/r_bcd_lcd.c ****         bright.pbrt_r = IMGC_BRIGHT_OUTCTL_OFFSET_R;
 1583              		.loc 1 386 0
 1584 0024 023CA0E3 		mov	r3, #512
 1585 0028 B8304BE1 		strh	r3, [fp, #-8]	@ movhi
 387:../src/renesas/application/r_bcd_lcd.c **** 
 388:../src/renesas/application/r_bcd_lcd.c ****         /* Contrast */
 389:../src/renesas/application/r_bcd_lcd.c ****         contrast.cont_g = IMGC_CONTRAST_OUTCTL_GAIN_G;
 1586              		.loc 1 389 0
 1587 002c 7F30E0E3 		mvn	r3, #127
 1588 0030 10304BE5 		strb	r3, [fp, #-16]
 390:../src/renesas/application/r_bcd_lcd.c ****         contrast.cont_b = IMGC_CONTRAST_OUTCTL_GAIN_B;
 1589              		.loc 1 390 0
 1590 0034 7F30E0E3 		mvn	r3, #127
 1591 0038 0F304BE5 		strb	r3, [fp, #-15]
 391:../src/renesas/application/r_bcd_lcd.c ****         contrast.cont_r = IMGC_CONTRAST_OUTCTL_GAIN_R;
 1592              		.loc 1 391 0
 1593 003c 7F30E0E3 		mvn	r3, #127
 1594 0040 0E304BE5 		strb	r3, [fp, #-14]
 392:../src/renesas/application/r_bcd_lcd.c **** 
 393:../src/renesas/application/r_bcd_lcd.c ****         /* Dither settings */
 394:../src/renesas/application/r_bcd_lcd.c ****         dither.pdth_sel = IMGC_DITHER_MODE;
 1595              		.loc 1 394 0
 1596 0044 0030A0E3 		mov	r3, #0
 1597 0048 18304BE5 		strb	r3, [fp, #-24]
 395:../src/renesas/application/r_bcd_lcd.c ****         dither.pdth_pa = IMGC_DITHER_2X2_PA;
 1598              		.loc 1 395 0
 1599 004c 0330A0E3 		mov	r3, #3
 1600 0050 17304BE5 		strb	r3, [fp, #-23]
 396:../src/renesas/application/r_bcd_lcd.c ****         dither.pdth_pb = IMGC_DITHER_2X2_PB;
 1601              		.loc 1 396 0
 1602 0054 0030A0E3 		mov	r3, #0
 1603 0058 16304BE5 		strb	r3, [fp, #-22]
 397:../src/renesas/application/r_bcd_lcd.c ****         dither.pdth_pc = IMGC_DITHER_2X2_PC;
 1604              		.loc 1 397 0
 1605 005c 0230A0E3 		mov	r3, #2
 1606 0060 15304BE5 		strb	r3, [fp, #-21]
 398:../src/renesas/application/r_bcd_lcd.c ****         dither.pdth_pd = IMGC_DITHER_2X2_PD;
 1607              		.loc 1 398 0
 1608 0064 0130A0E3 		mov	r3, #1
 1609 0068 14304BE5 		strb	r3, [fp, #-20]
 399:../src/renesas/application/r_bcd_lcd.c ****         error = R_RVAPI_DispCalibrationVDC (vdc_ch, IMGC_OUTCTL_CALIB_ROUTE, &bright, &contrast, &d
 1610              		.loc 1 399 0
 1611 006c 10104BE2 		sub	r1, fp, #16
 1612 0070 0C204BE2 		sub	r2, fp, #12
 1613 0074 1D005BE5 		ldrb	r0, [fp, #-29]	@ zero_extendqisi2
 1614 0078 18304BE2 		sub	r3, fp, #24
 1615 007c 00308DE5 		str	r3, [sp]
 1616 0080 0130A0E1 		mov	r3, r1
 1617 0084 0010A0E3 		mov	r1, #0
 1618 0088 FEFFFFEB 		bl	R_RVAPI_DispCalibrationVDC
 1619 008c 0030A0E1 		mov	r3, r0
 1620 0090 05304BE5 		strb	r3, [fp, #-5]
 1621              	.LBE7:
 400:../src/renesas/application/r_bcd_lcd.c ****     }
 401:../src/renesas/application/r_bcd_lcd.c **** 
 402:../src/renesas/application/r_bcd_lcd.c ****     /***********************************************************************/
 403:../src/renesas/application/r_bcd_lcd.c ****     /*  Display Gamma */
 404:../src/renesas/application/r_bcd_lcd.c ****     /***********************************************************************/
 405:../src/renesas/application/r_bcd_lcd.c ****     if (VDC_OK == error)
 1622              		.loc 1 405 0
 1623 0094 05305BE5 		ldrb	r3, [fp, #-5]	@ zero_extendqisi2
 1624 0098 000053E3 		cmp	r3, #0
 1625 009c 1400001A 		bne	.L23
 1626              	.LBB8:
 406:../src/renesas/application/r_bcd_lcd.c ****     {
 407:../src/renesas/application/r_bcd_lcd.c ****         static const uint16_t gam_g_gain[VDC_GAM_GAIN_ADJ_NUM] =
 408:../src/renesas/application/r_bcd_lcd.c ****         { IMGC_GAMMA_G_GAIN_00, IMGC_GAMMA_G_GAIN_01, IMGC_GAMMA_G_GAIN_02, IMGC_GAMMA_G_GAIN_03, I
 409:../src/renesas/application/r_bcd_lcd.c ****           IMGC_GAMMA_G_GAIN_05, IMGC_GAMMA_G_GAIN_06, IMGC_GAMMA_G_GAIN_07, IMGC_GAMMA_G_GAIN_08, I
 410:../src/renesas/application/r_bcd_lcd.c ****           IMGC_GAMMA_G_GAIN_10, IMGC_GAMMA_G_GAIN_11, IMGC_GAMMA_G_GAIN_12, IMGC_GAMMA_G_GAIN_13, I
 411:../src/renesas/application/r_bcd_lcd.c ****           IMGC_GAMMA_G_GAIN_15, IMGC_GAMMA_G_GAIN_16, IMGC_GAMMA_G_GAIN_17, IMGC_GAMMA_G_GAIN_18, I
 412:../src/renesas/application/r_bcd_lcd.c ****           IMGC_GAMMA_G_GAIN_20, IMGC_GAMMA_G_GAIN_21, IMGC_GAMMA_G_GAIN_22, IMGC_GAMMA_G_GAIN_23, I
 413:../src/renesas/application/r_bcd_lcd.c ****           IMGC_GAMMA_G_GAIN_25, IMGC_GAMMA_G_GAIN_26, IMGC_GAMMA_G_GAIN_27, IMGC_GAMMA_G_GAIN_28, I
 414:../src/renesas/application/r_bcd_lcd.c ****           IMGC_GAMMA_G_GAIN_30, IMGC_GAMMA_G_GAIN_31 };
 415:../src/renesas/application/r_bcd_lcd.c ****         static const uint8_t gam_g_th[VDC_GAM_START_TH_NUM] =
 416:../src/renesas/application/r_bcd_lcd.c ****         { IMGC_GAMMA_G_TH_01, IMGC_GAMMA_G_TH_02, IMGC_GAMMA_G_TH_03, IMGC_GAMMA_G_TH_04, IMGC_GAMM
 417:../src/renesas/application/r_bcd_lcd.c ****           IMGC_GAMMA_G_TH_06, IMGC_GAMMA_G_TH_07, IMGC_GAMMA_G_TH_08, IMGC_GAMMA_G_TH_09, IMGC_GAMM
 418:../src/renesas/application/r_bcd_lcd.c ****           IMGC_GAMMA_G_TH_11, IMGC_GAMMA_G_TH_12, IMGC_GAMMA_G_TH_13, IMGC_GAMMA_G_TH_14, IMGC_GAMM
 419:../src/renesas/application/r_bcd_lcd.c ****           IMGC_GAMMA_G_TH_16, IMGC_GAMMA_G_TH_17, IMGC_GAMMA_G_TH_18, IMGC_GAMMA_G_TH_19, IMGC_GAMM
 420:../src/renesas/application/r_bcd_lcd.c ****           IMGC_GAMMA_G_TH_21, IMGC_GAMMA_G_TH_22, IMGC_GAMMA_G_TH_23, IMGC_GAMMA_G_TH_24, IMGC_GAMM
 421:../src/renesas/application/r_bcd_lcd.c ****           IMGC_GAMMA_G_TH_26, IMGC_GAMMA_G_TH_27, IMGC_GAMMA_G_TH_28, IMGC_GAMMA_G_TH_29, IMGC_GAMM
 422:../src/renesas/application/r_bcd_lcd.c ****           IMGC_GAMMA_G_TH_31 };
 423:../src/renesas/application/r_bcd_lcd.c **** 
 424:../src/renesas/application/r_bcd_lcd.c ****         static const uint16_t gam_b_gain[VDC_GAM_GAIN_ADJ_NUM] =
 425:../src/renesas/application/r_bcd_lcd.c ****         { IMGC_GAMMA_B_GAIN_00, IMGC_GAMMA_B_GAIN_01, IMGC_GAMMA_B_GAIN_02, IMGC_GAMMA_B_GAIN_03, I
 426:../src/renesas/application/r_bcd_lcd.c ****           IMGC_GAMMA_B_GAIN_05, IMGC_GAMMA_B_GAIN_06, IMGC_GAMMA_B_GAIN_07, IMGC_GAMMA_B_GAIN_08, I
 427:../src/renesas/application/r_bcd_lcd.c ****           IMGC_GAMMA_B_GAIN_10, IMGC_GAMMA_B_GAIN_11, IMGC_GAMMA_B_GAIN_12, IMGC_GAMMA_B_GAIN_13, I
 428:../src/renesas/application/r_bcd_lcd.c ****           IMGC_GAMMA_B_GAIN_15, IMGC_GAMMA_B_GAIN_16, IMGC_GAMMA_B_GAIN_17, IMGC_GAMMA_B_GAIN_18, I
 429:../src/renesas/application/r_bcd_lcd.c ****           IMGC_GAMMA_B_GAIN_20, IMGC_GAMMA_B_GAIN_21, IMGC_GAMMA_B_GAIN_22, IMGC_GAMMA_B_GAIN_23, I
 430:../src/renesas/application/r_bcd_lcd.c ****           IMGC_GAMMA_B_GAIN_25, IMGC_GAMMA_B_GAIN_26, IMGC_GAMMA_B_GAIN_27, IMGC_GAMMA_B_GAIN_28, I
 431:../src/renesas/application/r_bcd_lcd.c ****           IMGC_GAMMA_B_GAIN_30, IMGC_GAMMA_B_GAIN_31 };
 432:../src/renesas/application/r_bcd_lcd.c ****         static const uint8_t gam_b_th[VDC_GAM_START_TH_NUM] =
 433:../src/renesas/application/r_bcd_lcd.c ****         { IMGC_GAMMA_B_TH_01, IMGC_GAMMA_B_TH_02, IMGC_GAMMA_B_TH_03, IMGC_GAMMA_B_TH_04, IMGC_GAMM
 434:../src/renesas/application/r_bcd_lcd.c ****           IMGC_GAMMA_B_TH_06, IMGC_GAMMA_B_TH_07, IMGC_GAMMA_B_TH_08, IMGC_GAMMA_B_TH_09, IMGC_GAMM
 435:../src/renesas/application/r_bcd_lcd.c ****           IMGC_GAMMA_B_TH_11, IMGC_GAMMA_B_TH_12, IMGC_GAMMA_B_TH_13, IMGC_GAMMA_B_TH_14, IMGC_GAMM
 436:../src/renesas/application/r_bcd_lcd.c ****           IMGC_GAMMA_B_TH_16, IMGC_GAMMA_B_TH_17, IMGC_GAMMA_B_TH_18, IMGC_GAMMA_B_TH_19, IMGC_GAMM
 437:../src/renesas/application/r_bcd_lcd.c ****           IMGC_GAMMA_B_TH_21, IMGC_GAMMA_B_TH_22, IMGC_GAMMA_B_TH_23, IMGC_GAMMA_B_TH_24, IMGC_GAMM
 438:../src/renesas/application/r_bcd_lcd.c ****           IMGC_GAMMA_B_TH_26, IMGC_GAMMA_B_TH_27, IMGC_GAMMA_B_TH_28, IMGC_GAMMA_B_TH_29, IMGC_GAMM
 439:../src/renesas/application/r_bcd_lcd.c ****           IMGC_GAMMA_B_TH_31 };
 440:../src/renesas/application/r_bcd_lcd.c **** 
 441:../src/renesas/application/r_bcd_lcd.c ****         static const uint16_t gam_r_gain[VDC_GAM_GAIN_ADJ_NUM] =
 442:../src/renesas/application/r_bcd_lcd.c ****         { IMGC_GAMMA_R_GAIN_00, IMGC_GAMMA_R_GAIN_01, IMGC_GAMMA_R_GAIN_02, IMGC_GAMMA_R_GAIN_03, I
 443:../src/renesas/application/r_bcd_lcd.c ****           IMGC_GAMMA_R_GAIN_05, IMGC_GAMMA_R_GAIN_06, IMGC_GAMMA_R_GAIN_07, IMGC_GAMMA_R_GAIN_08, I
 444:../src/renesas/application/r_bcd_lcd.c ****           IMGC_GAMMA_R_GAIN_10, IMGC_GAMMA_R_GAIN_11, IMGC_GAMMA_R_GAIN_12, IMGC_GAMMA_R_GAIN_13, I
 445:../src/renesas/application/r_bcd_lcd.c ****           IMGC_GAMMA_R_GAIN_15, IMGC_GAMMA_R_GAIN_16, IMGC_GAMMA_R_GAIN_17, IMGC_GAMMA_R_GAIN_18, I
 446:../src/renesas/application/r_bcd_lcd.c ****           IMGC_GAMMA_R_GAIN_20, IMGC_GAMMA_R_GAIN_21, IMGC_GAMMA_R_GAIN_22, IMGC_GAMMA_R_GAIN_23, I
 447:../src/renesas/application/r_bcd_lcd.c ****           IMGC_GAMMA_R_GAIN_25, IMGC_GAMMA_R_GAIN_26, IMGC_GAMMA_R_GAIN_27, IMGC_GAMMA_R_GAIN_28, I
 448:../src/renesas/application/r_bcd_lcd.c ****           IMGC_GAMMA_R_GAIN_30, IMGC_GAMMA_R_GAIN_31 };
 449:../src/renesas/application/r_bcd_lcd.c **** 
 450:../src/renesas/application/r_bcd_lcd.c ****         static const uint8_t gam_r_th[VDC_GAM_START_TH_NUM] =
 451:../src/renesas/application/r_bcd_lcd.c ****         { IMGC_GAMMA_R_TH_01, IMGC_GAMMA_R_TH_02, IMGC_GAMMA_R_TH_03, IMGC_GAMMA_R_TH_04, IMGC_GAMM
 452:../src/renesas/application/r_bcd_lcd.c ****           IMGC_GAMMA_R_TH_06, IMGC_GAMMA_R_TH_07, IMGC_GAMMA_R_TH_08, IMGC_GAMMA_R_TH_09, IMGC_GAMM
 453:../src/renesas/application/r_bcd_lcd.c ****           IMGC_GAMMA_R_TH_11, IMGC_GAMMA_R_TH_12, IMGC_GAMMA_R_TH_13, IMGC_GAMMA_R_TH_14, IMGC_GAMM
 454:../src/renesas/application/r_bcd_lcd.c ****           IMGC_GAMMA_R_TH_16, IMGC_GAMMA_R_TH_17, IMGC_GAMMA_R_TH_18, IMGC_GAMMA_R_TH_19, IMGC_GAMM
 455:../src/renesas/application/r_bcd_lcd.c ****           IMGC_GAMMA_R_TH_21, IMGC_GAMMA_R_TH_22, IMGC_GAMMA_R_TH_23, IMGC_GAMMA_R_TH_24, IMGC_GAMM
 456:../src/renesas/application/r_bcd_lcd.c ****           IMGC_GAMMA_R_TH_26, IMGC_GAMMA_R_TH_27, IMGC_GAMMA_R_TH_28, IMGC_GAMMA_R_TH_29, IMGC_GAMM
 457:../src/renesas/application/r_bcd_lcd.c ****           IMGC_GAMMA_R_TH_31 };
 458:../src/renesas/application/r_bcd_lcd.c **** 
 459:../src/renesas/application/r_bcd_lcd.c ****         error = R_RVAPI_DispGammaVDC (vdc_ch, IMGC_GAMMA_ACTIVE, &gam_r_gain[0], &gam_r_th[0], &gam
 1627              		.loc 1 459 0
 1628 00a0 1D005BE5 		ldrb	r0, [fp, #-29]	@ zero_extendqisi2
 1629 00a4 003000E3 		movw	r3, #:lower16:gam_b_th.75365
 1630 00a8 003040E3 		movt	r3, #:upper16:gam_b_th.75365
 1631 00ac 0C308DE5 		str	r3, [sp, #12]
 1632 00b0 003000E3 		movw	r3, #:lower16:gam_b_gain.75364
 1633 00b4 003040E3 		movt	r3, #:upper16:gam_b_gain.75364
 1634 00b8 08308DE5 		str	r3, [sp, #8]
 1635 00bc 003000E3 		movw	r3, #:lower16:gam_g_th.75363
 1636 00c0 003040E3 		movt	r3, #:upper16:gam_g_th.75363
 1637 00c4 04308DE5 		str	r3, [sp, #4]
 1638 00c8 003000E3 		movw	r3, #:lower16:gam_g_gain.75362
 1639 00cc 003040E3 		movt	r3, #:upper16:gam_g_gain.75362
 1640 00d0 00308DE5 		str	r3, [sp]
 1641 00d4 003000E3 		movw	r3, #:lower16:gam_r_th.75367
 1642 00d8 003040E3 		movt	r3, #:upper16:gam_r_th.75367
 1643 00dc 002000E3 		movw	r2, #:lower16:gam_r_gain.75366
 1644 00e0 002040E3 		movt	r2, #:upper16:gam_r_gain.75366
 1645 00e4 0110A0E3 		mov	r1, #1
 1646 00e8 FEFFFFEB 		bl	R_RVAPI_DispGammaVDC
 1647 00ec 0030A0E1 		mov	r3, r0
 1648 00f0 05304BE5 		strb	r3, [fp, #-5]
 1649              	.L23:
 1650              	.LBE8:
 460:../src/renesas/application/r_bcd_lcd.c ****                                        &gam_g_th[0], &gam_b_gain[0], &gam_b_th[0]);
 461:../src/renesas/application/r_bcd_lcd.c ****     }
 462:../src/renesas/application/r_bcd_lcd.c **** 
 463:../src/renesas/application/r_bcd_lcd.c ****     return error;
 1651              		.loc 1 463 0
 1652 00f4 05305BE5 		ldrb	r3, [fp, #-5]	@ zero_extendqisi2
 464:../src/renesas/application/r_bcd_lcd.c **** } /* End of function r_image_quality_adjustment() */
 1653              		.loc 1 464 0
 1654 00f8 0300A0E1 		mov	r0, r3
 1655 00fc 04D04BE2 		sub	sp, fp, #4
 1656              		.cfi_def_cfa 13, 8
 1657              		@ sp needed
 1658 0100 0088BDE8 		pop	{fp, pc}
 1659              		.cfi_endproc
 1660              	.LFE8:
 1662              		.section	.text.r_video_quality_adjustment,"ax",%progbits
 1663              		.align	2
 1664              		.global	r_video_quality_adjustment
 1665              		.syntax unified
 1666              		.arm
 1667              		.fpu neon
 1669              	r_video_quality_adjustment:
 1670              	.LFB9:
 465:../src/renesas/application/r_bcd_lcd.c **** 
 466:../src/renesas/application/r_bcd_lcd.c **** /******************************************************************************
 467:../src/renesas/application/r_bcd_lcd.c **** * Function Name: r_video_quality_adjustment
 468:../src/renesas/application/r_bcd_lcd.c **** * Description  : Video Quality Adjustment
 469:../src/renesas/application/r_bcd_lcd.c **** * Arguments    : vdc_ch
 470:../src/renesas/application/r_bcd_lcd.c **** *              :   Channel
 471:../src/renesas/application/r_bcd_lcd.c **** * Return Value : 0
 472:../src/renesas/application/r_bcd_lcd.c **** *              :   success
 473:../src/renesas/application/r_bcd_lcd.c **** *              : other
 474:../src/renesas/application/r_bcd_lcd.c **** *              :   fail (vdc_error_t)
 475:../src/renesas/application/r_bcd_lcd.c **** ******************************************************************************/
 476:../src/renesas/application/r_bcd_lcd.c **** vdc_error_t r_video_quality_adjustment(vdc_channel_t vdc_ch)
 477:../src/renesas/application/r_bcd_lcd.c **** {
 1671              		.loc 1 477 0
 1672              		.cfi_startproc
 1673              		@ args = 0, pretend = 0, frame = 72
 1674              		@ frame_needed = 1, uses_anonymous_args = 0
 1675 0000 00482DE9 		push	{fp, lr}
 1676              		.cfi_def_cfa_offset 8
 1677              		.cfi_offset 11, -8
 1678              		.cfi_offset 14, -4
 1679 0004 04B08DE2 		add	fp, sp, #4
 1680              		.cfi_def_cfa 11, 4
 1681 0008 58D04DE2 		sub	sp, sp, #88
 1682 000c 0030A0E1 		mov	r3, r0
 1683 0010 45304BE5 		strb	r3, [fp, #-69]
 1684              	.LBB9:
 478:../src/renesas/application/r_bcd_lcd.c ****     vdc_error_t error;
 479:../src/renesas/application/r_bcd_lcd.c **** 
 480:../src/renesas/application/r_bcd_lcd.c ****     {
 481:../src/renesas/application/r_bcd_lcd.c ****         vdc_color_matrix_t color_matrix;
 482:../src/renesas/application/r_bcd_lcd.c **** 
 483:../src/renesas/application/r_bcd_lcd.c ****         /* Operating mode */
 484:../src/renesas/application/r_bcd_lcd.c ****         color_matrix.module = IMGC_BRIGHT_INPUTCTL_MODULE;
 1685              		.loc 1 484 0
 1686 0014 0030A0E3 		mov	r3, #0
 1687 0018 20304BE5 		strb	r3, [fp, #-32]
 485:../src/renesas/application/r_bcd_lcd.c **** 
 486:../src/renesas/application/r_bcd_lcd.c ****         /* Mode Select */
 487:../src/renesas/application/r_bcd_lcd.c ****         color_matrix.mtx_mode = IMGC_BRIGHT_INPUTCTL_MODE;
 1688              		.loc 1 487 0
 1689 001c 0330A0E3 		mov	r3, #3
 1690 0020 1F304BE5 		strb	r3, [fp, #-31]
 488:../src/renesas/application/r_bcd_lcd.c **** 
 489:../src/renesas/application/r_bcd_lcd.c ****         /* Bright */
 490:../src/renesas/application/r_bcd_lcd.c ****         color_matrix.offset[VDC_COLORMTX_OFFST_YG] = IMGC_BRIGHT_INPUTCTL_OFFSET_YG;
 1691              		.loc 1 490 0
 1692 0024 8030A0E3 		mov	r3, #128
 1693 0028 BE314BE1 		strh	r3, [fp, #-30]	@ movhi
 491:../src/renesas/application/r_bcd_lcd.c ****         color_matrix.offset[VDC_COLORMTX_OFFST_B]  = IMGC_BRIGHT_INPUTCTL_OFFSET_B;
 1694              		.loc 1 491 0
 1695 002c 8030A0E3 		mov	r3, #128
 1696 0030 BC314BE1 		strh	r3, [fp, #-28]	@ movhi
 492:../src/renesas/application/r_bcd_lcd.c ****         color_matrix.offset[VDC_COLORMTX_OFFST_R]  = IMGC_BRIGHT_INPUTCTL_OFFSET_R;
 1697              		.loc 1 492 0
 1698 0034 8030A0E3 		mov	r3, #128
 1699 0038 BA314BE1 		strh	r3, [fp, #-26]	@ movhi
 493:../src/renesas/application/r_bcd_lcd.c **** 
 494:../src/renesas/application/r_bcd_lcd.c ****         /* Contrast */
 495:../src/renesas/application/r_bcd_lcd.c ****         color_matrix.gain[VDC_COLORMTX_GAIN_GG] = IMGC_CONTRAST_INPUTCTL_GAIN_GG;
 1700              		.loc 1 495 0
 1701 003c 013CA0E3 		mov	r3, #256
 1702 0040 B8314BE1 		strh	r3, [fp, #-24]	@ movhi
 496:../src/renesas/application/r_bcd_lcd.c ****         color_matrix.gain[VDC_COLORMTX_GAIN_GB] = IMGC_CONTRAST_INPUTCTL_GAIN_GB;
 1703              		.loc 1 496 0
 1704 0044 0030A0E3 		mov	r3, #0
 1705 0048 B6314BE1 		strh	r3, [fp, #-22]	@ movhi
 497:../src/renesas/application/r_bcd_lcd.c ****         color_matrix.gain[VDC_COLORMTX_GAIN_GR] = IMGC_CONTRAST_INPUTCTL_GAIN_GR;
 1706              		.loc 1 497 0
 1707 004c 0030A0E3 		mov	r3, #0
 1708 0050 B4314BE1 		strh	r3, [fp, #-20]	@ movhi
 498:../src/renesas/application/r_bcd_lcd.c ****         color_matrix.gain[VDC_COLORMTX_GAIN_BG] = IMGC_CONTRAST_INPUTCTL_GAIN_BG;
 1709              		.loc 1 498 0
 1710 0054 0030A0E3 		mov	r3, #0
 1711 0058 B2314BE1 		strh	r3, [fp, #-18]	@ movhi
 499:../src/renesas/application/r_bcd_lcd.c ****         color_matrix.gain[VDC_COLORMTX_GAIN_BB] = IMGC_CONTRAST_INPUTCTL_GAIN_BB;
 1712              		.loc 1 499 0
 1713 005c 013CA0E3 		mov	r3, #256
 1714 0060 B0314BE1 		strh	r3, [fp, #-16]	@ movhi
 500:../src/renesas/application/r_bcd_lcd.c ****         color_matrix.gain[VDC_COLORMTX_GAIN_BR] = IMGC_CONTRAST_INPUTCTL_GAIN_BR;
 1715              		.loc 1 500 0
 1716 0064 0030A0E3 		mov	r3, #0
 1717 0068 BE304BE1 		strh	r3, [fp, #-14]	@ movhi
 501:../src/renesas/application/r_bcd_lcd.c ****         color_matrix.gain[VDC_COLORMTX_GAIN_RG] = IMGC_CONTRAST_INPUTCTL_GAIN_RG;
 1718              		.loc 1 501 0
 1719 006c 0030A0E3 		mov	r3, #0
 1720 0070 BC304BE1 		strh	r3, [fp, #-12]	@ movhi
 502:../src/renesas/application/r_bcd_lcd.c ****         color_matrix.gain[VDC_COLORMTX_GAIN_RB] = IMGC_CONTRAST_INPUTCTL_GAIN_RB;
 1721              		.loc 1 502 0
 1722 0074 0030A0E3 		mov	r3, #0
 1723 0078 BA304BE1 		strh	r3, [fp, #-10]	@ movhi
 503:../src/renesas/application/r_bcd_lcd.c ****         color_matrix.gain[VDC_COLORMTX_GAIN_RR] = IMGC_CONTRAST_INPUTCTL_GAIN_RR;
 1724              		.loc 1 503 0
 1725 007c 013CA0E3 		mov	r3, #256
 1726 0080 B8304BE1 		strh	r3, [fp, #-8]	@ movhi
 504:../src/renesas/application/r_bcd_lcd.c ****         error = R_RVAPI_VideoCalibrationVDC (vdc_ch, &color_matrix);
 1727              		.loc 1 504 0
 1728 0084 20204BE2 		sub	r2, fp, #32
 1729 0088 45305BE5 		ldrb	r3, [fp, #-69]	@ zero_extendqisi2
 1730 008c 0210A0E1 		mov	r1, r2
 1731 0090 0300A0E1 		mov	r0, r3
 1732 0094 FEFFFFEB 		bl	R_RVAPI_VideoCalibrationVDC
 1733 0098 0030A0E1 		mov	r3, r0
 1734 009c 05304BE5 		strb	r3, [fp, #-5]
 1735              	.LBE9:
 505:../src/renesas/application/r_bcd_lcd.c ****     }
 506:../src/renesas/application/r_bcd_lcd.c **** 
 507:../src/renesas/application/r_bcd_lcd.c ****     if (VDC_OK == error)
 1736              		.loc 1 507 0
 1737 00a0 05305BE5 		ldrb	r3, [fp, #-5]	@ zero_extendqisi2
 1738 00a4 000053E3 		cmp	r3, #0
 1739 00a8 4500001A 		bne	.L26
 1740              	.LBB10:
 508:../src/renesas/application/r_bcd_lcd.c ****     {
 509:../src/renesas/application/r_bcd_lcd.c ****         vdc_enhance_sharp_t sharp_param;
 510:../src/renesas/application/r_bcd_lcd.c ****         vdc_enhance_lti_t lti_param;
 511:../src/renesas/application/r_bcd_lcd.c ****         vdc_period_rect_t enh_area;
 512:../src/renesas/application/r_bcd_lcd.c **** 
 513:../src/renesas/application/r_bcd_lcd.c ****         /* Sharpness of H1 */
 514:../src/renesas/application/r_bcd_lcd.c ****         sharp_param.hrz_sharp[VDC_IMGENH_SHARP_H1].shp_clip_o = IMGC_SHARPNESS_H1_CLIP_O;
 1741              		.loc 1 514 0
 1742 00ac 0030A0E3 		mov	r3, #0
 1743 00b0 2F304BE5 		strb	r3, [fp, #-47]
 515:../src/renesas/application/r_bcd_lcd.c ****         sharp_param.hrz_sharp[VDC_IMGENH_SHARP_H1].shp_clip_u = IMGC_SHARPNESS_H1_CLIP_U;
 1744              		.loc 1 515 0
 1745 00b4 0030A0E3 		mov	r3, #0
 1746 00b8 2E304BE5 		strb	r3, [fp, #-46]
 516:../src/renesas/application/r_bcd_lcd.c ****         sharp_param.hrz_sharp[VDC_IMGENH_SHARP_H1].shp_gain_o = IMGC_SHARPNESS_H1_GAIN_O;
 1747              		.loc 1 516 0
 1748 00bc 0030A0E3 		mov	r3, #0
 1749 00c0 2D304BE5 		strb	r3, [fp, #-45]
 517:../src/renesas/application/r_bcd_lcd.c ****         sharp_param.hrz_sharp[VDC_IMGENH_SHARP_H1].shp_gain_u = IMGC_SHARPNESS_H1_GAIN_U;
 1750              		.loc 1 517 0
 1751 00c4 0030A0E3 		mov	r3, #0
 1752 00c8 2C304BE5 		strb	r3, [fp, #-44]
 518:../src/renesas/application/r_bcd_lcd.c ****         sharp_param.hrz_sharp[VDC_IMGENH_SHARP_H1].shp_core   = IMGC_SHARPNESS_H1_CORE;
 1753              		.loc 1 518 0
 1754 00cc 0030A0E3 		mov	r3, #0
 1755 00d0 2B304BE5 		strb	r3, [fp, #-43]
 519:../src/renesas/application/r_bcd_lcd.c **** 
 520:../src/renesas/application/r_bcd_lcd.c ****         /* Sharpness of H2 */
 521:../src/renesas/application/r_bcd_lcd.c ****         sharp_param.hrz_sharp[VDC_IMGENH_SHARP_H2].shp_clip_o = IMGC_SHARPNESS_H2_CLIP_O;
 1756              		.loc 1 521 0
 1757 00d4 0030A0E3 		mov	r3, #0
 1758 00d8 2A304BE5 		strb	r3, [fp, #-42]
 522:../src/renesas/application/r_bcd_lcd.c ****         sharp_param.hrz_sharp[VDC_IMGENH_SHARP_H2].shp_clip_u = IMGC_SHARPNESS_H2_CLIP_U;
 1759              		.loc 1 522 0
 1760 00dc 0030A0E3 		mov	r3, #0
 1761 00e0 29304BE5 		strb	r3, [fp, #-41]
 523:../src/renesas/application/r_bcd_lcd.c ****         sharp_param.hrz_sharp[VDC_IMGENH_SHARP_H2].shp_gain_o = IMGC_SHARPNESS_H2_GAIN_O;
 1762              		.loc 1 523 0
 1763 00e4 0030A0E3 		mov	r3, #0
 1764 00e8 28304BE5 		strb	r3, [fp, #-40]
 524:../src/renesas/application/r_bcd_lcd.c ****         sharp_param.hrz_sharp[VDC_IMGENH_SHARP_H2].shp_gain_u = IMGC_SHARPNESS_H2_GAIN_U;
 1765              		.loc 1 524 0
 1766 00ec 0030A0E3 		mov	r3, #0
 1767 00f0 27304BE5 		strb	r3, [fp, #-39]
 525:../src/renesas/application/r_bcd_lcd.c ****         sharp_param.hrz_sharp[VDC_IMGENH_SHARP_H2].shp_core   = IMGC_SHARPNESS_H2_CORE;
 1768              		.loc 1 525 0
 1769 00f4 0030A0E3 		mov	r3, #0
 1770 00f8 26304BE5 		strb	r3, [fp, #-38]
 526:../src/renesas/application/r_bcd_lcd.c **** 
 527:../src/renesas/application/r_bcd_lcd.c ****         if (IMGC_SHARPNESS_H2_LPF == 0)
 528:../src/renesas/application/r_bcd_lcd.c ****         {
 529:../src/renesas/application/r_bcd_lcd.c ****             sharp_param.shp_h2_lpf_sel = VDC_OFF;
 1771              		.loc 1 529 0
 1772 00fc 0030A0E3 		mov	r3, #0
 1773 0100 30304BE5 		strb	r3, [fp, #-48]
 530:../src/renesas/application/r_bcd_lcd.c ****         }
 531:../src/renesas/application/r_bcd_lcd.c ****         else
 532:../src/renesas/application/r_bcd_lcd.c ****         {
 533:../src/renesas/application/r_bcd_lcd.c ****             sharp_param.shp_h2_lpf_sel = VDC_ON;
 534:../src/renesas/application/r_bcd_lcd.c ****         }
 535:../src/renesas/application/r_bcd_lcd.c **** 
 536:../src/renesas/application/r_bcd_lcd.c ****         /* Sharpness of H3 */
 537:../src/renesas/application/r_bcd_lcd.c ****         sharp_param.hrz_sharp[VDC_IMGENH_SHARP_H3].shp_clip_o = IMGC_SHARPNESS_H3_CLIP_O;
 1774              		.loc 1 537 0
 1775 0104 0030A0E3 		mov	r3, #0
 1776 0108 25304BE5 		strb	r3, [fp, #-37]
 538:../src/renesas/application/r_bcd_lcd.c ****         sharp_param.hrz_sharp[VDC_IMGENH_SHARP_H3].shp_clip_u = IMGC_SHARPNESS_H3_CLIP_U;
 1777              		.loc 1 538 0
 1778 010c 0030A0E3 		mov	r3, #0
 1779 0110 24304BE5 		strb	r3, [fp, #-36]
 539:../src/renesas/application/r_bcd_lcd.c ****         sharp_param.hrz_sharp[VDC_IMGENH_SHARP_H3].shp_gain_o = IMGC_SHARPNESS_H3_GAIN_O;
 1780              		.loc 1 539 0
 1781 0114 0030A0E3 		mov	r3, #0
 1782 0118 23304BE5 		strb	r3, [fp, #-35]
 540:../src/renesas/application/r_bcd_lcd.c ****         sharp_param.hrz_sharp[VDC_IMGENH_SHARP_H3].shp_gain_u = IMGC_SHARPNESS_H3_GAIN_U;
 1783              		.loc 1 540 0
 1784 011c 0030A0E3 		mov	r3, #0
 1785 0120 22304BE5 		strb	r3, [fp, #-34]
 541:../src/renesas/application/r_bcd_lcd.c ****         sharp_param.hrz_sharp[VDC_IMGENH_SHARP_H3].shp_core   = IMGC_SHARPNESS_H3_CORE;
 1786              		.loc 1 541 0
 1787 0124 0030A0E3 		mov	r3, #0
 1788 0128 21304BE5 		strb	r3, [fp, #-33]
 542:../src/renesas/application/r_bcd_lcd.c **** 
 543:../src/renesas/application/r_bcd_lcd.c ****         /* LTI H2 */
 544:../src/renesas/application/r_bcd_lcd.c ****         if (IMGC_SHARPNESS_LTI_H2_LPF == 0)
 545:../src/renesas/application/r_bcd_lcd.c ****         {
 546:../src/renesas/application/r_bcd_lcd.c ****             lti_param.lti_h2_lpf_sel = VDC_OFF;
 1789              		.loc 1 546 0
 1790 012c 0030A0E3 		mov	r3, #0
 1791 0130 38304BE5 		strb	r3, [fp, #-56]
 547:../src/renesas/application/r_bcd_lcd.c ****         }
 548:../src/renesas/application/r_bcd_lcd.c ****         else
 549:../src/renesas/application/r_bcd_lcd.c ****         {
 550:../src/renesas/application/r_bcd_lcd.c ****             lti_param.lti_h2_lpf_sel = VDC_ON;
 551:../src/renesas/application/r_bcd_lcd.c ****         }
 552:../src/renesas/application/r_bcd_lcd.c ****         lti_param.lti[VDC_IMGENH_LTI1].lti_inc_zero = IMGC_SHARPNESS_LTI_H2_ZERO;
 1792              		.loc 1 552 0
 1793 0134 0A30A0E3 		mov	r3, #10
 1794 0138 36304BE5 		strb	r3, [fp, #-54]
 553:../src/renesas/application/r_bcd_lcd.c ****         lti_param.lti[VDC_IMGENH_LTI1].lti_gain     = IMGC_SHARPNESS_LTI_H2_GAIN;
 1795              		.loc 1 553 0
 1796 013c 0030A0E3 		mov	r3, #0
 1797 0140 35304BE5 		strb	r3, [fp, #-53]
 554:../src/renesas/application/r_bcd_lcd.c ****         lti_param.lti[VDC_IMGENH_LTI1].lti_core     = IMGC_SHARPNESS_LTI_H2_CORE;
 1798              		.loc 1 554 0
 1799 0144 0030A0E3 		mov	r3, #0
 1800 0148 34304BE5 		strb	r3, [fp, #-52]
 555:../src/renesas/application/r_bcd_lcd.c **** 
 556:../src/renesas/application/r_bcd_lcd.c ****         /* LTI H4 */
 557:../src/renesas/application/r_bcd_lcd.c ****         if (IMGC_SHARPNESS_LTI_H4_MEDTAP_SEL == VDC_LTI_MDFIL_SEL_ADJ2)
 558:../src/renesas/application/r_bcd_lcd.c ****         {
 559:../src/renesas/application/r_bcd_lcd.c ****             lti_param.lti_h4_median_tap_sel = VDC_LTI_MDFIL_SEL_ADJ2;
 1801              		.loc 1 559 0
 1802 014c 0030A0E3 		mov	r3, #0
 1803 0150 37304BE5 		strb	r3, [fp, #-55]
 560:../src/renesas/application/r_bcd_lcd.c ****         }
 561:../src/renesas/application/r_bcd_lcd.c ****         else
 562:../src/renesas/application/r_bcd_lcd.c ****         {
 563:../src/renesas/application/r_bcd_lcd.c ****             lti_param.lti_h4_median_tap_sel = VDC_LTI_MDFIL_SEL_ADJ1;
 564:../src/renesas/application/r_bcd_lcd.c ****         }
 565:../src/renesas/application/r_bcd_lcd.c **** 
 566:../src/renesas/application/r_bcd_lcd.c ****         lti_param.lti[VDC_IMGENH_LTI2].lti_inc_zero = IMGC_SHARPNESS_LTI_H4_ZERO;
 1804              		.loc 1 566 0
 1805 0154 0A30A0E3 		mov	r3, #10
 1806 0158 33304BE5 		strb	r3, [fp, #-51]
 567:../src/renesas/application/r_bcd_lcd.c ****         lti_param.lti[VDC_IMGENH_LTI2].lti_gain     = IMGC_SHARPNESS_LTI_H4_GAIN;
 1807              		.loc 1 567 0
 1808 015c 0030A0E3 		mov	r3, #0
 1809 0160 32304BE5 		strb	r3, [fp, #-50]
 568:../src/renesas/application/r_bcd_lcd.c ****         lti_param.lti[VDC_IMGENH_LTI2].lti_core     = IMGC_SHARPNESS_LTI_H4_CORE;
 1810              		.loc 1 568 0
 1811 0164 0030A0E3 		mov	r3, #0
 1812 0168 31304BE5 		strb	r3, [fp, #-49]
 569:../src/renesas/application/r_bcd_lcd.c **** 
 570:../src/renesas/application/r_bcd_lcd.c ****         /* Sharpness Effective area */
 571:../src/renesas/application/r_bcd_lcd.c ****         enh_area.hs = IMGC_SHARPNESS_HS;
 1813              		.loc 1 571 0
 1814 016c 173EA0E3 		mov	r3, #368
 1815 0170 BC334BE1 		strh	r3, [fp, #-60]	@ movhi
 572:../src/renesas/application/r_bcd_lcd.c ****         enh_area.hw = IMGC_SHARPNESS_HW;
 1816              		.loc 1 572 0
 1817 0174 553EA0E3 		mov	r3, #1360
 1818 0178 BA334BE1 		strh	r3, [fp, #-58]	@ movhi
 573:../src/renesas/application/r_bcd_lcd.c ****         enh_area.vs = IMGC_SHARPNESS_VS;
 1819              		.loc 1 573 0
 1820 017c 1730A0E3 		mov	r3, #23
 1821 0180 B0344BE1 		strh	r3, [fp, #-64]	@ movhi
 574:../src/renesas/application/r_bcd_lcd.c ****         enh_area.vw = IMGC_SHARPNESS_VW;
 1822              		.loc 1 574 0
 1823 0184 033CA0E3 		mov	r3, #768
 1824 0188 BE334BE1 		strh	r3, [fp, #-62]	@ movhi
 575:../src/renesas/application/r_bcd_lcd.c ****         error = R_RVAPI_VideoSharpnessLtiVDC (vdc_ch, IMGC_IMG_IMPRV_ID, IMGC_SHARPNESS_ACTIVE, &sh
 1825              		.loc 1 575 0
 1826 018c 30204BE2 		sub	r2, fp, #48
 1827 0190 45005BE5 		ldrb	r0, [fp, #-69]	@ zero_extendqisi2
 1828 0194 40304BE2 		sub	r3, fp, #64
 1829 0198 08308DE5 		str	r3, [sp, #8]
 1830 019c 38304BE2 		sub	r3, fp, #56
 1831 01a0 04308DE5 		str	r3, [sp, #4]
 1832 01a4 0030A0E3 		mov	r3, #0
 1833 01a8 00308DE5 		str	r3, [sp]
 1834 01ac 0230A0E1 		mov	r3, r2
 1835 01b0 0020A0E3 		mov	r2, #0
 1836 01b4 0010A0E3 		mov	r1, #0
 1837 01b8 FEFFFFEB 		bl	R_RVAPI_VideoSharpnessLtiVDC
 1838 01bc 0030A0E1 		mov	r3, r0
 1839 01c0 05304BE5 		strb	r3, [fp, #-5]
 1840              	.L26:
 1841              	.LBE10:
 576:../src/renesas/application/r_bcd_lcd.c ****                                                IMGC_SHARPNESS_LTI_ACTIVE, &lti_param, &enh_area);
 577:../src/renesas/application/r_bcd_lcd.c **** 
 578:../src/renesas/application/r_bcd_lcd.c ****     }
 579:../src/renesas/application/r_bcd_lcd.c **** 
 580:../src/renesas/application/r_bcd_lcd.c ****     return error;
 1842              		.loc 1 580 0
 1843 01c4 05305BE5 		ldrb	r3, [fp, #-5]	@ zero_extendqisi2
 581:../src/renesas/application/r_bcd_lcd.c **** } /* End of function r_video_quality_adjustment() */
 1844              		.loc 1 581 0
 1845 01c8 0300A0E1 		mov	r0, r3
 1846 01cc 04D04BE2 		sub	sp, fp, #4
 1847              		.cfi_def_cfa 13, 8
 1848              		@ sp needed
 1849 01d0 0088BDE8 		pop	{fp, pc}
 1850              		.cfi_endproc
 1851              	.LFE9:
 1853              		.section	.text.R_BCD_LcdSwapVideoBuffer,"ax",%progbits
 1854              		.align	2
 1855              		.global	R_BCD_LcdSwapVideoBuffer
 1856              		.syntax unified
 1857              		.arm
 1858              		.fpu neon
 1860              	R_BCD_LcdSwapVideoBuffer:
 1861              	.LFB10:
 582:../src/renesas/application/r_bcd_lcd.c **** 
 583:../src/renesas/application/r_bcd_lcd.c **** /******************************************************************************
 584:../src/renesas/application/r_bcd_lcd.c **** * Function Name: R_BCD_LcdSwapVideoBuffer
 585:../src/renesas/application/r_bcd_lcd.c **** * Description  : Record video buffer swap request
 586:../src/renesas/application/r_bcd_lcd.c **** * Arguments    : -
 587:../src/renesas/application/r_bcd_lcd.c **** * Return Value : -
 588:../src/renesas/application/r_bcd_lcd.c **** ******************************************************************************/
 589:../src/renesas/application/r_bcd_lcd.c **** void R_BCD_LcdSwapVideoBuffer( void )
 590:../src/renesas/application/r_bcd_lcd.c **** {
 1862              		.loc 1 590 0
 1863              		.cfi_startproc
 1864              		@ args = 0, pretend = 0, frame = 0
 1865              		@ frame_needed = 1, uses_anonymous_args = 0
 1866              		@ link register save eliminated.
 1867 0000 04B02DE5 		str	fp, [sp, #-4]!
 1868              		.cfi_def_cfa_offset 4
 1869              		.cfi_offset 11, -4
 1870 0004 00B08DE2 		add	fp, sp, #0
 1871              		.cfi_def_cfa_register 11
 591:../src/renesas/application/r_bcd_lcd.c ****     Req_Layer1_Swap = 1;
 1872              		.loc 1 591 0
 1873 0008 003000E3 		movw	r3, #:lower16:Req_Layer1_Swap
 1874 000c 003040E3 		movt	r3, #:upper16:Req_Layer1_Swap
 1875 0010 0120A0E3 		mov	r2, #1
 1876 0014 002083E5 		str	r2, [r3]
 592:../src/renesas/application/r_bcd_lcd.c **** 
 593:../src/renesas/application/r_bcd_lcd.c ****     return;
 1877              		.loc 1 593 0
 1878 0018 00F020E3 		nop
 594:../src/renesas/application/r_bcd_lcd.c **** }
 1879              		.loc 1 594 0
 1880 001c 00D08BE2 		add	sp, fp, #0
 1881              		.cfi_def_cfa_register 13
 1882              		@ sp needed
 1883 0020 04B09DE4 		ldr	fp, [sp], #4
 1884              		.cfi_restore 11
 1885              		.cfi_def_cfa_offset 0
 1886 0024 1EFF2FE1 		bx	lr
 1887              		.cfi_endproc
 1888              	.LFE10:
 1890              		.section	.text.R_BCD_LcdSwapGraphicsBuffer,"ax",%progbits
 1891              		.align	2
 1892              		.global	R_BCD_LcdSwapGraphicsBuffer
 1893              		.syntax unified
 1894              		.arm
 1895              		.fpu neon
 1897              	R_BCD_LcdSwapGraphicsBuffer:
 1898              	.LFB11:
 595:../src/renesas/application/r_bcd_lcd.c **** 
 596:../src/renesas/application/r_bcd_lcd.c **** /******************************************************************************
 597:../src/renesas/application/r_bcd_lcd.c **** * Function Name: R_BCD_LcdSwapGraphicsBuffer
 598:../src/renesas/application/r_bcd_lcd.c **** * Description  : Record graphics buffer swap request
 599:../src/renesas/application/r_bcd_lcd.c **** * Arguments    : -
 600:../src/renesas/application/r_bcd_lcd.c **** * Return Value : -
 601:../src/renesas/application/r_bcd_lcd.c **** ******************************************************************************/
 602:../src/renesas/application/r_bcd_lcd.c **** void R_BCD_LcdSwapGraphicsBuffer(void)
 603:../src/renesas/application/r_bcd_lcd.c **** {
 1899              		.loc 1 603 0
 1900              		.cfi_startproc
 1901              		@ args = 0, pretend = 0, frame = 0
 1902              		@ frame_needed = 1, uses_anonymous_args = 0
 1903              		@ link register save eliminated.
 1904 0000 04B02DE5 		str	fp, [sp, #-4]!
 1905              		.cfi_def_cfa_offset 4
 1906              		.cfi_offset 11, -4
 1907 0004 00B08DE2 		add	fp, sp, #0
 1908              		.cfi_def_cfa_register 11
 604:../src/renesas/application/r_bcd_lcd.c ****     Req_Layer2_Swap = 1;
 1909              		.loc 1 604 0
 1910 0008 003000E3 		movw	r3, #:lower16:Req_Layer2_Swap
 1911 000c 003040E3 		movt	r3, #:upper16:Req_Layer2_Swap
 1912 0010 0120A0E3 		mov	r2, #1
 1913 0014 002083E5 		str	r2, [r3]
 605:../src/renesas/application/r_bcd_lcd.c **** 
 606:../src/renesas/application/r_bcd_lcd.c ****     return;
 1914              		.loc 1 606 0
 1915 0018 00F020E3 		nop
 607:../src/renesas/application/r_bcd_lcd.c **** }
 1916              		.loc 1 607 0
 1917 001c 00D08BE2 		add	sp, fp, #0
 1918              		.cfi_def_cfa_register 13
 1919              		@ sp needed
 1920 0020 04B09DE4 		ldr	fp, [sp], #4
 1921              		.cfi_restore 11
 1922              		.cfi_def_cfa_offset 0
 1923 0024 1EFF2FE1 		bx	lr
 1924              		.cfi_endproc
 1925              	.LFE11:
 1927              		.section	.text.R_BCD_LcdVSync,"ax",%progbits
 1928              		.align	2
 1929              		.global	R_BCD_LcdVSync
 1930              		.syntax unified
 1931              		.arm
 1932              		.fpu neon
 1934              	R_BCD_LcdVSync:
 1935              	.LFB12:
 608:../src/renesas/application/r_bcd_lcd.c **** 
 609:../src/renesas/application/r_bcd_lcd.c **** /******************************************************************************
 610:../src/renesas/application/r_bcd_lcd.c **** * Function Name: R_BCD_LcdVSync
 611:../src/renesas/application/r_bcd_lcd.c **** * Description  : Interrupt process for VDC6
 612:../src/renesas/application/r_bcd_lcd.c **** *              : Check the swap request of the video buffer and the overlap buffer,
 613:../src/renesas/application/r_bcd_lcd.c **** *              : and swap the buffer if there is a request.
 614:../src/renesas/application/r_bcd_lcd.c **** * Arguments    : -
 615:../src/renesas/application/r_bcd_lcd.c **** * Return Value : -
 616:../src/renesas/application/r_bcd_lcd.c **** ******************************************************************************/
 617:../src/renesas/application/r_bcd_lcd.c **** void R_BCD_LcdVSync(void)
 618:../src/renesas/application/r_bcd_lcd.c **** {
 1936              		.loc 1 618 0
 1937              		.cfi_startproc
 1938              		@ args = 0, pretend = 0, frame = 0
 1939              		@ frame_needed = 1, uses_anonymous_args = 0
 1940 0000 00482DE9 		push	{fp, lr}
 1941              		.cfi_def_cfa_offset 8
 1942              		.cfi_offset 11, -8
 1943              		.cfi_offset 14, -4
 1944 0004 04B08DE2 		add	fp, sp, #4
 1945              		.cfi_def_cfa 11, 4
 619:../src/renesas/application/r_bcd_lcd.c ****     /* Check whether the video buffer swap request is pending */
 620:../src/renesas/application/r_bcd_lcd.c ****     if (Req_Layer1_Swap != 0)
 1946              		.loc 1 620 0
 1947 0008 003000E3 		movw	r3, #:lower16:Req_Layer1_Swap
 1948 000c 003040E3 		movt	r3, #:upper16:Req_Layer1_Swap
 1949 0010 003093E5 		ldr	r3, [r3]
 1950 0014 000053E3 		cmp	r3, #0
 1951 0018 1600000A 		beq	.L35
 621:../src/renesas/application/r_bcd_lcd.c ****     {
 622:../src/renesas/application/r_bcd_lcd.c ****         if( Layer1_buffer_id == 0 )
 1952              		.loc 1 622 0
 1953 001c 003000E3 		movw	r3, #:lower16:Layer1_buffer_id
 1954 0020 003040E3 		movt	r3, #:upper16:Layer1_buffer_id
 1955 0024 003093E5 		ldr	r3, [r3]
 1956 0028 000053E3 		cmp	r3, #0
 1957 002c 0900001A 		bne	.L34
 623:../src/renesas/application/r_bcd_lcd.c ****         {
 624:../src/renesas/application/r_bcd_lcd.c ****             R_RVAPI_GraphChangeSurfaceVDC(VDC_CHANNEL_0, VDC_LAYER_ID_0_RD, video_buffer[0]);
 1958              		.loc 1 624 0
 1959 0030 002000E3 		movw	r2, #:lower16:video_buffer
 1960 0034 002040E3 		movt	r2, #:upper16:video_buffer
 1961 0038 0110A0E3 		mov	r1, #1
 1962 003c 0000A0E3 		mov	r0, #0
 1963 0040 FEFFFFEB 		bl	R_RVAPI_GraphChangeSurfaceVDC
 625:../src/renesas/application/r_bcd_lcd.c ****             Layer1_buffer_id = 1;
 1964              		.loc 1 625 0
 1965 0044 003000E3 		movw	r3, #:lower16:Layer1_buffer_id
 1966 0048 003040E3 		movt	r3, #:upper16:Layer1_buffer_id
 1967 004c 0120A0E3 		mov	r2, #1
 1968 0050 002083E5 		str	r2, [r3]
 1969 0054 070000EA 		b	.L35
 1970              	.L34:
 626:../src/renesas/application/r_bcd_lcd.c ****         }
 627:../src/renesas/application/r_bcd_lcd.c ****         else
 628:../src/renesas/application/r_bcd_lcd.c ****         {
 629:../src/renesas/application/r_bcd_lcd.c ****             R_RVAPI_GraphChangeSurfaceVDC(VDC_CHANNEL_0, VDC_LAYER_ID_0_RD, video_buffer[1]);
 1971              		.loc 1 629 0
 1972 0058 40209FE5 		ldr	r2, .L36
 1973 005c 0110A0E3 		mov	r1, #1
 1974 0060 0000A0E3 		mov	r0, #0
 1975 0064 FEFFFFEB 		bl	R_RVAPI_GraphChangeSurfaceVDC
 630:../src/renesas/application/r_bcd_lcd.c ****             Layer1_buffer_id = 0;
 1976              		.loc 1 630 0
 1977 0068 003000E3 		movw	r3, #:lower16:Layer1_buffer_id
 1978 006c 003040E3 		movt	r3, #:upper16:Layer1_buffer_id
 1979 0070 0020A0E3 		mov	r2, #0
 1980 0074 002083E5 		str	r2, [r3]
 1981              	.L35:
 631:../src/renesas/application/r_bcd_lcd.c ****         }
 632:../src/renesas/application/r_bcd_lcd.c ****     }
 633:../src/renesas/application/r_bcd_lcd.c **** 
 634:../src/renesas/application/r_bcd_lcd.c ****     /* Check whether the overlap buffer swap request is pending */
 635:../src/renesas/application/r_bcd_lcd.c ****     if (Req_Layer2_Swap != 0 && GRAPHICS2_BUFFER_NUM != 1)
 636:../src/renesas/application/r_bcd_lcd.c ****     {
 637:../src/renesas/application/r_bcd_lcd.c ****         if (layer2_buffer_id == 0)
 638:../src/renesas/application/r_bcd_lcd.c ****         {
 639:../src/renesas/application/r_bcd_lcd.c ****             R_RVAPI_GraphChangeSurfaceVDC(VDC_CHANNEL_0, VDC_LAYER_ID_2_RD, graphics2_buffer[1]);
 640:../src/renesas/application/r_bcd_lcd.c ****             layer2_buffer_id = 1;
 641:../src/renesas/application/r_bcd_lcd.c ****         }
 642:../src/renesas/application/r_bcd_lcd.c ****         else
 643:../src/renesas/application/r_bcd_lcd.c ****         {
 644:../src/renesas/application/r_bcd_lcd.c ****             R_RVAPI_GraphChangeSurfaceVDC(VDC_CHANNEL_0, VDC_LAYER_ID_2_RD, graphics2_buffer[0]);
 645:../src/renesas/application/r_bcd_lcd.c ****             layer2_buffer_id = 0;
 646:../src/renesas/application/r_bcd_lcd.c ****         }
 647:../src/renesas/application/r_bcd_lcd.c ****         DrawSwapBuffer(VDC_LAYER_ID_2_RD);
 648:../src/renesas/application/r_bcd_lcd.c ****     }
 649:../src/renesas/application/r_bcd_lcd.c ****     Req_Layer1_Swap = 0;
 1982              		.loc 1 649 0
 1983 0078 003000E3 		movw	r3, #:lower16:Req_Layer1_Swap
 1984 007c 003040E3 		movt	r3, #:upper16:Req_Layer1_Swap
 1985 0080 0020A0E3 		mov	r2, #0
 1986 0084 002083E5 		str	r2, [r3]
 650:../src/renesas/application/r_bcd_lcd.c ****     Req_Layer2_Swap = 0;
 1987              		.loc 1 650 0
 1988 0088 003000E3 		movw	r3, #:lower16:Req_Layer2_Swap
 1989 008c 003040E3 		movt	r3, #:upper16:Req_Layer2_Swap
 1990 0090 0020A0E3 		mov	r2, #0
 1991 0094 002083E5 		str	r2, [r3]
 651:../src/renesas/application/r_bcd_lcd.c **** }
 1992              		.loc 1 651 0
 1993 0098 00F020E3 		nop
 1994 009c 0088BDE8 		pop	{fp, pc}
 1995              	.L37:
 1996              		.align	2
 1997              	.L36:
 1998 00a0 008C0A00 		.word	video_buffer+691200
 1999              		.cfi_endproc
 2000              	.LFE12:
 2002              		.section	.text.R_BCD_LcdWriteLine,"ax",%progbits
 2003              		.align	2
 2004              		.global	R_BCD_LcdWriteLine
 2005              		.syntax unified
 2006              		.arm
 2007              		.fpu neon
 2009              	R_BCD_LcdWriteLine:
 2010              	.LFB13:
 652:../src/renesas/application/r_bcd_lcd.c **** 
 653:../src/renesas/application/r_bcd_lcd.c **** /******************************************************************************
 654:../src/renesas/application/r_bcd_lcd.c **** * Function Name: R_BCD_LcdWriteLine
 655:../src/renesas/application/r_bcd_lcd.c **** * Description  : Draw a line in the overlap buffer
 656:../src/renesas/application/r_bcd_lcd.c **** * Arguments    : x1
 657:../src/renesas/application/r_bcd_lcd.c **** *              :   X coordinate of the start point of the line
 658:../src/renesas/application/r_bcd_lcd.c **** *              : y1
 659:../src/renesas/application/r_bcd_lcd.c **** *              :   Y coordinate of the start point of the line
 660:../src/renesas/application/r_bcd_lcd.c **** *              : x2
 661:../src/renesas/application/r_bcd_lcd.c **** *              :   X coordinate of the end point of the line
 662:../src/renesas/application/r_bcd_lcd.c **** *              : y2
 663:../src/renesas/application/r_bcd_lcd.c **** *              :   Y coordinate of the end point of the line
 664:../src/renesas/application/r_bcd_lcd.c **** *              : color
 665:../src/renesas/application/r_bcd_lcd.c **** *              :   Line color
 666:../src/renesas/application/r_bcd_lcd.c **** * Return Value : -
 667:../src/renesas/application/r_bcd_lcd.c **** ******************************************************************************/
 668:../src/renesas/application/r_bcd_lcd.c **** void R_BCD_LcdWriteLine(int32_t x1, int32_t y1, int32_t x2, int32_t y2, uint8_t color)
 669:../src/renesas/application/r_bcd_lcd.c **** {
 2011              		.loc 1 669 0
 2012              		.cfi_startproc
 2013              		@ args = 4, pretend = 0, frame = 16
 2014              		@ frame_needed = 1, uses_anonymous_args = 0
 2015 0000 00482DE9 		push	{fp, lr}
 2016              		.cfi_def_cfa_offset 8
 2017              		.cfi_offset 11, -8
 2018              		.cfi_offset 14, -4
 2019 0004 04B08DE2 		add	fp, sp, #4
 2020              		.cfi_def_cfa 11, 4
 2021 0008 18D04DE2 		sub	sp, sp, #24
 2022 000c 08000BE5 		str	r0, [fp, #-8]
 2023 0010 0C100BE5 		str	r1, [fp, #-12]
 2024 0014 10200BE5 		str	r2, [fp, #-16]
 2025 0018 14300BE5 		str	r3, [fp, #-20]
 670:../src/renesas/application/r_bcd_lcd.c ****     DrawLine( VDC_LAYER_ID_2_RD, x1, y1, x2, y2, color );
 2026              		.loc 1 670 0
 2027 001c 0430DBE5 		ldrb	r3, [fp, #4]	@ zero_extendqisi2
 2028 0020 04308DE5 		str	r3, [sp, #4]
 2029 0024 14301BE5 		ldr	r3, [fp, #-20]
 2030 0028 00308DE5 		str	r3, [sp]
 2031 002c 10301BE5 		ldr	r3, [fp, #-16]
 2032 0030 0C201BE5 		ldr	r2, [fp, #-12]
 2033 0034 08101BE5 		ldr	r1, [fp, #-8]
 2034 0038 0200A0E3 		mov	r0, #2
 2035 003c FEFFFFEB 		bl	DrawLine
 671:../src/renesas/application/r_bcd_lcd.c **** 
 672:../src/renesas/application/r_bcd_lcd.c ****     return;
 2036              		.loc 1 672 0
 2037 0040 00F020E3 		nop
 673:../src/renesas/application/r_bcd_lcd.c **** }
 2038              		.loc 1 673 0
 2039 0044 04D04BE2 		sub	sp, fp, #4
 2040              		.cfi_def_cfa 13, 8
 2041              		@ sp needed
 2042 0048 0088BDE8 		pop	{fp, pc}
 2043              		.cfi_endproc
 2044              	.LFE13:
 2046              		.section	.text.R_BCD_LcdWriteChar,"ax",%progbits
 2047              		.align	2
 2048              		.global	R_BCD_LcdWriteChar
 2049              		.syntax unified
 2050              		.arm
 2051              		.fpu neon
 2053              	R_BCD_LcdWriteChar:
 2054              	.LFB14:
 674:../src/renesas/application/r_bcd_lcd.c **** 
 675:../src/renesas/application/r_bcd_lcd.c **** /******************************************************************************
 676:../src/renesas/application/r_bcd_lcd.c **** * Function Name: R_BCD_LcdWriteChar
 677:../src/renesas/application/r_bcd_lcd.c **** * Description  : Display character in overlap buffer
 678:../src/renesas/application/r_bcd_lcd.c **** * Arguments    : code
 679:../src/renesas/application/r_bcd_lcd.c **** *              :   Code to be displayed
 680:../src/renesas/application/r_bcd_lcd.c **** *              : x
 681:../src/renesas/application/r_bcd_lcd.c **** *              :   X coordinate to display character
 682:../src/renesas/application/r_bcd_lcd.c **** *              : y
 683:../src/renesas/application/r_bcd_lcd.c **** *              :   Y coordinate to display character
 684:../src/renesas/application/r_bcd_lcd.c **** *              : color
 685:../src/renesas/application/r_bcd_lcd.c **** *              :   character color
 686:../src/renesas/application/r_bcd_lcd.c **** * Return Value : -
 687:../src/renesas/application/r_bcd_lcd.c **** ******************************************************************************/
 688:../src/renesas/application/r_bcd_lcd.c **** void R_BCD_LcdWriteChar(uint8_t code, uint32_t x, uint32_t y, uint8_t color)
 689:../src/renesas/application/r_bcd_lcd.c **** {
 2055              		.loc 1 689 0
 2056              		.cfi_startproc
 2057              		@ args = 0, pretend = 0, frame = 40
 2058              		@ frame_needed = 1, uses_anonymous_args = 0
 2059 0000 00482DE9 		push	{fp, lr}
 2060              		.cfi_def_cfa_offset 8
 2061              		.cfi_offset 11, -8
 2062              		.cfi_offset 14, -4
 2063 0004 04B08DE2 		add	fp, sp, #4
 2064              		.cfi_def_cfa 11, 4
 2065 0008 28D04DE2 		sub	sp, sp, #40
 2066 000c 24100BE5 		str	r1, [fp, #-36]
 2067 0010 28200BE5 		str	r2, [fp, #-40]
 2068 0014 0320A0E1 		mov	r2, r3
 2069 0018 0030A0E1 		mov	r3, r0
 2070 001c 1D304BE5 		strb	r3, [fp, #-29]
 2071 0020 0230A0E1 		mov	r3, r2
 2072 0024 1E304BE5 		strb	r3, [fp, #-30]
 690:../src/renesas/application/r_bcd_lcd.c ****     int32_t height;
 691:../src/renesas/application/r_bcd_lcd.c ****     int32_t width;
 692:../src/renesas/application/r_bcd_lcd.c ****     uint8_t font;
 693:../src/renesas/application/r_bcd_lcd.c **** 
 694:../src/renesas/application/r_bcd_lcd.c ****     int32_t width_offset;
 695:../src/renesas/application/r_bcd_lcd.c ****     int32_t check_bit;
 696:../src/renesas/application/r_bcd_lcd.c ****     for (height = 0; height < R_BCD_FONTDATA_HEIGHT; height++)
 2073              		.loc 1 696 0
 2074 0028 0030A0E3 		mov	r3, #0
 2075 002c 08300BE5 		str	r3, [fp, #-8]
 2076 0030 4B0000EA 		b	.L41
 2077              	.L46:
 697:../src/renesas/application/r_bcd_lcd.c ****     {
 698:../src/renesas/application/r_bcd_lcd.c ****         check_bit = 7;
 2078              		.loc 1 698 0
 2079 0034 0730A0E3 		mov	r3, #7
 2080 0038 18300BE5 		str	r3, [fp, #-24]
 699:../src/renesas/application/r_bcd_lcd.c ****         width_offset = 0;
 2081              		.loc 1 699 0
 2082 003c 0030A0E3 		mov	r3, #0
 2083 0040 14300BE5 		str	r3, [fp, #-20]
 700:../src/renesas/application/r_bcd_lcd.c ****         font = font_array[code-0x20][height][width_offset++];
 2084              		.loc 1 700 0
 2085 0044 1D305BE5 		ldrb	r3, [fp, #-29]	@ zero_extendqisi2
 2086 0048 200043E2 		sub	r0, r3, #32
 2087 004c 14101BE5 		ldr	r1, [fp, #-20]
 2088 0050 013081E2 		add	r3, r1, #1
 2089 0054 14300BE5 		str	r3, [fp, #-20]
 2090 0058 002000E3 		movw	r2, #:lower16:font_array
 2091 005c 002040E3 		movt	r2, #:upper16:font_array
 2092 0060 0030A0E1 		mov	r3, r0
 2093 0064 8330A0E1 		lsl	r3, r3, #1
 2094 0068 003083E0 		add	r3, r3, r0
 2095 006c 8331A0E1 		lsl	r3, r3, #3
 2096 0070 08001BE5 		ldr	r0, [fp, #-8]
 2097 0074 003083E0 		add	r3, r3, r0
 2098 0078 8330A0E1 		lsl	r3, r3, #1
 2099 007c 033082E0 		add	r3, r2, r3
 2100 0080 013083E0 		add	r3, r3, r1
 2101 0084 0030D3E5 		ldrb	r3, [r3]
 2102 0088 0D304BE5 		strb	r3, [fp, #-13]
 701:../src/renesas/application/r_bcd_lcd.c ****         for (width = 0; width < R_BCD_FONTDATA_WIDTH; width++)
 2103              		.loc 1 701 0
 2104 008c 0030A0E3 		mov	r3, #0
 2105 0090 0C300BE5 		str	r3, [fp, #-12]
 2106 0094 2C0000EA 		b	.L42
 2107              	.L45:
 702:../src/renesas/application/r_bcd_lcd.c ****         {
 703:../src/renesas/application/r_bcd_lcd.c ****             if ((font & (0x1 << (check_bit--))) != 0)
 2108              		.loc 1 703 0
 2109 0098 0D205BE5 		ldrb	r2, [fp, #-13]	@ zero_extendqisi2
 2110 009c 18301BE5 		ldr	r3, [fp, #-24]
 2111 00a0 011043E2 		sub	r1, r3, #1
 2112 00a4 18100BE5 		str	r1, [fp, #-24]
 2113 00a8 5233A0E1 		asr	r3, r2, r3
 2114 00ac 013003E2 		and	r3, r3, #1
 2115 00b0 000053E3 		cmp	r3, #0
 2116 00b4 0A00000A 		beq	.L43
 704:../src/renesas/application/r_bcd_lcd.c ****             {
 705:../src/renesas/application/r_bcd_lcd.c ****                 DrawPoint( VDC_LAYER_ID_2_RD, width + x, height + y , color );
 2117              		.loc 1 705 0
 2118 00b8 0C201BE5 		ldr	r2, [fp, #-12]
 2119 00bc 24301BE5 		ldr	r3, [fp, #-36]
 2120 00c0 033082E0 		add	r3, r2, r3
 2121 00c4 0310A0E1 		mov	r1, r3
 2122 00c8 08201BE5 		ldr	r2, [fp, #-8]
 2123 00cc 28301BE5 		ldr	r3, [fp, #-40]
 2124 00d0 033082E0 		add	r3, r2, r3
 2125 00d4 0320A0E1 		mov	r2, r3
 2126 00d8 1E305BE5 		ldrb	r3, [fp, #-30]	@ zero_extendqisi2
 2127 00dc 0200A0E3 		mov	r0, #2
 2128 00e0 FEFFFFEB 		bl	DrawPoint
 2129              	.L43:
 706:../src/renesas/application/r_bcd_lcd.c ****             }
 707:../src/renesas/application/r_bcd_lcd.c ****             if (check_bit < 0)
 2130              		.loc 1 707 0
 2131 00e4 18301BE5 		ldr	r3, [fp, #-24]
 2132 00e8 000053E3 		cmp	r3, #0
 2133 00ec 130000AA 		bge	.L44
 708:../src/renesas/application/r_bcd_lcd.c ****             {
 709:../src/renesas/application/r_bcd_lcd.c ****                 check_bit = 7;
 2134              		.loc 1 709 0
 2135 00f0 0730A0E3 		mov	r3, #7
 2136 00f4 18300BE5 		str	r3, [fp, #-24]
 710:../src/renesas/application/r_bcd_lcd.c ****                 font = font_array[code-0x20][height][width_offset++];
 2137              		.loc 1 710 0
 2138 00f8 1D305BE5 		ldrb	r3, [fp, #-29]	@ zero_extendqisi2
 2139 00fc 200043E2 		sub	r0, r3, #32
 2140 0100 14101BE5 		ldr	r1, [fp, #-20]
 2141 0104 013081E2 		add	r3, r1, #1
 2142 0108 14300BE5 		str	r3, [fp, #-20]
 2143 010c 002000E3 		movw	r2, #:lower16:font_array
 2144 0110 002040E3 		movt	r2, #:upper16:font_array
 2145 0114 0030A0E1 		mov	r3, r0
 2146 0118 8330A0E1 		lsl	r3, r3, #1
 2147 011c 003083E0 		add	r3, r3, r0
 2148 0120 8331A0E1 		lsl	r3, r3, #3
 2149 0124 08001BE5 		ldr	r0, [fp, #-8]
 2150 0128 003083E0 		add	r3, r3, r0
 2151 012c 8330A0E1 		lsl	r3, r3, #1
 2152 0130 033082E0 		add	r3, r2, r3
 2153 0134 013083E0 		add	r3, r3, r1
 2154 0138 0030D3E5 		ldrb	r3, [r3]
 2155 013c 0D304BE5 		strb	r3, [fp, #-13]
 2156              	.L44:
 701:../src/renesas/application/r_bcd_lcd.c ****         {
 2157              		.loc 1 701 0 discriminator 2
 2158 0140 0C301BE5 		ldr	r3, [fp, #-12]
 2159 0144 013083E2 		add	r3, r3, #1
 2160 0148 0C300BE5 		str	r3, [fp, #-12]
 2161              	.L42:
 701:../src/renesas/application/r_bcd_lcd.c ****         {
 2162              		.loc 1 701 0 is_stmt 0 discriminator 1
 2163 014c 0C301BE5 		ldr	r3, [fp, #-12]
 2164 0150 0B0053E3 		cmp	r3, #11
 2165 0154 CFFFFFDA 		ble	.L45
 696:../src/renesas/application/r_bcd_lcd.c ****     {
 2166              		.loc 1 696 0 is_stmt 1 discriminator 2
 2167 0158 08301BE5 		ldr	r3, [fp, #-8]
 2168 015c 013083E2 		add	r3, r3, #1
 2169 0160 08300BE5 		str	r3, [fp, #-8]
 2170              	.L41:
 696:../src/renesas/application/r_bcd_lcd.c ****     {
 2171              		.loc 1 696 0 is_stmt 0 discriminator 1
 2172 0164 08301BE5 		ldr	r3, [fp, #-8]
 2173 0168 170053E3 		cmp	r3, #23
 2174 016c B0FFFFDA 		ble	.L46
 711:../src/renesas/application/r_bcd_lcd.c ****             }
 712:../src/renesas/application/r_bcd_lcd.c ****         }
 713:../src/renesas/application/r_bcd_lcd.c ****     }
 714:../src/renesas/application/r_bcd_lcd.c **** 
 715:../src/renesas/application/r_bcd_lcd.c ****     return;
 2175              		.loc 1 715 0 is_stmt 1
 2176 0170 00F020E3 		nop
 716:../src/renesas/application/r_bcd_lcd.c **** }
 2177              		.loc 1 716 0
 2178 0174 04D04BE2 		sub	sp, fp, #4
 2179              		.cfi_def_cfa 13, 8
 2180              		@ sp needed
 2181 0178 0088BDE8 		pop	{fp, pc}
 2182              		.cfi_endproc
 2183              	.LFE14:
 2185              		.section	.text.R_BCD_LcdWriteString,"ax",%progbits
 2186              		.align	2
 2187              		.global	R_BCD_LcdWriteString
 2188              		.syntax unified
 2189              		.arm
 2190              		.fpu neon
 2192              	R_BCD_LcdWriteString:
 2193              	.LFB15:
 717:../src/renesas/application/r_bcd_lcd.c **** 
 718:../src/renesas/application/r_bcd_lcd.c **** /******************************************************************************
 719:../src/renesas/application/r_bcd_lcd.c **** * Function Name: R_BCD_LcdWriteString
 720:../src/renesas/application/r_bcd_lcd.c **** * Description  : Display character string in overlap buffer
 721:../src/renesas/application/r_bcd_lcd.c **** * Arguments    : pcode
 722:../src/renesas/application/r_bcd_lcd.c **** *              :   A pointer to the character string to be displayed
 723:../src/renesas/application/r_bcd_lcd.c **** *              : x
 724:../src/renesas/application/r_bcd_lcd.c **** *              :   X coordinate to display character string
 725:../src/renesas/application/r_bcd_lcd.c **** *              : y
 726:../src/renesas/application/r_bcd_lcd.c **** *              :   Y coordinate to display character string
 727:../src/renesas/application/r_bcd_lcd.c **** *              : color
 728:../src/renesas/application/r_bcd_lcd.c **** *              :   character string color
 729:../src/renesas/application/r_bcd_lcd.c **** * Return Value : -
 730:../src/renesas/application/r_bcd_lcd.c **** ******************************************************************************/
 731:../src/renesas/application/r_bcd_lcd.c **** void R_BCD_LcdWriteString(uint8_t *pcode, uint32_t x, uint32_t y, uint8_t color)
 732:../src/renesas/application/r_bcd_lcd.c **** {
 2194              		.loc 1 732 0
 2195              		.cfi_startproc
 2196              		@ args = 0, pretend = 0, frame = 24
 2197              		@ frame_needed = 1, uses_anonymous_args = 0
 2198 0000 00482DE9 		push	{fp, lr}
 2199              		.cfi_def_cfa_offset 8
 2200              		.cfi_offset 11, -8
 2201              		.cfi_offset 14, -4
 2202 0004 04B08DE2 		add	fp, sp, #4
 2203              		.cfi_def_cfa 11, 4
 2204 0008 18D04DE2 		sub	sp, sp, #24
 2205 000c 10000BE5 		str	r0, [fp, #-16]
 2206 0010 14100BE5 		str	r1, [fp, #-20]
 2207 0014 18200BE5 		str	r2, [fp, #-24]
 2208 0018 19304BE5 		strb	r3, [fp, #-25]
 733:../src/renesas/application/r_bcd_lcd.c ****     int i;
 734:../src/renesas/application/r_bcd_lcd.c ****     int len;
 735:../src/renesas/application/r_bcd_lcd.c **** 
 736:../src/renesas/application/r_bcd_lcd.c ****     len = strlen(pcode);
 2209              		.loc 1 736 0
 2210 001c 10001BE5 		ldr	r0, [fp, #-16]
 2211 0020 FEFFFFEB 		bl	strlen
 2212 0024 0030A0E1 		mov	r3, r0
 2213 0028 0C300BE5 		str	r3, [fp, #-12]
 737:../src/renesas/application/r_bcd_lcd.c **** 
 738:../src/renesas/application/r_bcd_lcd.c ****     for (i = 0; i < len; i++)
 2214              		.loc 1 738 0
 2215 002c 0030A0E3 		mov	r3, #0
 2216 0030 08300BE5 		str	r3, [fp, #-8]
 2217 0034 110000EA 		b	.L49
 2218              	.L50:
 739:../src/renesas/application/r_bcd_lcd.c ****     {
 740:../src/renesas/application/r_bcd_lcd.c ****         R_BCD_LcdWriteChar(*pcode++, (x + (i * R_BCD_FONTDATA_WIDTH)), y, color);
 2219              		.loc 1 740 0 discriminator 3
 2220 0038 10301BE5 		ldr	r3, [fp, #-16]
 2221 003c 012083E2 		add	r2, r3, #1
 2222 0040 10200BE5 		str	r2, [fp, #-16]
 2223 0044 0000D3E5 		ldrb	r0, [r3]	@ zero_extendqisi2
 2224 0048 08201BE5 		ldr	r2, [fp, #-8]
 2225 004c 0230A0E1 		mov	r3, r2
 2226 0050 8330A0E1 		lsl	r3, r3, #1
 2227 0054 023083E0 		add	r3, r3, r2
 2228 0058 0331A0E1 		lsl	r3, r3, #2
 2229 005c 0320A0E1 		mov	r2, r3
 2230 0060 14301BE5 		ldr	r3, [fp, #-20]
 2231 0064 031082E0 		add	r1, r2, r3
 2232 0068 19305BE5 		ldrb	r3, [fp, #-25]	@ zero_extendqisi2
 2233 006c 18201BE5 		ldr	r2, [fp, #-24]
 2234 0070 FEFFFFEB 		bl	R_BCD_LcdWriteChar
 738:../src/renesas/application/r_bcd_lcd.c ****     {
 2235              		.loc 1 738 0 discriminator 3
 2236 0074 08301BE5 		ldr	r3, [fp, #-8]
 2237 0078 013083E2 		add	r3, r3, #1
 2238 007c 08300BE5 		str	r3, [fp, #-8]
 2239              	.L49:
 738:../src/renesas/application/r_bcd_lcd.c ****     {
 2240              		.loc 1 738 0 is_stmt 0 discriminator 1
 2241 0080 08201BE5 		ldr	r2, [fp, #-8]
 2242 0084 0C301BE5 		ldr	r3, [fp, #-12]
 2243 0088 030052E1 		cmp	r2, r3
 2244 008c E9FFFFBA 		blt	.L50
 741:../src/renesas/application/r_bcd_lcd.c ****     }
 742:../src/renesas/application/r_bcd_lcd.c **** 
 743:../src/renesas/application/r_bcd_lcd.c ****     return;
 2245              		.loc 1 743 0 is_stmt 1
 2246 0090 00F020E3 		nop
 744:../src/renesas/application/r_bcd_lcd.c **** }
 2247              		.loc 1 744 0
 2248 0094 04D04BE2 		sub	sp, fp, #4
 2249              		.cfi_def_cfa 13, 8
 2250              		@ sp needed
 2251 0098 0088BDE8 		pop	{fp, pc}
 2252              		.cfi_endproc
 2253              	.LFE15:
 2255              		.section	.text.R_BCD_LcdClearGraphicsBuffer,"ax",%progbits
 2256              		.align	2
 2257              		.global	R_BCD_LcdClearGraphicsBuffer
 2258              		.syntax unified
 2259              		.arm
 2260              		.fpu neon
 2262              	R_BCD_LcdClearGraphicsBuffer:
 2263              	.LFB16:
 745:../src/renesas/application/r_bcd_lcd.c **** 
 746:../src/renesas/application/r_bcd_lcd.c **** /******************************************************************************
 747:../src/renesas/application/r_bcd_lcd.c **** * Function Name: R_BCD_LcdClearGraphicsBuffer
 748:../src/renesas/application/r_bcd_lcd.c **** * Description  : Clear overlap buffer
 749:../src/renesas/application/r_bcd_lcd.c **** * Arguments    : -
 750:../src/renesas/application/r_bcd_lcd.c **** * Return Value : -
 751:../src/renesas/application/r_bcd_lcd.c **** ******************************************************************************/
 752:../src/renesas/application/r_bcd_lcd.c **** void R_BCD_LcdClearGraphicsBuffer(void)
 753:../src/renesas/application/r_bcd_lcd.c **** {
 2264              		.loc 1 753 0
 2265              		.cfi_startproc
 2266              		@ args = 0, pretend = 0, frame = 0
 2267              		@ frame_needed = 1, uses_anonymous_args = 0
 2268 0000 00482DE9 		push	{fp, lr}
 2269              		.cfi_def_cfa_offset 8
 2270              		.cfi_offset 11, -8
 2271              		.cfi_offset 14, -4
 2272 0004 04B08DE2 		add	fp, sp, #4
 2273              		.cfi_def_cfa 11, 4
 754:../src/renesas/application/r_bcd_lcd.c ****     memset(R_BCD_LcdGetOLVramAddress(), (int)0xffffffff, (GRAPHICS2_BUFFER_STRIDE * LAYER2_DISP_ARE
 2274              		.loc 1 754 0
 2275 0008 FEFFFFEB 		bl	R_BCD_LcdGetOLVramAddress
 2276 000c 0030A0E1 		mov	r3, r0
 2277 0010 462CA0E3 		mov	r2, #17920
 2278 0014 052040E3 		movt	r2, 5
 2279 0018 0010E0E3 		mvn	r1, #0
 2280 001c 0300A0E1 		mov	r0, r3
 2281 0020 FEFFFFEB 		bl	memset
 755:../src/renesas/application/r_bcd_lcd.c **** 
 756:../src/renesas/application/r_bcd_lcd.c ****     return;
 2282              		.loc 1 756 0
 2283 0024 00F020E3 		nop
 757:../src/renesas/application/r_bcd_lcd.c **** }
 2284              		.loc 1 757 0
 2285 0028 0088BDE8 		pop	{fp, pc}
 2286              		.cfi_endproc
 2287              	.LFE16:
 2289              		.section	.rodata.gam_r_gain.75366,"a",%progbits
 2290              		.align	2
 2293              	gam_r_gain.75366:
 2294 0000 0004     		.short	1024
 2295 0002 0004     		.short	1024
 2296 0004 0004     		.short	1024
 2297 0006 0004     		.short	1024
 2298 0008 0004     		.short	1024
 2299 000a 0004     		.short	1024
 2300 000c 0004     		.short	1024
 2301 000e 0004     		.short	1024
 2302 0010 0004     		.short	1024
 2303 0012 0004     		.short	1024
 2304 0014 0004     		.short	1024
 2305 0016 0004     		.short	1024
 2306 0018 0004     		.short	1024
 2307 001a 0004     		.short	1024
 2308 001c 0004     		.short	1024
 2309 001e 0004     		.short	1024
 2310 0020 0004     		.short	1024
 2311 0022 0004     		.short	1024
 2312 0024 0004     		.short	1024
 2313 0026 0004     		.short	1024
 2314 0028 0004     		.short	1024
 2315 002a 0004     		.short	1024
 2316 002c 0004     		.short	1024
 2317 002e 0004     		.short	1024
 2318 0030 0004     		.short	1024
 2319 0032 0004     		.short	1024
 2320 0034 0004     		.short	1024
 2321 0036 0004     		.short	1024
 2322 0038 0004     		.short	1024
 2323 003a 0004     		.short	1024
 2324 003c 0004     		.short	1024
 2325 003e 0004     		.short	1024
 2326              		.section	.rodata.gam_r_th.75367,"a",%progbits
 2327              		.align	2
 2330              	gam_r_th.75367:
 2331 0000 08       		.byte	8
 2332 0001 10       		.byte	16
 2333 0002 18       		.byte	24
 2334 0003 20       		.byte	32
 2335 0004 28       		.byte	40
 2336 0005 30       		.byte	48
 2337 0006 38       		.byte	56
 2338 0007 40       		.byte	64
 2339 0008 48       		.byte	72
 2340 0009 50       		.byte	80
 2341 000a 58       		.byte	88
 2342 000b 60       		.byte	96
 2343 000c 68       		.byte	104
 2344 000d 70       		.byte	112
 2345 000e 78       		.byte	120
 2346 000f 80       		.byte	-128
 2347 0010 88       		.byte	-120
 2348 0011 90       		.byte	-112
 2349 0012 98       		.byte	-104
 2350 0013 A0       		.byte	-96
 2351 0014 A8       		.byte	-88
 2352 0015 B0       		.byte	-80
 2353 0016 B8       		.byte	-72
 2354 0017 C0       		.byte	-64
 2355 0018 C8       		.byte	-56
 2356 0019 D0       		.byte	-48
 2357 001a D8       		.byte	-40
 2358 001b E0       		.byte	-32
 2359 001c E8       		.byte	-24
 2360 001d F0       		.byte	-16
 2361 001e F8       		.byte	-8
 2362              		.section	.rodata.gam_g_gain.75362,"a",%progbits
 2363              		.align	2
 2366              	gam_g_gain.75362:
 2367 0000 0004     		.short	1024
 2368 0002 0004     		.short	1024
 2369 0004 0004     		.short	1024
 2370 0006 0004     		.short	1024
 2371 0008 0004     		.short	1024
 2372 000a 0004     		.short	1024
 2373 000c 0004     		.short	1024
 2374 000e 0004     		.short	1024
 2375 0010 0004     		.short	1024
 2376 0012 0004     		.short	1024
 2377 0014 0004     		.short	1024
 2378 0016 0004     		.short	1024
 2379 0018 0004     		.short	1024
 2380 001a 0004     		.short	1024
 2381 001c 0004     		.short	1024
 2382 001e 0004     		.short	1024
 2383 0020 0004     		.short	1024
 2384 0022 0004     		.short	1024
 2385 0024 0004     		.short	1024
 2386 0026 0004     		.short	1024
 2387 0028 0004     		.short	1024
 2388 002a 0004     		.short	1024
 2389 002c 0004     		.short	1024
 2390 002e 0004     		.short	1024
 2391 0030 0004     		.short	1024
 2392 0032 0004     		.short	1024
 2393 0034 0004     		.short	1024
 2394 0036 0004     		.short	1024
 2395 0038 0004     		.short	1024
 2396 003a 0004     		.short	1024
 2397 003c 0004     		.short	1024
 2398 003e 0004     		.short	1024
 2399              		.section	.rodata.gam_g_th.75363,"a",%progbits
 2400              		.align	2
 2403              	gam_g_th.75363:
 2404 0000 08       		.byte	8
 2405 0001 10       		.byte	16
 2406 0002 18       		.byte	24
 2407 0003 20       		.byte	32
 2408 0004 28       		.byte	40
 2409 0005 30       		.byte	48
 2410 0006 38       		.byte	56
 2411 0007 40       		.byte	64
 2412 0008 48       		.byte	72
 2413 0009 50       		.byte	80
 2414 000a 58       		.byte	88
 2415 000b 60       		.byte	96
 2416 000c 68       		.byte	104
 2417 000d 70       		.byte	112
 2418 000e 78       		.byte	120
 2419 000f 80       		.byte	-128
 2420 0010 88       		.byte	-120
 2421 0011 90       		.byte	-112
 2422 0012 98       		.byte	-104
 2423 0013 A0       		.byte	-96
 2424 0014 A8       		.byte	-88
 2425 0015 B0       		.byte	-80
 2426 0016 B8       		.byte	-72
 2427 0017 C0       		.byte	-64
 2428 0018 C8       		.byte	-56
 2429 0019 D0       		.byte	-48
 2430 001a D8       		.byte	-40
 2431 001b E0       		.byte	-32
 2432 001c E8       		.byte	-24
 2433 001d F0       		.byte	-16
 2434 001e F8       		.byte	-8
 2435              		.section	.rodata.gam_b_gain.75364,"a",%progbits
 2436              		.align	2
 2439              	gam_b_gain.75364:
 2440 0000 0004     		.short	1024
 2441 0002 0004     		.short	1024
 2442 0004 0004     		.short	1024
 2443 0006 0004     		.short	1024
 2444 0008 0004     		.short	1024
 2445 000a 0004     		.short	1024
 2446 000c 0004     		.short	1024
 2447 000e 0004     		.short	1024
 2448 0010 0004     		.short	1024
 2449 0012 0004     		.short	1024
 2450 0014 0004     		.short	1024
 2451 0016 0004     		.short	1024
 2452 0018 0004     		.short	1024
 2453 001a 0004     		.short	1024
 2454 001c 0004     		.short	1024
 2455 001e 0004     		.short	1024
 2456 0020 0004     		.short	1024
 2457 0022 0004     		.short	1024
 2458 0024 0004     		.short	1024
 2459 0026 0004     		.short	1024
 2460 0028 0004     		.short	1024
 2461 002a 0004     		.short	1024
 2462 002c 0004     		.short	1024
 2463 002e 0004     		.short	1024
 2464 0030 0004     		.short	1024
 2465 0032 0004     		.short	1024
 2466 0034 0004     		.short	1024
 2467 0036 0004     		.short	1024
 2468 0038 0004     		.short	1024
 2469 003a 0004     		.short	1024
 2470 003c 0004     		.short	1024
 2471 003e 0004     		.short	1024
 2472              		.section	.rodata.gam_b_th.75365,"a",%progbits
 2473              		.align	2
 2476              	gam_b_th.75365:
 2477 0000 08       		.byte	8
 2478 0001 10       		.byte	16
 2479 0002 18       		.byte	24
 2480 0003 20       		.byte	32
 2481 0004 28       		.byte	40
 2482 0005 30       		.byte	48
 2483 0006 38       		.byte	56
 2484 0007 40       		.byte	64
 2485 0008 48       		.byte	72
 2486 0009 50       		.byte	80
 2487 000a 58       		.byte	88
 2488 000b 60       		.byte	96
 2489 000c 68       		.byte	104
 2490 000d 70       		.byte	112
 2491 000e 78       		.byte	120
 2492 000f 80       		.byte	-128
 2493 0010 88       		.byte	-120
 2494 0011 90       		.byte	-112
 2495 0012 98       		.byte	-104
 2496 0013 A0       		.byte	-96
 2497 0014 A8       		.byte	-88
 2498 0015 B0       		.byte	-80
 2499 0016 B8       		.byte	-72
 2500 0017 C0       		.byte	-64
 2501 0018 C8       		.byte	-56
 2502 0019 D0       		.byte	-48
 2503 001a D8       		.byte	-40
 2504 001b E0       		.byte	-32
 2505 001c E8       		.byte	-24
 2506 001d F0       		.byte	-16
 2507 001e F8       		.byte	-8
 2508              		.text
 2509              	.Letext0:
 2510              		.file 2 "c:\\program files (x86)\\gnu tools arm embedded\\7 2017-q4-major\\arm-none-eabi\\include\
 2511              		.file 3 "c:\\program files (x86)\\gnu tools arm embedded\\7 2017-q4-major\\arm-none-eabi\\include\
 2512              		.file 4 "c:\\program files (x86)\\gnu tools arm embedded\\7 2017-q4-major\\arm-none-eabi\\include\
 2513              		.file 5 "c:\\program files (x86)\\gnu tools arm embedded\\7 2017-q4-major\\lib\\gcc\\arm-none-eabi
 2514              		.file 6 "c:\\program files (x86)\\gnu tools arm embedded\\7 2017-q4-major\\arm-none-eabi\\include\
 2515              		.file 7 "c:\\program files (x86)\\gnu tools arm embedded\\7 2017-q4-major\\arm-none-eabi\\include\
 2516              		.file 8 "c:\\program files (x86)\\gnu tools arm embedded\\7 2017-q4-major\\arm-none-eabi\\include\
 2517              		.file 9 "D:\\Projects\\e2_studio\\RZ_A2M\\workspace\\Renesas_9.10_final\\bsp\\inc/r_typedefs.h"
 2518              		.file 10 "D:\\Projects\\e2_studio\\RZ_A2M\\workspace\\Renesas_9.10_final\\bsp\\src\\rza2\\generate
 2519              		.file 11 "D:\\Projects\\e2_studio\\RZ_A2M\\workspace\\Renesas_9.10_final\\bsp\\src\\rza2\\generate
 2520              		.file 12 "c:\\program files (x86)\\gnu tools arm embedded\\7 2017-q4-major\\arm-none-eabi\\include
 2521              		.file 13 "d:\\projects\\e2_studio\\rz_a2m\\workspace\\renesas_9.10_final\\bsp\\src\\rza2\\generate
 2522              		.file 14 "c:\\program files (x86)\\gnu tools arm embedded\\7 2017-q4-major\\arm-none-eabi\\include
 2523              		.file 15 "d:\\projects\\e2_studio\\rz_a2m\\workspace\\renesas_9.10_final\\bsp\\src\\rza2\\generate
 2524              		.file 16 "d:\\projects\\e2_studio\\rz_a2m\\workspace\\renesas_9.10_final\\bsp\\src\\rza2\\generate
 2525              		.file 17 "d:\\projects\\e2_studio\\rz_a2m\\workspace\\renesas_9.10_final\\bsp\\src\\rza2\\generate
 2526              		.file 18 "d:\\projects\\e2_studio\\rz_a2m\\workspace\\renesas_9.10_final\\bsp\\src\\rza2\\generate
 2527              		.file 19 "d:\\projects\\e2_studio\\rz_a2m\\workspace\\renesas_9.10_final\\bsp\\src\\rza2\\generate
 2528              		.file 20 "d:\\projects\\e2_studio\\rz_a2m\\workspace\\renesas_9.10_final\\bsp\\src\\rza2\\generate
 2529              		.file 21 "d:\\projects\\e2_studio\\rz_a2m\\workspace\\renesas_9.10_final\\bsp\\src\\rza2\\generate
 2530              		.file 22 "d:\\projects\\e2_studio\\rz_a2m\\workspace\\renesas_9.10_final\\bsp\\src\\rza2\\generate
 2531              		.file 23 "d:\\projects\\e2_studio\\rz_a2m\\workspace\\renesas_9.10_final\\bsp\\src\\rza2\\generate
 2532              		.file 24 "d:\\projects\\e2_studio\\rz_a2m\\workspace\\renesas_9.10_final\\bsp\\src\\rza2\\generate
 2533              		.file 25 "d:\\projects\\e2_studio\\rz_a2m\\workspace\\renesas_9.10_final\\bsp\\src\\rza2\\generate
 2534              		.file 26 "d:\\projects\\e2_studio\\rz_a2m\\workspace\\renesas_9.10_final\\bsp\\src\\rza2\\generate
 2535              		.file 27 "d:\\projects\\e2_studio\\rz_a2m\\workspace\\renesas_9.10_final\\bsp\\src\\rza2\\generate
 2536              		.file 28 "d:\\projects\\e2_studio\\rz_a2m\\workspace\\renesas_9.10_final\\bsp\\src\\rza2\\generate
 2537              		.file 29 "D:/Projects/e2_studio/RZ_A2M/workspace/Renesas_9.10_final/app/RZA2M_DRP_Benchmark/src/re
 2538              		.file 30 "D:/Projects/e2_studio/RZ_A2M/workspace/Renesas_9.10_final/app/RZA2M_DRP_Benchmark/src/re