   1              		.arch armv7-a
   2              		.eabi_attribute 28, 1
   3              		.eabi_attribute 20, 1
   4              		.eabi_attribute 21, 1
   5              		.eabi_attribute 23, 3
   6              		.eabi_attribute 24, 1
   7              		.eabi_attribute 25, 1
   8              		.eabi_attribute 26, 1
   9              		.eabi_attribute 30, 4
  10              		.eabi_attribute 34, 0
  11              		.eabi_attribute 18, 4
  12              		.file	"hwsetup.c"
  13              		.text
  14              	.Ltext0:
  15              		.cfi_sections	.debug_frame
  16              		.section	.text.R_SC_HardwareSetup,"ax",%progbits
  17              		.align	2
  18              		.global	R_SC_HardwareSetup
  19              		.arch armv7-a
  20              		.syntax unified
  21              		.arm
  22              		.fpu neon
  24              	R_SC_HardwareSetup:
  25              	.LFB3:
  26              		.file 1 "../generate/system/hwsetup.c"
   1:../generate/system/hwsetup.c **** /*******************************************************************************
   2:../generate/system/hwsetup.c **** * DISCLAIMER
   3:../generate/system/hwsetup.c **** * This software is supplied by Renesas Electronics Corporation and is only
   4:../generate/system/hwsetup.c **** * intended for use with Renesas products. No other uses are authorized. This
   5:../generate/system/hwsetup.c **** * software is owned by Renesas Electronics Corporation and is protected under
   6:../generate/system/hwsetup.c **** * all applicable laws, including copyright laws.
   7:../generate/system/hwsetup.c **** * THIS SOFTWARE IS PROVIDED "AS IS" AND RENESAS MAKES NO WARRANTIES REGARDING
   8:../generate/system/hwsetup.c **** * THIS SOFTWARE, WHETHER EXPRESS, IMPLIED OR STATUTORY, INCLUDING BUT NOT
   9:../generate/system/hwsetup.c **** * LIMITED TO WARRANTIES OF MERCHANTABILITY, FITNESS FOR A PARTICULAR PURPOSE
  10:../generate/system/hwsetup.c **** * AND NON-INFRINGEMENT. ALL SUCH WARRANTIES ARE EXPRESSLY DISCLAIMED.
  11:../generate/system/hwsetup.c **** * TO THE MAXIMUM EXTENT PERMITTED NOT PROHIBITED BY LAW, NEITHER RENESAS
  12:../generate/system/hwsetup.c **** * ELECTRONICS CORPORATION NOR ANY OF ITS AFFILIATED COMPANIES SHALL BE LIABLE
  13:../generate/system/hwsetup.c **** * FOR ANY DIRECT, INDIRECT, SPECIAL, INCIDENTAL OR CONSEQUENTIAL DAMAGES FOR
  14:../generate/system/hwsetup.c **** * ANY REASON RELATED TO THIS SOFTWARE, EVEN IF RENESAS OR ITS AFFILIATES HAVE
  15:../generate/system/hwsetup.c **** * BEEN ADVISED OF THE POSSIBILITY OF SUCH DAMAGES.
  16:../generate/system/hwsetup.c **** * Renesas reserves the right, without notice, to make changes to this software
  17:../generate/system/hwsetup.c **** * and to discontinue the availability of this software. By using this software,
  18:../generate/system/hwsetup.c **** * you agree to the additional terms and conditions found by accessing the
  19:../generate/system/hwsetup.c **** * following link:
  20:../generate/system/hwsetup.c **** * http://www.renesas.com/disclaimer
  21:../generate/system/hwsetup.c **** * Copyright (C) 2018 Renesas Electronics Corporation. All rights reserved.
  22:../generate/system/hwsetup.c **** *******************************************************************************/
  23:../generate/system/hwsetup.c **** /*******************************************************************************
  24:../generate/system/hwsetup.c **** * File Name    : hwsetup.c
  25:../generate/system/hwsetup.c **** * Device(s)    : RZ/A2M
  26:../generate/system/hwsetup.c **** * OS           : None
  27:../generate/system/hwsetup.c **** * H/W Platform : RZ/A2M Evaluation Board
  28:../generate/system/hwsetup.c **** * Description  : RZ/A2M Sample Program - FIT function of Hardware Setup
  29:../generate/system/hwsetup.c **** * Operation    :
  30:../generate/system/hwsetup.c **** * Limitations  :
  31:../generate/system/hwsetup.c **** *******************************************************************************/
  32:../generate/system/hwsetup.c **** 
  33:../generate/system/hwsetup.c **** /******************************************************************************
  34:../generate/system/hwsetup.c **** Includes   <System Includes> , "Project Includes"
  35:../generate/system/hwsetup.c **** ******************************************************************************/
  36:../generate/system/hwsetup.c **** #include "r_typedefs.h"
  37:../generate/system/hwsetup.c **** #include "r_cpg_drv_api.h"
  38:../generate/system/hwsetup.c **** #include "r_spibsc_lld_rza2m_api.h"
  39:../generate/system/hwsetup.c **** #include "hwsetup.h"
  40:../generate/system/hwsetup.c **** 
  41:../generate/system/hwsetup.c **** 
  42:../generate/system/hwsetup.c **** 
  43:../generate/system/hwsetup.c **** /******************************************************************************
  44:../generate/system/hwsetup.c **** Typedef definitions
  45:../generate/system/hwsetup.c **** ******************************************************************************/
  46:../generate/system/hwsetup.c **** 
  47:../generate/system/hwsetup.c **** 
  48:../generate/system/hwsetup.c **** /******************************************************************************
  49:../generate/system/hwsetup.c **** Macro definitions
  50:../generate/system/hwsetup.c **** ******************************************************************************/
  51:../generate/system/hwsetup.c **** #define SPIBSC_PRV_DDR_SETTING
  52:../generate/system/hwsetup.c **** 
  53:../generate/system/hwsetup.c **** 
  54:../generate/system/hwsetup.c **** /******************************************************************************
  55:../generate/system/hwsetup.c **** Imported global variables and functions (from other files)
  56:../generate/system/hwsetup.c **** ******************************************************************************/
  57:../generate/system/hwsetup.c **** 
  58:../generate/system/hwsetup.c **** 
  59:../generate/system/hwsetup.c **** /******************************************************************************
  60:../generate/system/hwsetup.c **** Exported global variables and functions (to be accessed by other files)
  61:../generate/system/hwsetup.c **** ******************************************************************************/
  62:../generate/system/hwsetup.c **** 
  63:../generate/system/hwsetup.c **** 
  64:../generate/system/hwsetup.c **** /******************************************************************************
  65:../generate/system/hwsetup.c **** Private global variables and functions
  66:../generate/system/hwsetup.c **** ******************************************************************************/
  67:../generate/system/hwsetup.c **** 
  68:../generate/system/hwsetup.c **** 
  69:../generate/system/hwsetup.c **** /******************************************************************************
  70:../generate/system/hwsetup.c **** * Function Name: R_SC_HardwareSetup
  71:../generate/system/hwsetup.c **** * Description  :
  72:../generate/system/hwsetup.c **** * Arguments    :
  73:../generate/system/hwsetup.c **** * Return Value :
  74:../generate/system/hwsetup.c **** ******************************************************************************/
  75:../generate/system/hwsetup.c **** void R_SC_HardwareSetup(void)
  76:../generate/system/hwsetup.c **** {
  27              		.loc 1 76 1 view -0
  28              		.cfi_startproc
  29              		@ args = 0, pretend = 0, frame = 8
  30              		@ frame_needed = 0, uses_anonymous_args = 0
  77:../generate/system/hwsetup.c **** 
  78:../generate/system/hwsetup.c **** #if 0 /* This code must to be run in internal RAM. */
  79:../generate/system/hwsetup.c ****     volatile uint16_t dummy_read_16;
  80:../generate/system/hwsetup.c **** 
  81:../generate/system/hwsetup.c ****     if( 1 == RZA_IO_RegRead_16(&CPG.DSFR, CPG_DSFR_IOKEEP_SHIFT,  CPG_DSFR_IOKEEP) )
  82:../generate/system/hwsetup.c ****     {
  83:../generate/system/hwsetup.c ****         RZA_IO_RegWrite_16(&CPG.DSFR, 0, CPG_DSFR_IOKEEP_SHIFT,  CPG_DSFR_IOKEEP);
  84:../generate/system/hwsetup.c ****         dummy_read_16 = CPG.DSFR;
  85:../generate/system/hwsetup.c ****     }
  86:../generate/system/hwsetup.c **** #endif
  87:../generate/system/hwsetup.c **** 
  88:../generate/system/hwsetup.c **** 
  89:../generate/system/hwsetup.c ****     /*    initialize SPIBSC,
  90:../generate/system/hwsetup.c ****      *    this speeds up SPIBSC in BOOT-TIME.
  91:../generate/system/hwsetup.c ****      */
  92:../generate/system/hwsetup.c **** 
  93:../generate/system/hwsetup.c ****         e_spibsc_err_t err;
  31              		.loc 1 93 9 view .LVU1
  94:../generate/system/hwsetup.c ****         st_spibsc_config_t  spibsc_config_tbl;
  32              		.loc 1 94 9 view .LVU2
  95:../generate/system/hwsetup.c **** 
  96:../generate/system/hwsetup.c ****         spibsc_config_tbl.flash_type = SPIBSC_FLASH_SPI;
  33              		.loc 1 96 9 view .LVU3
  97:../generate/system/hwsetup.c ****         spibsc_config_tbl.flash_num = SPIBSC_CMNCR_BSZ_SINGLE;
  34              		.loc 1 97 9 view .LVU4
  98:../generate/system/hwsetup.c ****         spibsc_config_tbl.flash_port_voltage = SPIBSC_PORT_VOLTAGE_3_3V;
  35              		.loc 1 98 9 view .LVU5
  76:../generate/system/hwsetup.c **** 
  36              		.loc 1 76 1 is_stmt 0 view .LVU6
  37 0000 37402DE9 		push	{r0, r1, r2, r4, r5, lr}
  38              		.cfi_def_cfa_offset 24
  39              		.cfi_offset 4, -12
  40              		.cfi_offset 5, -8
  41              		.cfi_offset 14, -4
  96:../generate/system/hwsetup.c ****         spibsc_config_tbl.flash_num = SPIBSC_CMNCR_BSZ_SINGLE;
  42              		.loc 1 96 38 view .LVU7
  43 0004 0040A0E3 		mov	r4, #0
  99:../generate/system/hwsetup.c **** 
 100:../generate/system/hwsetup.c **** 
 101:../generate/system/hwsetup.c **** 
 102:../generate/system/hwsetup.c ****          /* ==== SPIBSC initialize ==== */
 103:../generate/system/hwsetup.c ****         R_SPIBSC_Init( &spibsc_config_tbl );
  44              		.loc 1 103 9 view .LVU8
  45 0008 04008DE2 		add	r0, sp, #4
  96:../generate/system/hwsetup.c ****         spibsc_config_tbl.flash_num = SPIBSC_CMNCR_BSZ_SINGLE;
  46              		.loc 1 96 38 view .LVU9
  47 000c B440CDE1 		strh	r4, [sp, #4]	@ movhi
  98:../generate/system/hwsetup.c **** 
  48              		.loc 1 98 46 view .LVU10
  49 0010 0640CDE5 		strb	r4, [sp, #6]
  50              		.loc 1 103 9 is_stmt 1 view .LVU11
  51 0014 FEFFFFEB 		bl	R_SPIBSC_Init
  52              	.LVL0:
 104:../generate/system/hwsetup.c **** 
 105:../generate/system/hwsetup.c **** 
 106:../generate/system/hwsetup.c ****         /* Switch to manual operating mode */
 107:../generate/system/hwsetup.c ****         R_SPIBSC_ChangeMode(SPIBSC_MODE_MANUAL, SPIBSC_SDR_TRANSFER, 0);
  53              		.loc 1 107 9 view .LVU12
  54 0018 0420A0E1 		mov	r2, r4
  55 001c 0410A0E1 		mov	r1, r4
  56 0020 0400A0E1 		mov	r0, r4
  57 0024 FEFFFFEB 		bl	R_SPIBSC_ChangeMode
  58              	.LVL1:
 108:../generate/system/hwsetup.c **** 
 109:../generate/system/hwsetup.c **** #ifdef SPIBSC_PRV_DDR_SETTING
 110:../generate/system/hwsetup.c ****         /* Set Quad mode (DDR) */
 111:../generate/system/hwsetup.c ****         Userdef_SPIBSC_SFLASH_SetMode(SPIBSC_QE_ENABLE, SPIBSC_DDR_TRANSFER);
  59              		.loc 1 111 9 view .LVU13
  60 0028 0110A0E3 		mov	r1, #1
  61 002c 0100A0E1 		mov	r0, r1
  62 0030 FEFFFFEB 		bl	Userdef_SPIBSC_SFLASH_SetMode
  63              	.LVL2:
 112:../generate/system/hwsetup.c **** #else
 113:../generate/system/hwsetup.c ****         /* Set Quad mode (SDR) */
 114:../generate/system/hwsetup.c ****         Userdef_SPIBSC_SFLASH_SetMode(SPIBSC_QE_ENABLE, SPIBSC_SDR_TRANSFER);
 115:../generate/system/hwsetup.c **** #endif
 116:../generate/system/hwsetup.c **** 
 117:../generate/system/hwsetup.c **** 
 118:../generate/system/hwsetup.c ****         /* Switch Manual to XIP */
 119:../generate/system/hwsetup.c ****         /* Switch to External address space read mode */
 120:../generate/system/hwsetup.c **** #ifdef SPIBSC_PRV_DDR_SETTING
 121:../generate/system/hwsetup.c ****         R_SPIBSC_ChangeMode(SPIBSC_MODE_XIP, SPIBSC_DDR_TRANSFER, SFLASH_CMD_INDEX_XIP_4DTRD4B_EEH)
  64              		.loc 1 121 9 view .LVU14
  65 0034 0110A0E3 		mov	r1, #1
  66 0038 0420A0E1 		mov	r2, r4
  67 003c 0100A0E1 		mov	r0, r1
  68 0040 FEFFFFEB 		bl	R_SPIBSC_ChangeMode
  69              	.LVL3:
 122:../generate/system/hwsetup.c **** #else
 123:../generate/system/hwsetup.c ****         R_SPIBSC_ChangeMode(SPIBSC_MODE_XIP, SPIBSC_SDR_TRANSFER, SFLASH_CMD_INDEX_XIP_4READ4B_ECH)
 124:../generate/system/hwsetup.c **** #endif
 125:../generate/system/hwsetup.c **** 
 126:../generate/system/hwsetup.c **** 
 127:../generate/system/hwsetup.c **** 
 128:../generate/system/hwsetup.c **** 
 129:../generate/system/hwsetup.c ****     /*    Initialize clock pulse generator,
 130:../generate/system/hwsetup.c ****      *    this speeds up instruction clocks, etc.
 131:../generate/system/hwsetup.c ****      */
 132:../generate/system/hwsetup.c ****     R_CPG_InitialiseHwIf();
  70              		.loc 1 132 5 view .LVU15
  71 0044 FEFFFFEB 		bl	R_CPG_InitialiseHwIf
  72              	.LVL4:
 133:../generate/system/hwsetup.c **** 
 134:../generate/system/hwsetup.c **** #ifdef SPIBSC_PRV_DDR_SETTING
 135:../generate/system/hwsetup.c ****     /* SPIBSC Adjust Phy */
 136:../generate/system/hwsetup.c ****     if ( SPIBSC_FLASH_SPI == spibsc_config_tbl.flash_type )
  73              		.loc 1 136 5 view .LVU16
  74              		.loc 1 136 8 is_stmt 0 view .LVU17
  75 0048 0440DDE5 		ldrb	r4, [sp, #4]	@ zero_extendqisi2
  76 004c 000054E3 		cmp	r4, #0
  77 0050 0D00001A 		bne	.L1
 137:../generate/system/hwsetup.c ****     {
 138:../generate/system/hwsetup.c **** 
 139:../generate/system/hwsetup.c **** 
 140:../generate/system/hwsetup.c ****         /* Switch to manual operating mode */
 141:../generate/system/hwsetup.c ****         R_SPIBSC_ChangeMode(SPIBSC_MODE_MANUAL, SPIBSC_DDR_TRANSFER, 0);
  78              		.loc 1 141 9 is_stmt 1 view .LVU18
  79 0054 0420A0E1 		mov	r2, r4
  80 0058 0110A0E3 		mov	r1, #1
  81 005c 0400A0E1 		mov	r0, r4
  82 0060 FEFFFFEB 		bl	R_SPIBSC_ChangeMode
  83              	.LVL5:
 142:../generate/system/hwsetup.c **** 
 143:../generate/system/hwsetup.c ****         err = R_SPIBSC_AdjustPhy();
  84              		.loc 1 143 9 view .LVU19
  85              		.loc 1 143 15 is_stmt 0 view .LVU20
  86 0064 FEFFFFEB 		bl	R_SPIBSC_AdjustPhy
  87              	.LVL6:
 144:../generate/system/hwsetup.c **** 
 145:../generate/system/hwsetup.c ****         /* Switch Manual to XIP */
 146:../generate/system/hwsetup.c ****         /* Switch to External address space read mode */
 147:../generate/system/hwsetup.c ****         R_SPIBSC_ChangeMode(SPIBSC_MODE_XIP, SPIBSC_DDR_TRANSFER, SFLASH_CMD_INDEX_XIP_4DTRD4B_EEH)
  88              		.loc 1 147 9 view .LVU21
  89 0068 0110A0E3 		mov	r1, #1
 143:../generate/system/hwsetup.c **** 
  90              		.loc 1 143 15 view .LVU22
  91 006c 0050A0E1 		mov	r5, r0
  92              	.LVL7:
  93              		.loc 1 147 9 is_stmt 1 view .LVU23
  94 0070 0420A0E1 		mov	r2, r4
  95 0074 0100A0E1 		mov	r0, r1
  96 0078 FEFFFFEB 		bl	R_SPIBSC_ChangeMode
  97              	.LVL8:
 148:../generate/system/hwsetup.c ****         if ( 0 > err )
  98              		.loc 1 148 9 view .LVU24
  99              		.loc 1 148 12 is_stmt 0 view .LVU25
 100 007c 000055E3 		cmp	r5, #0
 101 0080 010000AA 		bge	.L1
 102              	.L3:
 149:../generate/system/hwsetup.c ****         {
 150:../generate/system/hwsetup.c ****             /* Stops program from running off */
 151:../generate/system/hwsetup.c ****             while(1)
 103              		.loc 1 151 13 is_stmt 1 discriminator 1 view .LVU26
 152:../generate/system/hwsetup.c ****             {
 153:../generate/system/hwsetup.c ****                 __asm__("nop");
 104              		.loc 1 153 17 discriminator 1 view .LVU27
 105              		.syntax divided
 106              	@ 153 "../generate/system/hwsetup.c" 1
 107 0084 00F020E3 		nop
 108              	@ 0 "" 2
 151:../generate/system/hwsetup.c ****             {
 109              		.loc 1 151 18 discriminator 1 view .LVU28
 110              		.arm
 111              		.syntax unified
 112 0088 FDFFFFEA 		b	.L3
 113              	.LVL9:
 114              	.L1:
 154:../generate/system/hwsetup.c ****             }
 155:../generate/system/hwsetup.c ****             
 156:../generate/system/hwsetup.c ****         }
 157:../generate/system/hwsetup.c ****     }
 158:../generate/system/hwsetup.c **** #endif
 159:../generate/system/hwsetup.c **** }
 115              		.loc 1 159 1 is_stmt 0 view .LVU29
 116 008c 0CD08DE2 		add	sp, sp, #12
 117              		.cfi_def_cfa_offset 12
 118              		@ sp needed
 119 0090 3080BDE8 		pop	{r4, r5, pc}
 120              		.cfi_endproc
 121              	.LFE3:
 123              		.text
 124              	.Letext0:
 125              		.file 2 "d:\\program files (x86)\\gnu arm embedded toolchain\\9 2020-q2-update\\arm-none-eabi\\inc
 126              		.file 3 "d:\\program files (x86)\\gnu arm embedded toolchain\\9 2020-q2-update\\arm-none-eabi\\inc
 127              		.file 4 "d:\\program files (x86)\\gnu arm embedded toolchain\\9 2020-q2-update\\lib\\gcc\\arm-none
 128              		.file 5 "d:\\program files (x86)\\gnu arm embedded toolchain\\9 2020-q2-update\\arm-none-eabi\\inc
 129              		.file 6 "d:\\program files (x86)\\gnu arm embedded toolchain\\9 2020-q2-update\\arm-none-eabi\\inc
 130              		.file 7 "d:\\program files (x86)\\gnu arm embedded toolchain\\9 2020-q2-update\\arm-none-eabi\\inc
 131              		.file 8 "d:\\program files (x86)\\gnu arm embedded toolchain\\9 2020-q2-update\\arm-none-eabi\\inc
 132              		.file 9 "D:/Projects/e2_studio/RZ_A2M/workspace/Renesas-9.9/Renesas-9.7-TrafficLight/bootloader/ge
 133              		.file 10 "d:\\program files (x86)\\gnu arm embedded toolchain\\9 2020-q2-update\\arm-none-eabi\\in
 134              		.file 11 "d:\\program files (x86)\\gnu arm embedded toolchain\\9 2020-q2-update\\arm-none-eabi\\in
 135              		.file 12 "D:/Projects/e2_studio/RZ_A2M/workspace/Renesas-9.9/Renesas-9.7-TrafficLight/bootloader/g
 136              		.file 13 "D:/Projects/e2_studio/RZ_A2M/workspace/Renesas-9.9/Renesas-9.7-TrafficLight/bootloader/g
 137              		.file 14 "D:/Projects/e2_studio/RZ_A2M/workspace/Renesas-9.9/Renesas-9.7-TrafficLight/bootloader/g
 138              		.file 15 "D:/Projects/e2_studio/RZ_A2M/workspace/Renesas-9.9/Renesas-9.7-TrafficLight/bootloader/g
 139              		.file 16 "D:/Projects/e2_studio/RZ_A2M/workspace/Renesas-9.9/Renesas-9.7-TrafficLight/bootloader/g
 140              		.file 17 "D:/Projects/e2_studio/RZ_A2M/workspace/Renesas-9.9/Renesas-9.7-TrafficLight/bootloader/g