   1              		.cpu cortex-a9
   2              		.eabi_attribute 28, 1
   3              		.eabi_attribute 20, 1
   4              		.eabi_attribute 21, 1
   5              		.eabi_attribute 23, 3
   6              		.eabi_attribute 24, 1
   7              		.eabi_attribute 25, 1
   8              		.eabi_attribute 26, 1
   9              		.eabi_attribute 30, 1
  10              		.eabi_attribute 34, 0
  11              		.eabi_attribute 18, 4
  12              		.file	"hwsetup.c"
  13              		.text
  14              	.Ltext0:
  15              		.cfi_sections	.debug_frame
  16              		.section	.text.R_SC_HardwareSetup,"ax",%progbits
  17              		.align	2
  18              		.global	R_SC_HardwareSetup
  19              		.syntax unified
  20              		.arm
  21              		.fpu neon
  23              	R_SC_HardwareSetup:
  24              	.LFB3:
  25              		.file 1 "../generate/system/hwsetup.c"
   1:../generate/system/hwsetup.c **** /*******************************************************************************
   2:../generate/system/hwsetup.c **** * DISCLAIMER
   3:../generate/system/hwsetup.c **** * This software is supplied by Renesas Electronics Corporation and is only
   4:../generate/system/hwsetup.c **** * intended for use with Renesas products. No other uses are authorized. This
   5:../generate/system/hwsetup.c **** * software is owned by Renesas Electronics Corporation and is protected under
   6:../generate/system/hwsetup.c **** * all applicable laws, including copyright laws.
   7:../generate/system/hwsetup.c **** * THIS SOFTWARE IS PROVIDED "AS IS" AND RENESAS MAKES NO WARRANTIES REGARDING
   8:../generate/system/hwsetup.c **** * THIS SOFTWARE, WHETHER EXPRESS, IMPLIED OR STATUTORY, INCLUDING BUT NOT
   9:../generate/system/hwsetup.c **** * LIMITED TO WARRANTIES OF MERCHANTABILITY, FITNESS FOR A PARTICULAR PURPOSE
  10:../generate/system/hwsetup.c **** * AND NON-INFRINGEMENT. ALL SUCH WARRANTIES ARE EXPRESSLY DISCLAIMED.
  11:../generate/system/hwsetup.c **** * TO THE MAXIMUM EXTENT PERMITTED NOT PROHIBITED BY LAW, NEITHER RENESAS
  12:../generate/system/hwsetup.c **** * ELECTRONICS CORPORATION NOR ANY OF ITS AFFILIATED COMPANIES SHALL BE LIABLE
  13:../generate/system/hwsetup.c **** * FOR ANY DIRECT, INDIRECT, SPECIAL, INCIDENTAL OR CONSEQUENTIAL DAMAGES FOR
  14:../generate/system/hwsetup.c **** * ANY REASON RELATED TO THIS SOFTWARE, EVEN IF RENESAS OR ITS AFFILIATES HAVE
  15:../generate/system/hwsetup.c **** * BEEN ADVISED OF THE POSSIBILITY OF SUCH DAMAGES.
  16:../generate/system/hwsetup.c **** * Renesas reserves the right, without notice, to make changes to this software
  17:../generate/system/hwsetup.c **** * and to discontinue the availability of this software. By using this software,
  18:../generate/system/hwsetup.c **** * you agree to the additional terms and conditions found by accessing the
  19:../generate/system/hwsetup.c **** * following link:
  20:../generate/system/hwsetup.c **** * http://www.renesas.com/disclaimer
  21:../generate/system/hwsetup.c **** * Copyright (C) 2018 Renesas Electronics Corporation. All rights reserved.
  22:../generate/system/hwsetup.c **** *******************************************************************************/
  23:../generate/system/hwsetup.c **** /*******************************************************************************
  24:../generate/system/hwsetup.c **** * File Name    : hwsetup.c
  25:../generate/system/hwsetup.c **** * Device(s)    : RZ/A2M
  26:../generate/system/hwsetup.c **** * OS           : None
  27:../generate/system/hwsetup.c **** * H/W Platform : RZ/A2M Evaluation Board
  28:../generate/system/hwsetup.c **** * Description  : RZ/A2M Sample Program - FIT function of Hardware Setup
  29:../generate/system/hwsetup.c **** * Operation    :
  30:../generate/system/hwsetup.c **** * Limitations  :
  31:../generate/system/hwsetup.c **** *******************************************************************************/
  32:../generate/system/hwsetup.c **** 
  33:../generate/system/hwsetup.c **** /******************************************************************************
  34:../generate/system/hwsetup.c **** Includes   <System Includes> , "Project Includes"
  35:../generate/system/hwsetup.c **** ******************************************************************************/
  36:../generate/system/hwsetup.c **** #include "r_typedefs.h"
  37:../generate/system/hwsetup.c **** #include "r_cpg_drv_api.h"
  38:../generate/system/hwsetup.c **** #include "r_spibsc_lld_rza2m_api.h"
  39:../generate/system/hwsetup.c **** #include "hwsetup.h"
  40:../generate/system/hwsetup.c **** 
  41:../generate/system/hwsetup.c **** 
  42:../generate/system/hwsetup.c **** 
  43:../generate/system/hwsetup.c **** /******************************************************************************
  44:../generate/system/hwsetup.c **** Typedef definitions
  45:../generate/system/hwsetup.c **** ******************************************************************************/
  46:../generate/system/hwsetup.c **** 
  47:../generate/system/hwsetup.c **** 
  48:../generate/system/hwsetup.c **** /******************************************************************************
  49:../generate/system/hwsetup.c **** Macro definitions
  50:../generate/system/hwsetup.c **** ******************************************************************************/
  51:../generate/system/hwsetup.c **** #define SPIBSC_PRV_DDR_SETTING
  52:../generate/system/hwsetup.c **** 
  53:../generate/system/hwsetup.c **** 
  54:../generate/system/hwsetup.c **** /******************************************************************************
  55:../generate/system/hwsetup.c **** Imported global variables and functions (from other files)
  56:../generate/system/hwsetup.c **** ******************************************************************************/
  57:../generate/system/hwsetup.c **** 
  58:../generate/system/hwsetup.c **** 
  59:../generate/system/hwsetup.c **** /******************************************************************************
  60:../generate/system/hwsetup.c **** Exported global variables and functions (to be accessed by other files)
  61:../generate/system/hwsetup.c **** ******************************************************************************/
  62:../generate/system/hwsetup.c **** 
  63:../generate/system/hwsetup.c **** 
  64:../generate/system/hwsetup.c **** /******************************************************************************
  65:../generate/system/hwsetup.c **** Private global variables and functions
  66:../generate/system/hwsetup.c **** ******************************************************************************/
  67:../generate/system/hwsetup.c **** 
  68:../generate/system/hwsetup.c **** 
  69:../generate/system/hwsetup.c **** /******************************************************************************
  70:../generate/system/hwsetup.c **** * Function Name: R_SC_HardwareSetup
  71:../generate/system/hwsetup.c **** * Description  :
  72:../generate/system/hwsetup.c **** * Arguments    :
  73:../generate/system/hwsetup.c **** * Return Value :
  74:../generate/system/hwsetup.c **** ******************************************************************************/
  75:../generate/system/hwsetup.c **** void R_SC_HardwareSetup(void)
  76:../generate/system/hwsetup.c **** {
  26              		.loc 1 76 0
  27              		.cfi_startproc
  28              		@ args = 0, pretend = 0, frame = 8
  29              		@ frame_needed = 0, uses_anonymous_args = 0
  30 0000 10402DE9 		push	{r4, lr}
  31              		.cfi_def_cfa_offset 8
  32              		.cfi_offset 4, -8
  33              		.cfi_offset 14, -4
  34 0004 08D04DE2 		sub	sp, sp, #8
  35              		.cfi_def_cfa_offset 16
  77:../generate/system/hwsetup.c **** 
  78:../generate/system/hwsetup.c **** #if 0 /* This code must to be run in internal RAM. */
  79:../generate/system/hwsetup.c ****     volatile uint16_t dummy_read_16;
  80:../generate/system/hwsetup.c **** 
  81:../generate/system/hwsetup.c ****     if( 1 == RZA_IO_RegRead_16(&CPG.DSFR, CPG_DSFR_IOKEEP_SHIFT,  CPG_DSFR_IOKEEP) )
  82:../generate/system/hwsetup.c ****     {
  83:../generate/system/hwsetup.c ****         RZA_IO_RegWrite_16(&CPG.DSFR, 0, CPG_DSFR_IOKEEP_SHIFT,  CPG_DSFR_IOKEEP);
  84:../generate/system/hwsetup.c ****         dummy_read_16 = CPG.DSFR;
  85:../generate/system/hwsetup.c ****     }
  86:../generate/system/hwsetup.c **** #endif
  87:../generate/system/hwsetup.c **** 
  88:../generate/system/hwsetup.c **** 
  89:../generate/system/hwsetup.c ****     /*    initialize SPIBSC,
  90:../generate/system/hwsetup.c ****      *    this speeds up SPIBSC in BOOT-TIME.
  91:../generate/system/hwsetup.c ****      */
  92:../generate/system/hwsetup.c **** 
  93:../generate/system/hwsetup.c ****         e_spibsc_err_t err;
  94:../generate/system/hwsetup.c ****         st_spibsc_config_t  spibsc_config_tbl;
  95:../generate/system/hwsetup.c **** 
  96:../generate/system/hwsetup.c ****         spibsc_config_tbl.flash_type = SPIBSC_FLASH_SPI;
  36              		.loc 1 96 0
  37 0008 0040A0E3 		mov	r4, #0
  38 000c 0440CDE5 		strb	r4, [sp, #4]
  97:../generate/system/hwsetup.c ****         spibsc_config_tbl.flash_num = SPIBSC_CMNCR_BSZ_SINGLE;
  39              		.loc 1 97 0
  40 0010 0540CDE5 		strb	r4, [sp, #5]
  98:../generate/system/hwsetup.c ****         spibsc_config_tbl.flash_port_voltage = SPIBSC_PORT_VOLTAGE_3_3V;
  41              		.loc 1 98 0
  42 0014 0640CDE5 		strb	r4, [sp, #6]
  99:../generate/system/hwsetup.c **** 
 100:../generate/system/hwsetup.c **** 
 101:../generate/system/hwsetup.c **** 
 102:../generate/system/hwsetup.c ****          /* ==== SPIBSC initialize ==== */
 103:../generate/system/hwsetup.c ****         R_SPIBSC_Init( &spibsc_config_tbl );
  43              		.loc 1 103 0
  44 0018 04008DE2 		add	r0, sp, #4
  45 001c FEFFFFEB 		bl	R_SPIBSC_Init
  46              	.LVL0:
 104:../generate/system/hwsetup.c **** 
 105:../generate/system/hwsetup.c **** 
 106:../generate/system/hwsetup.c ****         /* Switch to manual operating mode */
 107:../generate/system/hwsetup.c ****         R_SPIBSC_ChangeMode(SPIBSC_MODE_MANUAL, SPIBSC_SDR_TRANSFER, 0);
  47              		.loc 1 107 0
  48 0020 0420A0E1 		mov	r2, r4
  49 0024 0410A0E1 		mov	r1, r4
  50 0028 0400A0E1 		mov	r0, r4
  51 002c FEFFFFEB 		bl	R_SPIBSC_ChangeMode
  52              	.LVL1:
 108:../generate/system/hwsetup.c **** 
 109:../generate/system/hwsetup.c **** #ifdef SPIBSC_PRV_DDR_SETTING
 110:../generate/system/hwsetup.c ****         /* Set Quad mode (DDR) */
 111:../generate/system/hwsetup.c ****         Userdef_SPIBSC_SFLASH_SetMode(SPIBSC_QE_ENABLE, SPIBSC_DDR_TRANSFER);
  53              		.loc 1 111 0
  54 0030 0110A0E3 		mov	r1, #1
  55 0034 0100A0E1 		mov	r0, r1
  56 0038 FEFFFFEB 		bl	Userdef_SPIBSC_SFLASH_SetMode
  57              	.LVL2:
 112:../generate/system/hwsetup.c **** #else
 113:../generate/system/hwsetup.c ****         /* Set Quad mode (SDR) */
 114:../generate/system/hwsetup.c ****         Userdef_SPIBSC_SFLASH_SetMode(SPIBSC_QE_ENABLE, SPIBSC_SDR_TRANSFER);
 115:../generate/system/hwsetup.c **** #endif
 116:../generate/system/hwsetup.c **** 
 117:../generate/system/hwsetup.c **** 
 118:../generate/system/hwsetup.c ****         /* Switch Manual to XIP */
 119:../generate/system/hwsetup.c ****         /* Switch to External address space read mode */
 120:../generate/system/hwsetup.c **** #ifdef SPIBSC_PRV_DDR_SETTING
 121:../generate/system/hwsetup.c ****         R_SPIBSC_ChangeMode(SPIBSC_MODE_XIP, SPIBSC_DDR_TRANSFER, SFLASH_CMD_INDEX_XIP_4DTRD4B_EEH)
  58              		.loc 1 121 0
  59 003c 0420A0E1 		mov	r2, r4
  60 0040 0110A0E3 		mov	r1, #1
  61 0044 0100A0E1 		mov	r0, r1
  62 0048 FEFFFFEB 		bl	R_SPIBSC_ChangeMode
  63              	.LVL3:
 122:../generate/system/hwsetup.c **** #else
 123:../generate/system/hwsetup.c ****         R_SPIBSC_ChangeMode(SPIBSC_MODE_XIP, SPIBSC_SDR_TRANSFER, SFLASH_CMD_INDEX_XIP_4READ4B_ECH)
 124:../generate/system/hwsetup.c **** #endif
 125:../generate/system/hwsetup.c **** 
 126:../generate/system/hwsetup.c **** 
 127:../generate/system/hwsetup.c **** 
 128:../generate/system/hwsetup.c **** 
 129:../generate/system/hwsetup.c ****     /*    Initialize clock pulse generator,
 130:../generate/system/hwsetup.c ****      *    this speeds up instruction clocks, etc.
 131:../generate/system/hwsetup.c ****      */
 132:../generate/system/hwsetup.c ****     R_CPG_InitialiseHwIf();
  64              		.loc 1 132 0
  65 004c FEFFFFEB 		bl	R_CPG_InitialiseHwIf
  66              	.LVL4:
 133:../generate/system/hwsetup.c **** 
 134:../generate/system/hwsetup.c **** #ifdef SPIBSC_PRV_DDR_SETTING
 135:../generate/system/hwsetup.c ****     /* SPIBSC Adjust Phy */
 136:../generate/system/hwsetup.c ****     if ( SPIBSC_FLASH_SPI == spibsc_config_tbl.flash_type )
  67              		.loc 1 136 0
  68 0050 0430DDE5 		ldrb	r3, [sp, #4]	@ zero_extendqisi2
  69 0054 040053E1 		cmp	r3, r4
  70 0058 0100000A 		beq	.L5
  71              	.L1:
 137:../generate/system/hwsetup.c ****     {
 138:../generate/system/hwsetup.c **** 
 139:../generate/system/hwsetup.c **** 
 140:../generate/system/hwsetup.c ****         /* Switch to manual operating mode */
 141:../generate/system/hwsetup.c ****         R_SPIBSC_ChangeMode(SPIBSC_MODE_MANUAL, SPIBSC_DDR_TRANSFER, 0);
 142:../generate/system/hwsetup.c **** 
 143:../generate/system/hwsetup.c ****         err = R_SPIBSC_AdjustPhy();
 144:../generate/system/hwsetup.c **** 
 145:../generate/system/hwsetup.c ****         /* Switch Manual to XIP */
 146:../generate/system/hwsetup.c ****         /* Switch to External address space read mode */
 147:../generate/system/hwsetup.c ****         R_SPIBSC_ChangeMode(SPIBSC_MODE_XIP, SPIBSC_DDR_TRANSFER, SFLASH_CMD_INDEX_XIP_4DTRD4B_EEH)
 148:../generate/system/hwsetup.c ****         if ( 0 > err )
 149:../generate/system/hwsetup.c ****         {
 150:../generate/system/hwsetup.c ****             /* Stops program from running off */
 151:../generate/system/hwsetup.c ****             while(1)
 152:../generate/system/hwsetup.c ****             {
 153:../generate/system/hwsetup.c ****                 __asm__("nop");
 154:../generate/system/hwsetup.c ****             }
 155:../generate/system/hwsetup.c ****             
 156:../generate/system/hwsetup.c ****         }
 157:../generate/system/hwsetup.c ****     }
 158:../generate/system/hwsetup.c **** #endif
 159:../generate/system/hwsetup.c **** }
  72              		.loc 1 159 0
  73 005c 08D08DE2 		add	sp, sp, #8
  74              		.cfi_remember_state
  75              		.cfi_def_cfa_offset 8
  76              		@ sp needed
  77 0060 1080BDE8 		pop	{r4, pc}
  78              	.L5:
  79              		.cfi_restore_state
 141:../generate/system/hwsetup.c **** 
  80              		.loc 1 141 0
  81 0064 0420A0E1 		mov	r2, r4
  82 0068 0110A0E3 		mov	r1, #1
  83 006c 0400A0E1 		mov	r0, r4
  84 0070 FEFFFFEB 		bl	R_SPIBSC_ChangeMode
  85              	.LVL5:
 143:../generate/system/hwsetup.c **** 
  86              		.loc 1 143 0
  87 0074 FEFFFFEB 		bl	R_SPIBSC_AdjustPhy
  88              	.LVL6:
  89 0078 0040A0E1 		mov	r4, r0
  90              	.LVL7:
 147:../generate/system/hwsetup.c ****         if ( 0 > err )
  91              		.loc 1 147 0
  92 007c 0020A0E3 		mov	r2, #0
  93 0080 0110A0E3 		mov	r1, #1
  94 0084 0100A0E1 		mov	r0, r1
  95 0088 FEFFFFEB 		bl	R_SPIBSC_ChangeMode
  96              	.LVL8:
 148:../generate/system/hwsetup.c ****         {
  97              		.loc 1 148 0
  98 008c 000054E3 		cmp	r4, #0
  99 0090 F1FFFFAA 		bge	.L1
 100              	.L3:
 153:../generate/system/hwsetup.c ****             }
 101              		.loc 1 153 0 discriminator 1
 102              		.syntax divided
 103              	@ 153 "../generate/system/hwsetup.c" 1
 104 0094 00F020E3 		nop
 105              	@ 0 "" 2
 106              		.arm
 107              		.syntax unified
 108 0098 FDFFFFEA 		b	.L3
 109              		.cfi_endproc
 110              	.LFE3:
 112              		.text
 113              	.Letext0:
 114              		.file 2 "c:\\program files (x86)\\gnu tools arm embedded\\7 2017-q4-major\\arm-none-eabi\\include\
 115              		.file 3 "c:\\program files (x86)\\gnu tools arm embedded\\7 2017-q4-major\\arm-none-eabi\\include\
 116              		.file 4 "c:\\program files (x86)\\gnu tools arm embedded\\7 2017-q4-major\\arm-none-eabi\\include\
 117              		.file 5 "c:\\program files (x86)\\gnu tools arm embedded\\7 2017-q4-major\\arm-none-eabi\\include\
 118              		.file 6 "c:\\program files (x86)\\gnu tools arm embedded\\7 2017-q4-major\\lib\\gcc\\arm-none-eabi
 119              		.file 7 "c:\\program files (x86)\\gnu tools arm embedded\\7 2017-q4-major\\arm-none-eabi\\include\
 120              		.file 8 "c:\\program files (x86)\\gnu tools arm embedded\\7 2017-q4-major\\arm-none-eabi\\include\
 121              		.file 9 "D:/Project/e2_studio/workspace2/RZA2M_DRP_Benchmark_V1.0.0/RZA2M_DRP_Benchmark_V1.0.0/boo
 122              		.file 10 "c:\\program files (x86)\\gnu tools arm embedded\\7 2017-q4-major\\arm-none-eabi\\include
 123              		.file 11 "c:\\program files (x86)\\gnu tools arm embedded\\7 2017-q4-major\\arm-none-eabi\\include
 124              		.file 12 "D:/Project/e2_studio/workspace2/RZA2M_DRP_Benchmark_V1.0.0/RZA2M_DRP_Benchmark_V1.0.0/bo
 125              		.file 13 "D:/Project/e2_studio/workspace2/RZA2M_DRP_Benchmark_V1.0.0/RZA2M_DRP_Benchmark_V1.0.0/bo
 126              		.file 14 "D:/Project/e2_studio/workspace2/RZA2M_DRP_Benchmark_V1.0.0/RZA2M_DRP_Benchmark_V1.0.0/bo
 127              		.file 15 "D:/Project/e2_studio/workspace2/RZA2M_DRP_Benchmark_V1.0.0/RZA2M_DRP_Benchmark_V1.0.0/bo
 128              		.file 16 "D:/Project/e2_studio/workspace2/RZA2M_DRP_Benchmark_V1.0.0/RZA2M_DRP_Benchmark_V1.0.0/bo
 129              		.file 17 "D:/Project/e2_studio/workspace2/RZA2M_DRP_Benchmark_V1.0.0/RZA2M_DRP_Benchmark_V1.0.0/bo