   1              		.cpu cortex-a9
   2              		.eabi_attribute 28, 1
   3              		.eabi_attribute 20, 1
   4              		.eabi_attribute 21, 1
   5              		.eabi_attribute 23, 3
   6              		.eabi_attribute 24, 1
   7              		.eabi_attribute 25, 1
   8              		.eabi_attribute 26, 1
   9              		.eabi_attribute 30, 1
  10              		.eabi_attribute 34, 0
  11              		.eabi_attribute 18, 4
  12              		.file	"r_spibsc_lld_rza2m.c"
  13              		.text
  14              	.Ltext0:
  15              		.cfi_sections	.debug_frame
  16              		.section	.text.spibsc_io_reg_write_8,"ax",%progbits
  17              		.align	2
  18              		.syntax unified
  19              		.arm
  20              		.fpu neon
  22              	spibsc_io_reg_write_8:
  23              	.LFB0:
  24              		.file 1 "../generate/drivers/r_spibsc/src/lld/r_spibsc_lld_rza2m.c"
   1:../generate/drivers/r_spibsc/src/lld/r_spibsc_lld_rza2m.c **** /*******************************************************************************
   2:../generate/drivers/r_spibsc/src/lld/r_spibsc_lld_rza2m.c **** * DISCLAIMER
   3:../generate/drivers/r_spibsc/src/lld/r_spibsc_lld_rza2m.c **** * This software is supplied by Renesas Electronics Corporation and is only
   4:../generate/drivers/r_spibsc/src/lld/r_spibsc_lld_rza2m.c **** * intended for use with Renesas products. No other uses are authorized. This
   5:../generate/drivers/r_spibsc/src/lld/r_spibsc_lld_rza2m.c **** * software is owned by Renesas Electronics Corporation and is protected under
   6:../generate/drivers/r_spibsc/src/lld/r_spibsc_lld_rza2m.c **** * all applicable laws, including copyright laws.
   7:../generate/drivers/r_spibsc/src/lld/r_spibsc_lld_rza2m.c **** * THIS SOFTWARE IS PROVIDED "AS IS" AND RENESAS MAKES NO WARRANTIES REGARDING
   8:../generate/drivers/r_spibsc/src/lld/r_spibsc_lld_rza2m.c **** * THIS SOFTWARE, WHETHER EXPRESS, IMPLIED OR STATUTORY, INCLUDING BUT NOT
   9:../generate/drivers/r_spibsc/src/lld/r_spibsc_lld_rza2m.c **** * LIMITED TO WARRANTIES OF MERCHANTABILITY, FITNESS FOR A PARTICULAR PURPOSE
  10:../generate/drivers/r_spibsc/src/lld/r_spibsc_lld_rza2m.c **** * AND NON-INFRINGEMENT. ALL SUCH WARRANTIES ARE EXPRESSLY DISCLAIMED.
  11:../generate/drivers/r_spibsc/src/lld/r_spibsc_lld_rza2m.c **** * TO THE MAXIMUM EXTENT PERMITTED NOT PROHIBITED BY LAW, NEITHER RENESAS
  12:../generate/drivers/r_spibsc/src/lld/r_spibsc_lld_rza2m.c **** * ELECTRONICS CORPORATION NOR ANY OF ITS AFFILIATED COMPANIES SHALL BE LIABLE
  13:../generate/drivers/r_spibsc/src/lld/r_spibsc_lld_rza2m.c **** * FOR ANY DIRECT, INDIRECT, SPECIAL, INCIDENTAL OR CONSEQUENTIAL DAMAGES FOR
  14:../generate/drivers/r_spibsc/src/lld/r_spibsc_lld_rza2m.c **** * ANY REASON RELATED TO THIS SOFTWARE, EVEN IF RENESAS OR ITS AFFILIATES HAVE
  15:../generate/drivers/r_spibsc/src/lld/r_spibsc_lld_rza2m.c **** * BEEN ADVISED OF THE POSSIBILITY OF SUCH DAMAGES.
  16:../generate/drivers/r_spibsc/src/lld/r_spibsc_lld_rza2m.c **** * Renesas reserves the right, without notice, to make changes to this software
  17:../generate/drivers/r_spibsc/src/lld/r_spibsc_lld_rza2m.c **** * and to discontinue the availability of this software. By using this software,
  18:../generate/drivers/r_spibsc/src/lld/r_spibsc_lld_rza2m.c **** * you agree to the additional terms and conditions found by accessing the
  19:../generate/drivers/r_spibsc/src/lld/r_spibsc_lld_rza2m.c **** * following link:
  20:../generate/drivers/r_spibsc/src/lld/r_spibsc_lld_rza2m.c **** * http://www.renesas.com/disclaimer
  21:../generate/drivers/r_spibsc/src/lld/r_spibsc_lld_rza2m.c **** * Copyright (C) 2018 Renesas Electronics Corporation. All rights reserved.
  22:../generate/drivers/r_spibsc/src/lld/r_spibsc_lld_rza2m.c **** *******************************************************************************/
  23:../generate/drivers/r_spibsc/src/lld/r_spibsc_lld_rza2m.c **** /*******************************************************************************
  24:../generate/drivers/r_spibsc/src/lld/r_spibsc_lld_rza2m.c **** * File Name    : r_spibsc_lld_rza2m.c
  25:../generate/drivers/r_spibsc/src/lld/r_spibsc_lld_rza2m.c **** * $Rev: 759 $
  26:../generate/drivers/r_spibsc/src/lld/r_spibsc_lld_rza2m.c **** * $Date:: 2018-12-07 17:14:08 +0900#$
  27:../generate/drivers/r_spibsc/src/lld/r_spibsc_lld_rza2m.c **** * Device(s)    : RZ/A2M
  28:../generate/drivers/r_spibsc/src/lld/r_spibsc_lld_rza2m.c **** * OS           : None
  29:../generate/drivers/r_spibsc/src/lld/r_spibsc_lld_rza2m.c **** * H/W Platform : RZ/A2M Board
  30:../generate/drivers/r_spibsc/src/lld/r_spibsc_lld_rza2m.c **** * Description  : RZ/A2M Sample Program - API function of SPIBSC module
  31:../generate/drivers/r_spibsc/src/lld/r_spibsc_lld_rza2m.c **** * Operation    :
  32:../generate/drivers/r_spibsc/src/lld/r_spibsc_lld_rza2m.c **** * Limitations  :
  33:../generate/drivers/r_spibsc/src/lld/r_spibsc_lld_rza2m.c **** *******************************************************************************/
  34:../generate/drivers/r_spibsc/src/lld/r_spibsc_lld_rza2m.c **** 
  35:../generate/drivers/r_spibsc/src/lld/r_spibsc_lld_rza2m.c **** /******************************************************************************
  36:../generate/drivers/r_spibsc/src/lld/r_spibsc_lld_rza2m.c **** Includes   <System Includes> , "Project Includes"
  37:../generate/drivers/r_spibsc/src/lld/r_spibsc_lld_rza2m.c **** ******************************************************************************/
  38:../generate/drivers/r_spibsc/src/lld/r_spibsc_lld_rza2m.c **** #include "r_spibsc_lld_rza2m_reg.h"
  39:../generate/drivers/r_spibsc/src/lld/r_spibsc_lld_rza2m.c **** #include "r_spibsc_lld_rza2m_api.h"
  40:../generate/drivers/r_spibsc/src/lld/r_spibsc_lld_rza2m.c **** #include "r_spibsc_drv_sc_cfg.h"
  41:../generate/drivers/r_spibsc/src/lld/r_spibsc_lld_rza2m.c **** #include "r_spibsc_adjust_timing_data.h"
  42:../generate/drivers/r_spibsc/src/lld/r_spibsc_lld_rza2m.c **** 
  43:../generate/drivers/r_spibsc/src/lld/r_spibsc_lld_rza2m.c **** #include "iobitmask.h"
  44:../generate/drivers/r_spibsc/src/lld/r_spibsc_lld_rza2m.c **** #include "rza_io_regrw.h"
  45:../generate/drivers/r_spibsc/src/lld/r_spibsc_lld_rza2m.c **** #include "r_typedefs.h"
  46:../generate/drivers/r_spibsc/src/lld/r_spibsc_lld_rza2m.c **** 
  47:../generate/drivers/r_spibsc/src/lld/r_spibsc_lld_rza2m.c **** /******************************************************************************
  48:../generate/drivers/r_spibsc/src/lld/r_spibsc_lld_rza2m.c **** Macro definitions
  49:../generate/drivers/r_spibsc/src/lld/r_spibsc_lld_rza2m.c **** ******************************************************************************/
  50:../generate/drivers/r_spibsc/src/lld/r_spibsc_lld_rza2m.c **** /*! PHY Adjust */
  51:../generate/drivers/r_spibsc/src/lld/r_spibsc_lld_rza2m.c **** #define SPIBSC_PRV_PHYADJ_MAX (13)
  52:../generate/drivers/r_spibsc/src/lld/r_spibsc_lld_rza2m.c **** #define SPIBSC_PRV_RESULT_OK (1)
  53:../generate/drivers/r_spibsc/src/lld/r_spibsc_lld_rza2m.c **** #define SPIBSC_PRV_RESULT_NG (0)
  54:../generate/drivers/r_spibsc/src/lld/r_spibsc_lld_rza2m.c **** 
  55:../generate/drivers/r_spibsc/src/lld/r_spibsc_lld_rza2m.c **** /******************************************************************************
  56:../generate/drivers/r_spibsc/src/lld/r_spibsc_lld_rza2m.c **** Typedef definitions
  57:../generate/drivers/r_spibsc/src/lld/r_spibsc_lld_rza2m.c **** ******************************************************************************/
  58:../generate/drivers/r_spibsc/src/lld/r_spibsc_lld_rza2m.c **** /*! PHY Adjust */
  59:../generate/drivers/r_spibsc/src/lld/r_spibsc_lld_rza2m.c **** typedef struct r_drv_spibsc_phy_adj_t
  60:../generate/drivers/r_spibsc/src/lld/r_spibsc_lld_rza2m.c **** {
  61:../generate/drivers/r_spibsc/src/lld/r_spibsc_lld_rza2m.c ****     uint8_t xy; /*!< SPIBSC Phy Adj2 Data */
  62:../generate/drivers/r_spibsc/src/lld/r_spibsc_lld_rza2m.c ****     uint8_t zz; /*!< SPIBSC PhyCnt cksel Data */
  63:../generate/drivers/r_spibsc/src/lld/r_spibsc_lld_rza2m.c **** } st_r_drv_spibsc_phy_adj_t;
  64:../generate/drivers/r_spibsc/src/lld/r_spibsc_lld_rza2m.c **** 
  65:../generate/drivers/r_spibsc/src/lld/r_spibsc_lld_rza2m.c **** /******************************************************************************
  66:../generate/drivers/r_spibsc/src/lld/r_spibsc_lld_rza2m.c **** Imported global variables and functions (from other files)
  67:../generate/drivers/r_spibsc/src/lld/r_spibsc_lld_rza2m.c **** ******************************************************************************/
  68:../generate/drivers/r_spibsc/src/lld/r_spibsc_lld_rza2m.c **** 
  69:../generate/drivers/r_spibsc/src/lld/r_spibsc_lld_rza2m.c **** 
  70:../generate/drivers/r_spibsc/src/lld/r_spibsc_lld_rza2m.c **** /******************************************************************************
  71:../generate/drivers/r_spibsc/src/lld/r_spibsc_lld_rza2m.c **** Exported global variables and functions (to be accessed by other files)
  72:../generate/drivers/r_spibsc/src/lld/r_spibsc_lld_rza2m.c **** ******************************************************************************/
  73:../generate/drivers/r_spibsc/src/lld/r_spibsc_lld_rza2m.c **** static void r_spibsc_common_spiflash_init( const st_spibsc_config_t  *p_spibsc_config_tbl );
  74:../generate/drivers/r_spibsc/src/lld/r_spibsc_lld_rza2m.c **** 
  75:../generate/drivers/r_spibsc/src/lld/r_spibsc_lld_rza2m.c **** static void r_spibsc_manual_set_command(uint8_t cmd, uint8_t width, uint8_t output_enable);
  76:../generate/drivers/r_spibsc/src/lld/r_spibsc_lld_rza2m.c **** static void r_spibsc_manual_set_optional_command(uint8_t ocmd, uint8_t width, uint8_t output_enable
  77:../generate/drivers/r_spibsc/src/lld/r_spibsc_lld_rza2m.c **** static void r_spibsc_manual_set_address(uint32_t addr, uint8_t width, uint8_t address_output_enable
  78:../generate/drivers/r_spibsc/src/lld/r_spibsc_lld_rza2m.c **** static void r_spibsc_manual_set_option_data(uint8_t opd3, uint8_t opd2, uint8_t opd1, uint8_t opd0,
  79:../generate/drivers/r_spibsc/src/lld/r_spibsc_lld_rza2m.c **** static void r_spibsc_manual_set_dummy_cycle(uint8_t dummy_cycle_num, uint8_t width, uint8_t output_
  80:../generate/drivers/r_spibsc/src/lld/r_spibsc_lld_rza2m.c **** static void r_spibsc_manual_set_datatransfer(uint8_t transfer_unit,uint8_t width,uint8_t write_enab
  81:../generate/drivers/r_spibsc/src/lld/r_spibsc_lld_rza2m.c **** static void r_spibsc_manual_start_transfer(void);
  82:../generate/drivers/r_spibsc/src/lld/r_spibsc_lld_rza2m.c **** 
  83:../generate/drivers/r_spibsc/src/lld/r_spibsc_lld_rza2m.c **** 
  84:../generate/drivers/r_spibsc/src/lld/r_spibsc_lld_rza2m.c **** static uint8_t r_spibsc_manual_read_data0_8(void);
  85:../generate/drivers/r_spibsc/src/lld/r_spibsc_lld_rza2m.c **** static uint16_t r_spibsc_manual_read_data0_16(void);
  86:../generate/drivers/r_spibsc/src/lld/r_spibsc_lld_rza2m.c **** static uint32_t r_spibsc_manual_read_data0_32(void);
  87:../generate/drivers/r_spibsc/src/lld/r_spibsc_lld_rza2m.c **** 
  88:../generate/drivers/r_spibsc/src/lld/r_spibsc_lld_rza2m.c **** static uint8_t r_spibsc_manual_read_data1_8(void);
  89:../generate/drivers/r_spibsc/src/lld/r_spibsc_lld_rza2m.c **** static uint16_t r_spibsc_manual_read_data1_16(void);
  90:../generate/drivers/r_spibsc/src/lld/r_spibsc_lld_rza2m.c **** static uint32_t r_spibsc_manual_read_data1_32(void);
  91:../generate/drivers/r_spibsc/src/lld/r_spibsc_lld_rza2m.c **** 
  92:../generate/drivers/r_spibsc/src/lld/r_spibsc_lld_rza2m.c **** 
  93:../generate/drivers/r_spibsc/src/lld/r_spibsc_lld_rza2m.c **** static void r_spibsc_manual_write_data0_8(uint8_t write_data);
  94:../generate/drivers/r_spibsc/src/lld/r_spibsc_lld_rza2m.c **** static void r_spibsc_manual_write_data0_16(uint16_t write_data);
  95:../generate/drivers/r_spibsc/src/lld/r_spibsc_lld_rza2m.c **** static void r_spibsc_manual_write_data0_32(uint32_t write_data);
  96:../generate/drivers/r_spibsc/src/lld/r_spibsc_lld_rza2m.c **** 
  97:../generate/drivers/r_spibsc/src/lld/r_spibsc_lld_rza2m.c **** static void r_spibsc_manual_write_data1_8(uint8_t write_data);
  98:../generate/drivers/r_spibsc/src/lld/r_spibsc_lld_rza2m.c **** static void r_spibsc_manual_write_data1_16(uint16_t write_data);
  99:../generate/drivers/r_spibsc/src/lld/r_spibsc_lld_rza2m.c **** static void r_spibsc_manual_write_data1_32(uint32_t write_data);
 100:../generate/drivers/r_spibsc/src/lld/r_spibsc_lld_rza2m.c **** 
 101:../generate/drivers/r_spibsc/src/lld/r_spibsc_lld_rza2m.c **** 
 102:../generate/drivers/r_spibsc/src/lld/r_spibsc_lld_rza2m.c **** static void r_spibsc_xip_set_command(uint8_t cmd, uint8_t width, uint8_t output_enable);
 103:../generate/drivers/r_spibsc/src/lld/r_spibsc_lld_rza2m.c **** static void r_spibsc_xip_set_optional_command(uint8_t ocmd, uint8_t width, uint8_t output_enable);
 104:../generate/drivers/r_spibsc/src/lld/r_spibsc_lld_rza2m.c **** static void r_spibsc_xip_set_address(uint8_t width, uint8_t address_output_enable, uint8_t ddr_enab
 105:../generate/drivers/r_spibsc/src/lld/r_spibsc_lld_rza2m.c **** static void r_spibsc_xip_set_option_data(uint8_t opd3, uint8_t opd2, uint8_t opd1, uint8_t opd0,
 106:../generate/drivers/r_spibsc/src/lld/r_spibsc_lld_rza2m.c ****                                   uint8_t width, uint8_t option_data_output_enable,uint8_t ddr_enab
 107:../generate/drivers/r_spibsc/src/lld/r_spibsc_lld_rza2m.c **** static void r_spibsc_xip_set_dummy_cycle(uint8_t dummy_cycle_num, uint8_t width, uint8_t output_ena
 108:../generate/drivers/r_spibsc/src/lld/r_spibsc_lld_rza2m.c **** static void r_spibsc_xip_set_datatransfer(uint8_t width, uint8_t ddr_enable);
 109:../generate/drivers/r_spibsc/src/lld/r_spibsc_lld_rza2m.c **** 
 110:../generate/drivers/r_spibsc/src/lld/r_spibsc_lld_rza2m.c **** 
 111:../generate/drivers/r_spibsc/src/lld/r_spibsc_lld_rza2m.c **** static void r_spibsc_manual_assert_ssl(void);
 112:../generate/drivers/r_spibsc/src/lld/r_spibsc_lld_rza2m.c **** static void r_spibsc_manual_negate_ssl(void);
 113:../generate/drivers/r_spibsc/src/lld/r_spibsc_lld_rza2m.c **** 
 114:../generate/drivers/r_spibsc/src/lld/r_spibsc_lld_rza2m.c **** static void r_spibsc_wait_tend(void);
 115:../generate/drivers/r_spibsc/src/lld/r_spibsc_lld_rza2m.c **** 
 116:../generate/drivers/r_spibsc/src/lld/r_spibsc_lld_rza2m.c **** static void r_spibsc_change_manual_mode(uint8_t sdr_ddr);
 117:../generate/drivers/r_spibsc/src/lld/r_spibsc_lld_rza2m.c **** static void r_spibsc_change_xip_mode(uint8_t sdr_ddr);
 118:../generate/drivers/r_spibsc/src/lld/r_spibsc_lld_rza2m.c **** static void r_spibsc_flush_read_cache(void);
 119:../generate/drivers/r_spibsc/src/lld/r_spibsc_lld_rza2m.c **** static void r_spibsc_xip_stop_access(void);
 120:../generate/drivers/r_spibsc/src/lld/r_spibsc_lld_rza2m.c **** 
 121:../generate/drivers/r_spibsc/src/lld/r_spibsc_lld_rza2m.c **** static void r_spibsc_port_voltage_setting(uint8_t voltage);
 122:../generate/drivers/r_spibsc/src/lld/r_spibsc_lld_rza2m.c **** static void r_spibsc_port_current_setting(uint8_t voltage);
 123:../generate/drivers/r_spibsc/src/lld/r_spibsc_lld_rza2m.c **** 
 124:../generate/drivers/r_spibsc/src/lld/r_spibsc_lld_rza2m.c **** 
 125:../generate/drivers/r_spibsc/src/lld/r_spibsc_lld_rza2m.c **** static int_t r_spibsc_get_ok_area_center( uint8_t *p_ok_ng_result );
 126:../generate/drivers/r_spibsc/src/lld/r_spibsc_lld_rza2m.c **** static e_spibsc_err_t r_spibsc_spi_cmd_issue_read( uint8_t table_no, uint32_t addr, uint8_t *p_read
 127:../generate/drivers/r_spibsc/src/lld/r_spibsc_lld_rza2m.c **** static e_spibsc_err_t r_spibsc_spi_cmd_issue_write( uint8_t table_no, uint32_t addr, uint8_t *p_wri
 128:../generate/drivers/r_spibsc/src/lld/r_spibsc_lld_rza2m.c **** static void r_spibsc_qspi_io_set_output_level(
 129:../generate/drivers/r_spibsc/src/lld/r_spibsc_lld_rza2m.c ****     uint8_t cmncr_moiio3,
 130:../generate/drivers/r_spibsc/src/lld/r_spibsc_lld_rza2m.c ****     uint8_t cmncr_moiio2,
 131:../generate/drivers/r_spibsc/src/lld/r_spibsc_lld_rza2m.c ****     uint8_t cmncr_moiio1,
 132:../generate/drivers/r_spibsc/src/lld/r_spibsc_lld_rza2m.c ****     uint8_t cmncr_moiio0,
 133:../generate/drivers/r_spibsc/src/lld/r_spibsc_lld_rza2m.c ****     uint8_t cmncr_io3fv,
 134:../generate/drivers/r_spibsc/src/lld/r_spibsc_lld_rza2m.c ****     uint8_t cmncr_io2fv,
 135:../generate/drivers/r_spibsc/src/lld/r_spibsc_lld_rza2m.c ****     uint8_t cmncr_io0fv
 136:../generate/drivers/r_spibsc/src/lld/r_spibsc_lld_rza2m.c ****     );
 137:../generate/drivers/r_spibsc/src/lld/r_spibsc_lld_rza2m.c **** 
 138:../generate/drivers/r_spibsc/src/lld/r_spibsc_lld_rza2m.c **** /******************************************************************************
 139:../generate/drivers/r_spibsc/src/lld/r_spibsc_lld_rza2m.c **** Private global variables and functions
 140:../generate/drivers/r_spibsc/src/lld/r_spibsc_lld_rza2m.c **** ******************************************************************************/
 141:../generate/drivers/r_spibsc/src/lld/r_spibsc_lld_rza2m.c **** /*! Version Information */
 142:../generate/drivers/r_spibsc/src/lld/r_spibsc_lld_rza2m.c **** static const st_drv_info_t gs_lld_info =
 143:../generate/drivers/r_spibsc/src/lld/r_spibsc_lld_rza2m.c **** {
 144:../generate/drivers/r_spibsc/src/lld/r_spibsc_lld_rza2m.c ****     {
 145:../generate/drivers/r_spibsc/src/lld/r_spibsc_lld_rza2m.c ****         ((STDIO_SPIBSC_RZ_LLD_VERSION_MAJOR << 16) + STDIO_SPIBSC_RZ_LLD_VERSION_MINOR)
 146:../generate/drivers/r_spibsc/src/lld/r_spibsc_lld_rza2m.c ****     },
 147:../generate/drivers/r_spibsc/src/lld/r_spibsc_lld_rza2m.c ****     STDIO_SPIBSC_RZ_LLD_BUILD_NUM,
 148:../generate/drivers/r_spibsc/src/lld/r_spibsc_lld_rza2m.c ****     STDIO_SPIBSC_RZ_LLD_DRV_NAME
 149:../generate/drivers/r_spibsc/src/lld/r_spibsc_lld_rza2m.c **** };
 150:../generate/drivers/r_spibsc/src/lld/r_spibsc_lld_rza2m.c **** 
 151:../generate/drivers/r_spibsc/src/lld/r_spibsc_lld_rza2m.c **** 
 152:../generate/drivers/r_spibsc/src/lld/r_spibsc_lld_rza2m.c **** /*! PHY Adjust */
 153:../generate/drivers/r_spibsc/src/lld/r_spibsc_lld_rza2m.c **** static const st_r_drv_spibsc_phy_adj_t gs_spibsc_phy_adj[SPIBSC_PRV_PHYADJ_MAX] =
 154:../generate/drivers/r_spibsc/src/lld/r_spibsc_lld_rza2m.c **** {
 155:../generate/drivers/r_spibsc/src/lld/r_spibsc_lld_rza2m.c **** /*    <xy>  <zz>    */
 156:../generate/drivers/r_spibsc/src/lld/r_spibsc_lld_rza2m.c ****         { 0x01, 0x3 },    /*   0 */
 157:../generate/drivers/r_spibsc/src/lld/r_spibsc_lld_rza2m.c ****         { 0x11, 0x3 },    /*   1 */
 158:../generate/drivers/r_spibsc/src/lld/r_spibsc_lld_rza2m.c ****         { 0x01, 0x2 },    /*   2 */
 159:../generate/drivers/r_spibsc/src/lld/r_spibsc_lld_rza2m.c ****         { 0x11, 0x2 },    /*   3 */
 160:../generate/drivers/r_spibsc/src/lld/r_spibsc_lld_rza2m.c ****         { 0x01, 0x1 },    /*   4 */
 161:../generate/drivers/r_spibsc/src/lld/r_spibsc_lld_rza2m.c ****         { 0x00, 0x3 },    /*   5 */
 162:../generate/drivers/r_spibsc/src/lld/r_spibsc_lld_rza2m.c ****         { 0x10, 0x3 },    /*   6 */
 163:../generate/drivers/r_spibsc/src/lld/r_spibsc_lld_rza2m.c ****         { 0x00, 0x2 },    /*   7 */
 164:../generate/drivers/r_spibsc/src/lld/r_spibsc_lld_rza2m.c ****         { 0x10, 0x2 },    /*   8 */
 165:../generate/drivers/r_spibsc/src/lld/r_spibsc_lld_rza2m.c ****         { 0x00, 0x1 },    /*   9 */
 166:../generate/drivers/r_spibsc/src/lld/r_spibsc_lld_rza2m.c ****         { 0x10, 0x1 },    /*  10 */
 167:../generate/drivers/r_spibsc/src/lld/r_spibsc_lld_rza2m.c ****         { 0x00, 0x0 },    /*  11 */
 168:../generate/drivers/r_spibsc/src/lld/r_spibsc_lld_rza2m.c ****         { 0x10, 0x0 },    /*  12 */
 169:../generate/drivers/r_spibsc/src/lld/r_spibsc_lld_rza2m.c **** };
 170:../generate/drivers/r_spibsc/src/lld/r_spibsc_lld_rza2m.c **** static uint8_t gs_ok_ng_result[SPIBSC_PRV_PHYADJ_MAX];
 171:../generate/drivers/r_spibsc/src/lld/r_spibsc_lld_rza2m.c **** 
 172:../generate/drivers/r_spibsc/src/lld/r_spibsc_lld_rza2m.c **** 
 173:../generate/drivers/r_spibsc/src/lld/r_spibsc_lld_rza2m.c **** /******************************************************************************
 174:../generate/drivers/r_spibsc/src/lld/r_spibsc_lld_rza2m.c **** * Function Name: spibsc_io_reg_write_8
 175:../generate/drivers/r_spibsc/src/lld/r_spibsc_lld_rza2m.c **** * Description  : IO register 8-bit write
 176:../generate/drivers/r_spibsc/src/lld/r_spibsc_lld_rza2m.c **** * Arguments    : volatile uint8_t * ioreg : IO register for writing
 177:../generate/drivers/r_spibsc/src/lld/r_spibsc_lld_rza2m.c **** *              :                          : Use register definition name of the
 178:../generate/drivers/r_spibsc/src/lld/r_spibsc_lld_rza2m.c **** *              :                          : iodefine.h
 179:../generate/drivers/r_spibsc/src/lld/r_spibsc_lld_rza2m.c **** *              : uint8_t write_value      : Write value for the IO register
 180:../generate/drivers/r_spibsc/src/lld/r_spibsc_lld_rza2m.c **** *              : uint8_t shift            : The number of left shifts to the
 181:../generate/drivers/r_spibsc/src/lld/r_spibsc_lld_rza2m.c **** *              :                          : target bit
 182:../generate/drivers/r_spibsc/src/lld/r_spibsc_lld_rza2m.c **** *              : uint8_t mask             : Mask value for the IO register
 183:../generate/drivers/r_spibsc/src/lld/r_spibsc_lld_rza2m.c **** *              :                          : (Target bit : "1")
 184:../generate/drivers/r_spibsc/src/lld/r_spibsc_lld_rza2m.c **** * Return Value : None
 185:../generate/drivers/r_spibsc/src/lld/r_spibsc_lld_rza2m.c **** ******************************************************************************/
 186:../generate/drivers/r_spibsc/src/lld/r_spibsc_lld_rza2m.c **** static void spibsc_io_reg_write_8(volatile uint8_t * ioreg, uint8_t write_value, uint8_t shift, uin
 187:../generate/drivers/r_spibsc/src/lld/r_spibsc_lld_rza2m.c **** {
  25              		.loc 1 187 0
  26              		.cfi_startproc
  27              		@ args = 0, pretend = 0, frame = 0
  28              		@ frame_needed = 0, uses_anonymous_args = 0
  29              		@ link register save eliminated.
  30              	.LVL0:
 188:../generate/drivers/r_spibsc/src/lld/r_spibsc_lld_rza2m.c ****     uint8_t reg_value;
 189:../generate/drivers/r_spibsc/src/lld/r_spibsc_lld_rza2m.c **** 
 190:../generate/drivers/r_spibsc/src/lld/r_spibsc_lld_rza2m.c ****     if ( IOREG_NONMASK_ACCESS != mask )
  31              		.loc 1 190 0
  32 0000 010073E3 		cmn	r3, #1
  33 0004 0400000A 		beq	.L2
 191:../generate/drivers/r_spibsc/src/lld/r_spibsc_lld_rza2m.c **** 
 192:../generate/drivers/r_spibsc/src/lld/r_spibsc_lld_rza2m.c ****     {
 193:../generate/drivers/r_spibsc/src/lld/r_spibsc_lld_rza2m.c ****         reg_value = *ioreg;                                         /* Read from register */
  34              		.loc 1 193 0
  35 0008 00C0D0E5 		ldrb	ip, [r0]	@ zero_extendqisi2
  36              	.LVL1:
 194:../generate/drivers/r_spibsc/src/lld/r_spibsc_lld_rza2m.c ****         reg_value = (uint8_t)((reg_value & (~mask)) | (unsigned)(write_value << shift)); /* Modify 
  37              		.loc 1 194 0
  38 000c 0330CCE1 		bic	r3, ip, r3
  39              	.LVL2:
  40 0010 1112A0E1 		lsl	r1, r1, r2
  41              	.LVL3:
  42 0014 7110EFE6 		uxtb	r1, r1
  43 0018 011083E1 		orr	r1, r3, r1
  44              	.LVL4:
  45              	.L2:
 195:../generate/drivers/r_spibsc/src/lld/r_spibsc_lld_rza2m.c ****     }
 196:../generate/drivers/r_spibsc/src/lld/r_spibsc_lld_rza2m.c ****     else
 197:../generate/drivers/r_spibsc/src/lld/r_spibsc_lld_rza2m.c ****     {
 198:../generate/drivers/r_spibsc/src/lld/r_spibsc_lld_rza2m.c ****         reg_value = write_value;
 199:../generate/drivers/r_spibsc/src/lld/r_spibsc_lld_rza2m.c ****     }
 200:../generate/drivers/r_spibsc/src/lld/r_spibsc_lld_rza2m.c ****     *ioreg    = reg_value;                                      /* Write to register  */
  46              		.loc 1 200 0
  47 001c 0010C0E5 		strb	r1, [r0]
 201:../generate/drivers/r_spibsc/src/lld/r_spibsc_lld_rza2m.c **** }
  48              		.loc 1 201 0
  49 0020 1EFF2FE1 		bx	lr
  50              		.cfi_endproc
  51              	.LFE0:
  53              		.section	.text.spibsc_io_reg_write_16,"ax",%progbits
  54              		.align	2
  55              		.syntax unified
  56              		.arm
  57              		.fpu neon
  59              	spibsc_io_reg_write_16:
  60              	.LFB1:
 202:../generate/drivers/r_spibsc/src/lld/r_spibsc_lld_rza2m.c **** /*******************************************************************************
 203:../generate/drivers/r_spibsc/src/lld/r_spibsc_lld_rza2m.c **** End of function spibsc_io_reg_write_8
 204:../generate/drivers/r_spibsc/src/lld/r_spibsc_lld_rza2m.c **** *******************************************************************************/
 205:../generate/drivers/r_spibsc/src/lld/r_spibsc_lld_rza2m.c **** 
 206:../generate/drivers/r_spibsc/src/lld/r_spibsc_lld_rza2m.c **** /******************************************************************************
 207:../generate/drivers/r_spibsc/src/lld/r_spibsc_lld_rza2m.c **** * Function Name: spibsc_io_reg_write_16
 208:../generate/drivers/r_spibsc/src/lld/r_spibsc_lld_rza2m.c **** * Description  : IO register 16-bit write
 209:../generate/drivers/r_spibsc/src/lld/r_spibsc_lld_rza2m.c **** * Arguments    : volatile uint16_t * ioreg : IO register for writing
 210:../generate/drivers/r_spibsc/src/lld/r_spibsc_lld_rza2m.c **** *              :                           : Use register definition name of the
 211:../generate/drivers/r_spibsc/src/lld/r_spibsc_lld_rza2m.c **** *              :                           : iodefine.h
 212:../generate/drivers/r_spibsc/src/lld/r_spibsc_lld_rza2m.c **** *              : uint16_t write_value      : Write value for the IO register
 213:../generate/drivers/r_spibsc/src/lld/r_spibsc_lld_rza2m.c **** *              : uint16_t shift            : The number of left shifts to the
 214:../generate/drivers/r_spibsc/src/lld/r_spibsc_lld_rza2m.c **** *              :                           : target bit
 215:../generate/drivers/r_spibsc/src/lld/r_spibsc_lld_rza2m.c **** *              : uint16_t mask             : Mask value for the IO register
 216:../generate/drivers/r_spibsc/src/lld/r_spibsc_lld_rza2m.c **** *              :                           : (Target bit : "1")
 217:../generate/drivers/r_spibsc/src/lld/r_spibsc_lld_rza2m.c **** * Return Value : None
 218:../generate/drivers/r_spibsc/src/lld/r_spibsc_lld_rza2m.c **** ******************************************************************************/
 219:../generate/drivers/r_spibsc/src/lld/r_spibsc_lld_rza2m.c **** static void spibsc_io_reg_write_16(volatile uint16_t * ioreg, uint16_t write_value, uint16_t shift,
 220:../generate/drivers/r_spibsc/src/lld/r_spibsc_lld_rza2m.c **** {
  61              		.loc 1 220 0
  62              		.cfi_startproc
  63              		@ args = 0, pretend = 0, frame = 0
  64              		@ frame_needed = 0, uses_anonymous_args = 0
  65              		@ link register save eliminated.
  66              	.LVL5:
 221:../generate/drivers/r_spibsc/src/lld/r_spibsc_lld_rza2m.c ****     uint16_t reg_value;
 222:../generate/drivers/r_spibsc/src/lld/r_spibsc_lld_rza2m.c **** 
 223:../generate/drivers/r_spibsc/src/lld/r_spibsc_lld_rza2m.c ****     if ( IOREG_NONMASK_ACCESS != mask )
  67              		.loc 1 223 0
  68 0000 010073E3 		cmn	r3, #1
  69 0004 0400000A 		beq	.L4
 224:../generate/drivers/r_spibsc/src/lld/r_spibsc_lld_rza2m.c ****     {
 225:../generate/drivers/r_spibsc/src/lld/r_spibsc_lld_rza2m.c ****         reg_value = *ioreg;                                         /* Read from register */
  70              		.loc 1 225 0
  71 0008 B0C0D0E1 		ldrh	ip, [r0]
  72              	.LVL6:
 226:../generate/drivers/r_spibsc/src/lld/r_spibsc_lld_rza2m.c ****         reg_value = (uint16_t)((reg_value & (~mask)) | (unsigned)(write_value << shift)); /* Modify
  73              		.loc 1 226 0
  74 000c 0330CCE1 		bic	r3, ip, r3
  75              	.LVL7:
  76 0010 1112A0E1 		lsl	r1, r1, r2
  77              	.LVL8:
  78 0014 7110FFE6 		uxth	r1, r1
  79 0018 011083E1 		orr	r1, r3, r1
  80              	.LVL9:
  81              	.L4:
 227:../generate/drivers/r_spibsc/src/lld/r_spibsc_lld_rza2m.c ****     }
 228:../generate/drivers/r_spibsc/src/lld/r_spibsc_lld_rza2m.c ****     else
 229:../generate/drivers/r_spibsc/src/lld/r_spibsc_lld_rza2m.c ****     {
 230:../generate/drivers/r_spibsc/src/lld/r_spibsc_lld_rza2m.c ****         reg_value = write_value;
 231:../generate/drivers/r_spibsc/src/lld/r_spibsc_lld_rza2m.c ****     }
 232:../generate/drivers/r_spibsc/src/lld/r_spibsc_lld_rza2m.c ****     *ioreg    = reg_value;                                      /* Write to register  */
  82              		.loc 1 232 0
  83 001c B010C0E1 		strh	r1, [r0]	@ movhi
 233:../generate/drivers/r_spibsc/src/lld/r_spibsc_lld_rza2m.c **** }
  84              		.loc 1 233 0
  85 0020 1EFF2FE1 		bx	lr
  86              		.cfi_endproc
  87              	.LFE1:
  89              		.section	.text.spibsc_io_reg_write_32,"ax",%progbits
  90              		.align	2
  91              		.syntax unified
  92              		.arm
  93              		.fpu neon
  95              	spibsc_io_reg_write_32:
  96              	.LFB2:
 234:../generate/drivers/r_spibsc/src/lld/r_spibsc_lld_rza2m.c **** /*******************************************************************************
 235:../generate/drivers/r_spibsc/src/lld/r_spibsc_lld_rza2m.c **** End of function spibsc_io_reg_write_16
 236:../generate/drivers/r_spibsc/src/lld/r_spibsc_lld_rza2m.c **** *******************************************************************************/
 237:../generate/drivers/r_spibsc/src/lld/r_spibsc_lld_rza2m.c **** 
 238:../generate/drivers/r_spibsc/src/lld/r_spibsc_lld_rza2m.c **** /******************************************************************************
 239:../generate/drivers/r_spibsc/src/lld/r_spibsc_lld_rza2m.c **** * Function Name: spibsc_io_reg_write_32
 240:../generate/drivers/r_spibsc/src/lld/r_spibsc_lld_rza2m.c **** * Description  : IO register 32-bit write
 241:../generate/drivers/r_spibsc/src/lld/r_spibsc_lld_rza2m.c **** * Arguments    : volatile uint32_t * ioreg : IO register for writing
 242:../generate/drivers/r_spibsc/src/lld/r_spibsc_lld_rza2m.c **** *              :                           : Use register definition name of the
 243:../generate/drivers/r_spibsc/src/lld/r_spibsc_lld_rza2m.c **** *              :                           : iodefine.h
 244:../generate/drivers/r_spibsc/src/lld/r_spibsc_lld_rza2m.c **** *              : uint32_t write_value      : Write value for the IO register
 245:../generate/drivers/r_spibsc/src/lld/r_spibsc_lld_rza2m.c **** *              : uint32_t shift            : The number of left shifts to the
 246:../generate/drivers/r_spibsc/src/lld/r_spibsc_lld_rza2m.c **** *              :                           : target bit
 247:../generate/drivers/r_spibsc/src/lld/r_spibsc_lld_rza2m.c **** *              : uint32_t mask             : Mask value for the IO register
 248:../generate/drivers/r_spibsc/src/lld/r_spibsc_lld_rza2m.c **** *              :                           : (Target bit : "1")
 249:../generate/drivers/r_spibsc/src/lld/r_spibsc_lld_rza2m.c **** * Return Value : None
 250:../generate/drivers/r_spibsc/src/lld/r_spibsc_lld_rza2m.c **** ******************************************************************************/
 251:../generate/drivers/r_spibsc/src/lld/r_spibsc_lld_rza2m.c **** static void spibsc_io_reg_write_32(volatile uint32_t * ioreg, uint32_t write_value, uint32_t shift,
 252:../generate/drivers/r_spibsc/src/lld/r_spibsc_lld_rza2m.c **** {
  97              		.loc 1 252 0
  98              		.cfi_startproc
  99              		@ args = 0, pretend = 0, frame = 0
 100              		@ frame_needed = 0, uses_anonymous_args = 0
 101              		@ link register save eliminated.
 102              	.LVL10:
 253:../generate/drivers/r_spibsc/src/lld/r_spibsc_lld_rza2m.c ****     uint32_t reg_value;
 254:../generate/drivers/r_spibsc/src/lld/r_spibsc_lld_rza2m.c ****     if ( IOREG_NONMASK_ACCESS != mask )
 103              		.loc 1 254 0
 104 0000 010073E3 		cmn	r3, #1
 255:../generate/drivers/r_spibsc/src/lld/r_spibsc_lld_rza2m.c ****     {
 256:../generate/drivers/r_spibsc/src/lld/r_spibsc_lld_rza2m.c ****         reg_value = *ioreg;                                         /* Read from register */
 105              		.loc 1 256 0
 106 0004 00C09015 		ldrne	ip, [r0]
 107              	.LVL11:
 257:../generate/drivers/r_spibsc/src/lld/r_spibsc_lld_rza2m.c ****         reg_value = (reg_value & (~mask)) | (unsigned)(write_value << shift); /* Modify value      
 108              		.loc 1 257 0
 109 0008 0330CC11 		bicne	r3, ip, r3
 110              	.LVL12:
 111 000c 11128311 		orrne	r1, r3, r1, lsl r2
 112              	.LVL13:
 113              	.L6:
 258:../generate/drivers/r_spibsc/src/lld/r_spibsc_lld_rza2m.c ****     }
 259:../generate/drivers/r_spibsc/src/lld/r_spibsc_lld_rza2m.c ****     else
 260:../generate/drivers/r_spibsc/src/lld/r_spibsc_lld_rza2m.c ****     {
 261:../generate/drivers/r_spibsc/src/lld/r_spibsc_lld_rza2m.c ****         reg_value = write_value;
 262:../generate/drivers/r_spibsc/src/lld/r_spibsc_lld_rza2m.c ****     }
 263:../generate/drivers/r_spibsc/src/lld/r_spibsc_lld_rza2m.c ****     *ioreg    = reg_value;                                      /* Write to register  */
 114              		.loc 1 263 0
 115 0010 001080E5 		str	r1, [r0]
 264:../generate/drivers/r_spibsc/src/lld/r_spibsc_lld_rza2m.c **** }
 116              		.loc 1 264 0
 117 0014 1EFF2FE1 		bx	lr
 118              		.cfi_endproc
 119              	.LFE2:
 121              		.section	.text.spibsc_io_reg_read_8,"ax",%progbits
 122              		.align	2
 123              		.syntax unified
 124              		.arm
 125              		.fpu neon
 127              	spibsc_io_reg_read_8:
 128              	.LFB3:
 265:../generate/drivers/r_spibsc/src/lld/r_spibsc_lld_rza2m.c **** /*******************************************************************************
 266:../generate/drivers/r_spibsc/src/lld/r_spibsc_lld_rza2m.c **** End of function spibsc_io_reg_write_32
 267:../generate/drivers/r_spibsc/src/lld/r_spibsc_lld_rza2m.c **** *******************************************************************************/
 268:../generate/drivers/r_spibsc/src/lld/r_spibsc_lld_rza2m.c **** 
 269:../generate/drivers/r_spibsc/src/lld/r_spibsc_lld_rza2m.c **** /******************************************************************************
 270:../generate/drivers/r_spibsc/src/lld/r_spibsc_lld_rza2m.c **** * Function Name: spibsc_io_reg_read_8
 271:../generate/drivers/r_spibsc/src/lld/r_spibsc_lld_rza2m.c **** * Description  : IO register 8-bit read
 272:../generate/drivers/r_spibsc/src/lld/r_spibsc_lld_rza2m.c **** * Arguments    : volatile uint8_t * ioreg : IO register for reading
 273:../generate/drivers/r_spibsc/src/lld/r_spibsc_lld_rza2m.c **** *              :                          : Use register definition name of the
 274:../generate/drivers/r_spibsc/src/lld/r_spibsc_lld_rza2m.c **** *              :                          : iodefine.h
 275:../generate/drivers/r_spibsc/src/lld/r_spibsc_lld_rza2m.c **** *              : uint8_t shift            : The number of right shifts to the
 276:../generate/drivers/r_spibsc/src/lld/r_spibsc_lld_rza2m.c **** *              :                          : target bit
 277:../generate/drivers/r_spibsc/src/lld/r_spibsc_lld_rza2m.c **** *              : uint8_t mask             : Mask bit for the IO register
 278:../generate/drivers/r_spibsc/src/lld/r_spibsc_lld_rza2m.c **** *              :                          : (Target bit: "1")
 279:../generate/drivers/r_spibsc/src/lld/r_spibsc_lld_rza2m.c **** * Return Value : uint8_t : Value of the obtained target bit
 280:../generate/drivers/r_spibsc/src/lld/r_spibsc_lld_rza2m.c **** ******************************************************************************/
 281:../generate/drivers/r_spibsc/src/lld/r_spibsc_lld_rza2m.c **** static uint8_t spibsc_io_reg_read_8(volatile uint8_t * ioreg, uint8_t shift, uint32_t mask)
 282:../generate/drivers/r_spibsc/src/lld/r_spibsc_lld_rza2m.c **** {
 129              		.loc 1 282 0
 130              		.cfi_startproc
 131              		@ args = 0, pretend = 0, frame = 0
 132              		@ frame_needed = 0, uses_anonymous_args = 0
 133              		@ link register save eliminated.
 134              	.LVL14:
 283:../generate/drivers/r_spibsc/src/lld/r_spibsc_lld_rza2m.c ****     uint8_t reg_value;
 284:../generate/drivers/r_spibsc/src/lld/r_spibsc_lld_rza2m.c **** 
 285:../generate/drivers/r_spibsc/src/lld/r_spibsc_lld_rza2m.c ****     reg_value = *ioreg;                         /* Read from register            */
 135              		.loc 1 285 0
 136 0000 0000D0E5 		ldrb	r0, [r0]	@ zero_extendqisi2
 137              	.LVL15:
 138 0004 7000EFE6 		uxtb	r0, r0
 139              	.LVL16:
 286:../generate/drivers/r_spibsc/src/lld/r_spibsc_lld_rza2m.c ****     if ( IOREG_NONMASK_ACCESS != mask )
 140              		.loc 1 286 0
 141 0008 010072E3 		cmn	r2, #1
 142 000c 1EFF2F01 		bxeq	lr
 287:../generate/drivers/r_spibsc/src/lld/r_spibsc_lld_rza2m.c ****     {
 288:../generate/drivers/r_spibsc/src/lld/r_spibsc_lld_rza2m.c ****         reg_value = (uint8_t)((reg_value & mask) >> shift);    /* Clear other bit and Bit shift */
 143              		.loc 1 288 0
 144 0010 020000E0 		and	r0, r0, r2
 145              	.LVL17:
 146 0014 3001A0E1 		lsr	r0, r0, r1
 147 0018 7000EFE6 		uxtb	r0, r0
 148              	.LVL18:
 289:../generate/drivers/r_spibsc/src/lld/r_spibsc_lld_rza2m.c ****     }
 290:../generate/drivers/r_spibsc/src/lld/r_spibsc_lld_rza2m.c **** 
 291:../generate/drivers/r_spibsc/src/lld/r_spibsc_lld_rza2m.c ****     return reg_value;
 292:../generate/drivers/r_spibsc/src/lld/r_spibsc_lld_rza2m.c **** }
 149              		.loc 1 292 0
 150 001c 1EFF2FE1 		bx	lr
 151              		.cfi_endproc
 152              	.LFE3:
 154              		.section	.text.spibsc_io_reg_read_32,"ax",%progbits
 155              		.align	2
 156              		.syntax unified
 157              		.arm
 158              		.fpu neon
 160              	spibsc_io_reg_read_32:
 161              	.LFB5:
 293:../generate/drivers/r_spibsc/src/lld/r_spibsc_lld_rza2m.c **** /*******************************************************************************
 294:../generate/drivers/r_spibsc/src/lld/r_spibsc_lld_rza2m.c **** End of function spibsc_io_reg_read_8
 295:../generate/drivers/r_spibsc/src/lld/r_spibsc_lld_rza2m.c **** *******************************************************************************/
 296:../generate/drivers/r_spibsc/src/lld/r_spibsc_lld_rza2m.c **** 
 297:../generate/drivers/r_spibsc/src/lld/r_spibsc_lld_rza2m.c **** /******************************************************************************
 298:../generate/drivers/r_spibsc/src/lld/r_spibsc_lld_rza2m.c **** * Function Name: spibsc_io_reg_read_16
 299:../generate/drivers/r_spibsc/src/lld/r_spibsc_lld_rza2m.c **** * Description  : IO register 16-bit read
 300:../generate/drivers/r_spibsc/src/lld/r_spibsc_lld_rza2m.c **** * Arguments    : volatile uint16_t * ioreg : IO register for reading
 301:../generate/drivers/r_spibsc/src/lld/r_spibsc_lld_rza2m.c **** *              :                           : Use register definition name of the
 302:../generate/drivers/r_spibsc/src/lld/r_spibsc_lld_rza2m.c **** *              :                           : iodefine.h
 303:../generate/drivers/r_spibsc/src/lld/r_spibsc_lld_rza2m.c **** *              : uint16_t shift            : The number of right shifts to the
 304:../generate/drivers/r_spibsc/src/lld/r_spibsc_lld_rza2m.c **** *              :                           : target bit
 305:../generate/drivers/r_spibsc/src/lld/r_spibsc_lld_rza2m.c **** *              : uint16_t mask             : Mask bit for the IO register
 306:../generate/drivers/r_spibsc/src/lld/r_spibsc_lld_rza2m.c **** *              :                           : (Target bit: "1")
 307:../generate/drivers/r_spibsc/src/lld/r_spibsc_lld_rza2m.c **** * Return Value : uint16_t : Value of the obtained target bit
 308:../generate/drivers/r_spibsc/src/lld/r_spibsc_lld_rza2m.c **** ******************************************************************************/
 309:../generate/drivers/r_spibsc/src/lld/r_spibsc_lld_rza2m.c **** static uint16_t spibsc_io_reg_read_16(volatile uint16_t * ioreg, uint16_t shift, uint32_t mask)
 310:../generate/drivers/r_spibsc/src/lld/r_spibsc_lld_rza2m.c **** {
 311:../generate/drivers/r_spibsc/src/lld/r_spibsc_lld_rza2m.c ****     uint16_t reg_value;
 312:../generate/drivers/r_spibsc/src/lld/r_spibsc_lld_rza2m.c **** 
 313:../generate/drivers/r_spibsc/src/lld/r_spibsc_lld_rza2m.c ****     reg_value = *ioreg;                         /* Read from register            */
 314:../generate/drivers/r_spibsc/src/lld/r_spibsc_lld_rza2m.c ****     if ( IOREG_NONMASK_ACCESS != mask)
 315:../generate/drivers/r_spibsc/src/lld/r_spibsc_lld_rza2m.c ****     {
 316:../generate/drivers/r_spibsc/src/lld/r_spibsc_lld_rza2m.c ****         reg_value = (uint16_t)((reg_value & mask) >> shift);    /* Clear other bit and Bit shift */
 317:../generate/drivers/r_spibsc/src/lld/r_spibsc_lld_rza2m.c ****     }
 318:../generate/drivers/r_spibsc/src/lld/r_spibsc_lld_rza2m.c **** 
 319:../generate/drivers/r_spibsc/src/lld/r_spibsc_lld_rza2m.c ****     return reg_value;
 320:../generate/drivers/r_spibsc/src/lld/r_spibsc_lld_rza2m.c **** }
 321:../generate/drivers/r_spibsc/src/lld/r_spibsc_lld_rza2m.c **** /*******************************************************************************
 322:../generate/drivers/r_spibsc/src/lld/r_spibsc_lld_rza2m.c **** End of function spibsc_io_reg_read_16
 323:../generate/drivers/r_spibsc/src/lld/r_spibsc_lld_rza2m.c **** *******************************************************************************/
 324:../generate/drivers/r_spibsc/src/lld/r_spibsc_lld_rza2m.c **** 
 325:../generate/drivers/r_spibsc/src/lld/r_spibsc_lld_rza2m.c **** /******************************************************************************
 326:../generate/drivers/r_spibsc/src/lld/r_spibsc_lld_rza2m.c **** * Function Name: spibsc_io_reg_read_32
 327:../generate/drivers/r_spibsc/src/lld/r_spibsc_lld_rza2m.c **** * Description  : IO register 32-bit read
 328:../generate/drivers/r_spibsc/src/lld/r_spibsc_lld_rza2m.c **** * Arguments    : volatile uint32_t * ioreg : IO register for reading
 329:../generate/drivers/r_spibsc/src/lld/r_spibsc_lld_rza2m.c **** *              :                           : Use register definition name of the
 330:../generate/drivers/r_spibsc/src/lld/r_spibsc_lld_rza2m.c **** *              :                           : iodefine.h
 331:../generate/drivers/r_spibsc/src/lld/r_spibsc_lld_rza2m.c **** *              : uint32_t shift            : The number of right shifts to the
 332:../generate/drivers/r_spibsc/src/lld/r_spibsc_lld_rza2m.c **** *              :                           : target bit
 333:../generate/drivers/r_spibsc/src/lld/r_spibsc_lld_rza2m.c **** *              : uint32_t mask             : Mask bit for the IO register
 334:../generate/drivers/r_spibsc/src/lld/r_spibsc_lld_rza2m.c **** *              :                           : (Target bit: "1")
 335:../generate/drivers/r_spibsc/src/lld/r_spibsc_lld_rza2m.c **** * Return Value : uint32_t : Value of the obtained target bit
 336:../generate/drivers/r_spibsc/src/lld/r_spibsc_lld_rza2m.c **** ******************************************************************************/
 337:../generate/drivers/r_spibsc/src/lld/r_spibsc_lld_rza2m.c **** static uint32_t spibsc_io_reg_read_32(volatile uint32_t * ioreg, uint32_t shift, uint32_t mask)
 338:../generate/drivers/r_spibsc/src/lld/r_spibsc_lld_rza2m.c **** {
 162              		.loc 1 338 0
 163              		.cfi_startproc
 164              		@ args = 0, pretend = 0, frame = 0
 165              		@ frame_needed = 0, uses_anonymous_args = 0
 166              		@ link register save eliminated.
 167              	.LVL19:
 339:../generate/drivers/r_spibsc/src/lld/r_spibsc_lld_rza2m.c ****     uint32_t reg_value;
 340:../generate/drivers/r_spibsc/src/lld/r_spibsc_lld_rza2m.c **** 
 341:../generate/drivers/r_spibsc/src/lld/r_spibsc_lld_rza2m.c ****     reg_value = *ioreg;                         /* Read from register            */
 168              		.loc 1 341 0
 169 0000 000090E5 		ldr	r0, [r0]
 170              	.LVL20:
 342:../generate/drivers/r_spibsc/src/lld/r_spibsc_lld_rza2m.c ****     if ( IOREG_NONMASK_ACCESS != mask)
 171              		.loc 1 342 0
 172 0004 010072E3 		cmn	r2, #1
 173 0008 1EFF2F01 		bxeq	lr
 343:../generate/drivers/r_spibsc/src/lld/r_spibsc_lld_rza2m.c ****     {
 344:../generate/drivers/r_spibsc/src/lld/r_spibsc_lld_rza2m.c ****         reg_value = (reg_value & mask) >> shift;    /* Clear other bit and Bit shift */
 174              		.loc 1 344 0
 175 000c 020000E0 		and	r0, r0, r2
 176              	.LVL21:
 177 0010 3001A0E1 		lsr	r0, r0, r1
 178              	.LVL22:
 345:../generate/drivers/r_spibsc/src/lld/r_spibsc_lld_rza2m.c ****     }
 346:../generate/drivers/r_spibsc/src/lld/r_spibsc_lld_rza2m.c **** 
 347:../generate/drivers/r_spibsc/src/lld/r_spibsc_lld_rza2m.c ****     return reg_value;
 348:../generate/drivers/r_spibsc/src/lld/r_spibsc_lld_rza2m.c **** }
 179              		.loc 1 348 0
 180 0014 1EFF2FE1 		bx	lr
 181              		.cfi_endproc
 182              	.LFE5:
 184              		.section	.text.r_spibsc_common_spiflash_init,"ax",%progbits
 185              		.align	2
 186              		.syntax unified
 187              		.arm
 188              		.fpu neon
 190              	r_spibsc_common_spiflash_init:
 191              	.LFB6:
 349:../generate/drivers/r_spibsc/src/lld/r_spibsc_lld_rza2m.c **** /*******************************************************************************
 350:../generate/drivers/r_spibsc/src/lld/r_spibsc_lld_rza2m.c **** End of function spibsc_io_reg_read_32
 351:../generate/drivers/r_spibsc/src/lld/r_spibsc_lld_rza2m.c **** *******************************************************************************/
 352:../generate/drivers/r_spibsc/src/lld/r_spibsc_lld_rza2m.c **** 
 353:../generate/drivers/r_spibsc/src/lld/r_spibsc_lld_rza2m.c **** 
 354:../generate/drivers/r_spibsc/src/lld/r_spibsc_lld_rza2m.c **** /******************************************************************************
 355:../generate/drivers/r_spibsc/src/lld/r_spibsc_lld_rza2m.c **** * Function Name: r_spibsc_common_spiflash_init
 356:../generate/drivers/r_spibsc/src/lld/r_spibsc_lld_rza2m.c **** * Description  : spibsc manual spiflash initialize
 357:../generate/drivers/r_spibsc/src/lld/r_spibsc_lld_rza2m.c **** * Arguments    : none
 358:../generate/drivers/r_spibsc/src/lld/r_spibsc_lld_rza2m.c **** * Return Value : none
 359:../generate/drivers/r_spibsc/src/lld/r_spibsc_lld_rza2m.c **** ******************************************************************************/
 360:../generate/drivers/r_spibsc/src/lld/r_spibsc_lld_rza2m.c **** static void r_spibsc_common_spiflash_init( const st_spibsc_config_t  *p_spibsc_config_tbl )
 361:../generate/drivers/r_spibsc/src/lld/r_spibsc_lld_rza2m.c **** {
 192              		.loc 1 361 0
 193              		.cfi_startproc
 194              		@ args = 0, pretend = 0, frame = 0
 195              		@ frame_needed = 0, uses_anonymous_args = 0
 196              	.LVL23:
 197 0000 70402DE9 		push	{r4, r5, r6, lr}
 198              		.cfi_def_cfa_offset 16
 199              		.cfi_offset 4, -16
 200              		.cfi_offset 5, -12
 201              		.cfi_offset 6, -8
 202              		.cfi_offset 14, -4
 203 0004 0040A0E1 		mov	r4, r0
 362:../generate/drivers/r_spibsc/src/lld/r_spibsc_lld_rza2m.c **** 
 363:../generate/drivers/r_spibsc/src/lld/r_spibsc_lld_rza2m.c ****     /* Release module standby */
 364:../generate/drivers/r_spibsc/src/lld/r_spibsc_lld_rza2m.c ****     spibsc_io_reg_write_8(&CPG.STBCR8.BYTE, 0, CPG_STBCR8_MSTP83_SHIFT, CPG_STBCR8_MSTP83);
 204              		.loc 1 364 0
 205 0008 0830A0E3 		mov	r3, #8
 206 000c 0320A0E3 		mov	r2, #3
 207 0010 0010A0E3 		mov	r1, #0
 208 0014 340400E3 		movw	r0, #1076
 209              	.LVL24:
 210 0018 FE0C4FE3 		movt	r0, 64766
 211 001c FEFFFFEB 		bl	spibsc_io_reg_write_8
 212              	.LVL25:
 365:../generate/drivers/r_spibsc/src/lld/r_spibsc_lld_rza2m.c **** 
 366:../generate/drivers/r_spibsc/src/lld/r_spibsc_lld_rza2m.c ****     /* ---- SCLKSEL.SPICR[1:0] = b'01 : SPIBSC Clock = P1   ---- */
 367:../generate/drivers/r_spibsc/src/lld/r_spibsc_lld_rza2m.c ****     spibsc_io_reg_write_16(&CPG.SCLKSEL.WORD, 0x1, CPG_SCLKSEL_SPICR_SHIFT, CPG_SCLKSEL_SPICR);
 213              		.loc 1 367 0
 214 0020 0330A0E3 		mov	r3, #3
 215 0024 0020A0E3 		mov	r2, #0
 216 0028 0110A0E3 		mov	r1, #1
 217 002c 410FA0E3 		mov	r0, #260
 218 0030 FE0C4FE3 		movt	r0, 64766
 219 0034 FEFFFFEB 		bl	spibsc_io_reg_write_16
 220              	.LVL26:
 368:../generate/drivers/r_spibsc/src/lld/r_spibsc_lld_rza2m.c **** 
 369:../generate/drivers/r_spibsc/src/lld/r_spibsc_lld_rza2m.c **** 
 370:../generate/drivers/r_spibsc/src/lld/r_spibsc_lld_rza2m.c ****     /* ---- CMNCR ---- */
 371:../generate/drivers/r_spibsc/src/lld/r_spibsc_lld_rza2m.c **** 
 372:../generate/drivers/r_spibsc/src/lld/r_spibsc_lld_rza2m.c ****     /* CMNCR.MOIIO3[1:0] = b'11 : QSPIn_IO3 pin status at the time of an idle:HiZ */
 373:../generate/drivers/r_spibsc/src/lld/r_spibsc_lld_rza2m.c ****     spibsc_io_reg_write_32(&SPIBSC.CMNCR.LONG, 0x3, SPIBSC_CMNCR_MOIIO3_SHIFT, SPIBSC_CMNCR_MOIIO3)
 221              		.loc 1 373 0
 222 0038 0335A0E3 		mov	r3, #12582912
 223 003c 1620A0E3 		mov	r2, #22
 224 0040 0310A0E3 		mov	r1, #3
 225 0044 7E05A0E3 		mov	r0, #528482304
 226 0048 FEFFFFEB 		bl	spibsc_io_reg_write_32
 227              	.LVL27:
 374:../generate/drivers/r_spibsc/src/lld/r_spibsc_lld_rza2m.c **** 
 375:../generate/drivers/r_spibsc/src/lld/r_spibsc_lld_rza2m.c ****     /* CMNCR.MOIIO2[1:0] = b'11 : QSPIn_IO2 pin status at the time of an idle :HiZ */
 376:../generate/drivers/r_spibsc/src/lld/r_spibsc_lld_rza2m.c ****     spibsc_io_reg_write_32(&SPIBSC.CMNCR.LONG, 0x3, SPIBSC_CMNCR_MOIIO2_SHIFT, SPIBSC_CMNCR_MOIIO2)
 228              		.loc 1 376 0
 229 004c 0336A0E3 		mov	r3, #3145728
 230 0050 1420A0E3 		mov	r2, #20
 231 0054 0310A0E3 		mov	r1, #3
 232 0058 7E05A0E3 		mov	r0, #528482304
 233 005c FEFFFFEB 		bl	spibsc_io_reg_write_32
 234              	.LVL28:
 377:../generate/drivers/r_spibsc/src/lld/r_spibsc_lld_rza2m.c **** 
 378:../generate/drivers/r_spibsc/src/lld/r_spibsc_lld_rza2m.c ****     /* CMNCR.MOIIO1[1:0] = b'11 : QSPIn_IO1 pin status at the time of an idle :HiZ */
 379:../generate/drivers/r_spibsc/src/lld/r_spibsc_lld_rza2m.c ****     spibsc_io_reg_write_32(&SPIBSC.CMNCR.LONG, 0x3, SPIBSC_CMNCR_MOIIO1_SHIFT, SPIBSC_CMNCR_MOIIO1)
 235              		.loc 1 379 0
 236 0060 0337A0E3 		mov	r3, #786432
 237 0064 1220A0E3 		mov	r2, #18
 238 0068 0310A0E3 		mov	r1, #3
 239 006c 7E05A0E3 		mov	r0, #528482304
 240 0070 FEFFFFEB 		bl	spibsc_io_reg_write_32
 241              	.LVL29:
 380:../generate/drivers/r_spibsc/src/lld/r_spibsc_lld_rza2m.c **** 
 381:../generate/drivers/r_spibsc/src/lld/r_spibsc_lld_rza2m.c ****     /* CMNCR.MOIIO0[1:0] = b'11 : QSPIn_IO0 pin status at the time of an idle :HiZ */
 382:../generate/drivers/r_spibsc/src/lld/r_spibsc_lld_rza2m.c ****     spibsc_io_reg_write_32(&SPIBSC.CMNCR.LONG, 0x3, SPIBSC_CMNCR_MOIIO0_SHIFT, SPIBSC_CMNCR_MOIIO0)
 242              		.loc 1 382 0
 243 0074 0338A0E3 		mov	r3, #196608
 244 0078 1020A0E3 		mov	r2, #16
 245 007c 0310A0E3 		mov	r1, #3
 246 0080 7E05A0E3 		mov	r0, #528482304
 247 0084 FEFFFFEB 		bl	spibsc_io_reg_write_32
 248              	.LVL30:
 383:../generate/drivers/r_spibsc/src/lld/r_spibsc_lld_rza2m.c **** 
 384:../generate/drivers/r_spibsc/src/lld/r_spibsc_lld_rza2m.c ****     /* CMNCR.IO3FV[1:0] = b'11  Output value of QSPIn_IO3 pin when 1 bit / 2 bit is set :HiZ */
 385:../generate/drivers/r_spibsc/src/lld/r_spibsc_lld_rza2m.c ****     spibsc_io_reg_write_32(&SPIBSC.CMNCR.LONG, 0x3, SPIBSC_CMNCR_IO3FV_SHIFT , SPIBSC_CMNCR_IO3FV);
 249              		.loc 1 385 0
 250 0088 0339A0E3 		mov	r3, #49152
 251 008c 0E20A0E3 		mov	r2, #14
 252 0090 0310A0E3 		mov	r1, #3
 253 0094 7E05A0E3 		mov	r0, #528482304
 254 0098 FEFFFFEB 		bl	spibsc_io_reg_write_32
 255              	.LVL31:
 386:../generate/drivers/r_spibsc/src/lld/r_spibsc_lld_rza2m.c **** 
 387:../generate/drivers/r_spibsc/src/lld/r_spibsc_lld_rza2m.c ****     /* CMNCR.IO2FV[1:0] = b'11 : Output value of QSPIn_IO2 pin when 1 bit / 2 bit is set :HiZ */
 388:../generate/drivers/r_spibsc/src/lld/r_spibsc_lld_rza2m.c ****     spibsc_io_reg_write_32(&SPIBSC.CMNCR.LONG, 0x3, SPIBSC_CMNCR_IO2FV_SHIFT , SPIBSC_CMNCR_IO2FV);
 256              		.loc 1 388 0
 257 009c 033AA0E3 		mov	r3, #12288
 258 00a0 0C20A0E3 		mov	r2, #12
 259 00a4 0310A0E3 		mov	r1, #3
 260 00a8 7E05A0E3 		mov	r0, #528482304
 261 00ac FEFFFFEB 		bl	spibsc_io_reg_write_32
 262              	.LVL32:
 389:../generate/drivers/r_spibsc/src/lld/r_spibsc_lld_rza2m.c **** 
 390:../generate/drivers/r_spibsc/src/lld/r_spibsc_lld_rza2m.c ****     /* CMNCR.IO0FV[1:0] = b'11 : Output value of QSPIn_IO0 pin when 1 bit is set :HiZ */
 391:../generate/drivers/r_spibsc/src/lld/r_spibsc_lld_rza2m.c ****     spibsc_io_reg_write_32(&SPIBSC.CMNCR.LONG, 0x3, SPIBSC_CMNCR_IO0FV_SHIFT , SPIBSC_CMNCR_IO0FV);
 263              		.loc 1 391 0
 264 00b0 033CA0E3 		mov	r3, #768
 265 00b4 0820A0E3 		mov	r2, #8
 266 00b8 0310A0E3 		mov	r1, #3
 267 00bc 7E05A0E3 		mov	r0, #528482304
 268 00c0 FEFFFFEB 		bl	spibsc_io_reg_write_32
 269              	.LVL33:
 392:../generate/drivers/r_spibsc/src/lld/r_spibsc_lld_rza2m.c **** 
 393:../generate/drivers/r_spibsc/src/lld/r_spibsc_lld_rza2m.c ****     /* CMNCR.BSZ[1:0] = b'00 :  SPI Flash(x1) */
 394:../generate/drivers/r_spibsc/src/lld/r_spibsc_lld_rza2m.c ****     spibsc_io_reg_write_32(&SPIBSC.CMNCR.LONG, p_spibsc_config_tbl->flash_num, SPIBSC_CMNCR_BSZ_SHI
 270              		.loc 1 394 0
 271 00c4 0330A0E3 		mov	r3, #3
 272 00c8 0020A0E3 		mov	r2, #0
 273 00cc 0110D4E5 		ldrb	r1, [r4, #1]	@ zero_extendqisi2
 274 00d0 7E05A0E3 		mov	r0, #528482304
 275 00d4 FEFFFFEB 		bl	spibsc_io_reg_write_32
 276              	.LVL34:
 395:../generate/drivers/r_spibsc/src/lld/r_spibsc_lld_rza2m.c **** 
 396:../generate/drivers/r_spibsc/src/lld/r_spibsc_lld_rza2m.c ****     /* SSLDR.SPNDL = 0 */
 397:../generate/drivers/r_spibsc/src/lld/r_spibsc_lld_rza2m.c ****     spibsc_io_reg_write_32(&SPIBSC.SSLDR.LONG, 0x0, SPIBSC_SSLDR_SPNDL_SHIFT, SPIBSC_SSLDR_SPNDL);
 277              		.loc 1 397 0
 278 00d8 0440A0E3 		mov	r4, #4
 279              	.LVL35:
 280 00dc 804F41E3 		movt	r4, 8064
 281 00e0 0738A0E3 		mov	r3, #458752
 282 00e4 1020A0E3 		mov	r2, #16
 283 00e8 0010A0E3 		mov	r1, #0
 284 00ec 0400A0E1 		mov	r0, r4
 285 00f0 FEFFFFEB 		bl	spibsc_io_reg_write_32
 286              	.LVL36:
 398:../generate/drivers/r_spibsc/src/lld/r_spibsc_lld_rza2m.c **** 
 399:../generate/drivers/r_spibsc/src/lld/r_spibsc_lld_rza2m.c ****     /* SSLDR.SLNDL = 0 */
 400:../generate/drivers/r_spibsc/src/lld/r_spibsc_lld_rza2m.c ****     spibsc_io_reg_write_32(&SPIBSC.SSLDR.LONG, 0x0, SPIBSC_SSLDR_SLNDL_SHIFT, SPIBSC_SSLDR_SLNDL);
 287              		.loc 1 400 0
 288 00f4 073CA0E3 		mov	r3, #1792
 289 00f8 0820A0E3 		mov	r2, #8
 290 00fc 0010A0E3 		mov	r1, #0
 291 0100 0400A0E1 		mov	r0, r4
 292 0104 FEFFFFEB 		bl	spibsc_io_reg_write_32
 293              	.LVL37:
 401:../generate/drivers/r_spibsc/src/lld/r_spibsc_lld_rza2m.c **** 
 402:../generate/drivers/r_spibsc/src/lld/r_spibsc_lld_rza2m.c ****     /* SSLDR.SCKDL = 0 */
 403:../generate/drivers/r_spibsc/src/lld/r_spibsc_lld_rza2m.c ****     spibsc_io_reg_write_32(&SPIBSC.SSLDR.LONG, 0x0, SPIBSC_SSLDR_SCKDL_SHIFT, SPIBSC_SSLDR_SCKDL);
 294              		.loc 1 403 0
 295 0108 0730A0E3 		mov	r3, #7
 296 010c 0020A0E3 		mov	r2, #0
 297 0110 0210A0E1 		mov	r1, r2
 298 0114 0400A0E1 		mov	r0, r4
 299 0118 FEFFFFEB 		bl	spibsc_io_reg_write_32
 300              	.LVL38:
 404:../generate/drivers/r_spibsc/src/lld/r_spibsc_lld_rza2m.c **** 
 405:../generate/drivers/r_spibsc/src/lld/r_spibsc_lld_rza2m.c ****     /* DRCR.RBURST = 0x3 */
 406:../generate/drivers/r_spibsc/src/lld/r_spibsc_lld_rza2m.c ****     spibsc_io_reg_write_32(&SPIBSC.DRCR.LONG, 0x03, SPIBSC_DRCR_RBURST_SHIFT, SPIBSC_DRCR_RBURST);
 301              		.loc 1 406 0
 302 011c 0C40A0E3 		mov	r4, #12
 303 0120 804F41E3 		movt	r4, 8064
 304 0124 1F38A0E3 		mov	r3, #2031616
 305 0128 1020A0E3 		mov	r2, #16
 306 012c 0310A0E3 		mov	r1, #3
 307 0130 0400A0E1 		mov	r0, r4
 308 0134 FEFFFFEB 		bl	spibsc_io_reg_write_32
 309              	.LVL39:
 407:../generate/drivers/r_spibsc/src/lld/r_spibsc_lld_rza2m.c **** 
 408:../generate/drivers/r_spibsc/src/lld/r_spibsc_lld_rza2m.c ****     /* DRCR.RCF = 1 */
 409:../generate/drivers/r_spibsc/src/lld/r_spibsc_lld_rza2m.c ****     spibsc_io_reg_write_32(&SPIBSC.DRCR.LONG, 0x01, SPIBSC_DRCR_RCF_SHIFT   , SPIBSC_DRCR_RCF);
 310              		.loc 1 409 0
 311 0138 023CA0E3 		mov	r3, #512
 312 013c 0920A0E3 		mov	r2, #9
 313 0140 0110A0E3 		mov	r1, #1
 314 0144 0400A0E1 		mov	r0, r4
 315 0148 FEFFFFEB 		bl	spibsc_io_reg_write_32
 316              	.LVL40:
 410:../generate/drivers/r_spibsc/src/lld/r_spibsc_lld_rza2m.c **** 
 411:../generate/drivers/r_spibsc/src/lld/r_spibsc_lld_rza2m.c ****     /* DRCR.RBE = 1 */
 412:../generate/drivers/r_spibsc/src/lld/r_spibsc_lld_rza2m.c ****     spibsc_io_reg_write_32(&SPIBSC.DRCR.LONG, 0x01, SPIBSC_DRCR_RBE_SHIFT   , SPIBSC_DRCR_RBE);
 317              		.loc 1 412 0
 318 014c 013CA0E3 		mov	r3, #256
 319 0150 0820A0E3 		mov	r2, #8
 320 0154 0110A0E3 		mov	r1, #1
 321 0158 0400A0E1 		mov	r0, r4
 322 015c FEFFFFEB 		bl	spibsc_io_reg_write_32
 323              	.LVL41:
 413:../generate/drivers/r_spibsc/src/lld/r_spibsc_lld_rza2m.c **** 
 414:../generate/drivers/r_spibsc/src/lld/r_spibsc_lld_rza2m.c ****     /* DRCR.SSLE = 1 */
 415:../generate/drivers/r_spibsc/src/lld/r_spibsc_lld_rza2m.c ****     spibsc_io_reg_write_32(&SPIBSC.DRCR.LONG, 0x1, SPIBSC_DRCR_SSLE_SHIFT  , SPIBSC_DRCR_SSLE);
 324              		.loc 1 415 0
 325 0160 0130A0E3 		mov	r3, #1
 326 0164 0020A0E3 		mov	r2, #0
 327 0168 0310A0E1 		mov	r1, r3
 328 016c 0400A0E1 		mov	r0, r4
 329 0170 FEFFFFEB 		bl	spibsc_io_reg_write_32
 330              	.LVL42:
 416:../generate/drivers/r_spibsc/src/lld/r_spibsc_lld_rza2m.c **** 
 417:../generate/drivers/r_spibsc/src/lld/r_spibsc_lld_rza2m.c **** 
 418:../generate/drivers/r_spibsc/src/lld/r_spibsc_lld_rza2m.c ****     /* DREAR.EAV = 0 */
 419:../generate/drivers/r_spibsc/src/lld/r_spibsc_lld_rza2m.c ****     spibsc_io_reg_write_32(&SPIBSC.DREAR.LONG, 0x0, SPIBSC_DREAR_EAV_SHIFT , SPIBSC_DREAR_EAV);
 331              		.loc 1 419 0
 332 0174 1440A0E3 		mov	r4, #20
 333 0178 804F41E3 		movt	r4, 8064
 334 017c FF38A0E3 		mov	r3, #16711680
 335 0180 1020A0E3 		mov	r2, #16
 336 0184 0010A0E3 		mov	r1, #0
 337 0188 0400A0E1 		mov	r0, r4
 338 018c FEFFFFEB 		bl	spibsc_io_reg_write_32
 339              	.LVL43:
 420:../generate/drivers/r_spibsc/src/lld/r_spibsc_lld_rza2m.c ****     /* DREAR.EAC = 0x3 */
 421:../generate/drivers/r_spibsc/src/lld/r_spibsc_lld_rza2m.c ****     spibsc_io_reg_write_32(&SPIBSC.DREAR.LONG, 0x3, SPIBSC_DREAR_EAC_SHIFT , SPIBSC_DREAR_EAC);
 340              		.loc 1 421 0
 341 0190 0730A0E3 		mov	r3, #7
 342 0194 0020A0E3 		mov	r2, #0
 343 0198 0310A0E3 		mov	r1, #3
 344 019c 0400A0E1 		mov	r0, r4
 345 01a0 FEFFFFEB 		bl	spibsc_io_reg_write_32
 346              	.LVL44:
 422:../generate/drivers/r_spibsc/src/lld/r_spibsc_lld_rza2m.c **** 
 423:../generate/drivers/r_spibsc/src/lld/r_spibsc_lld_rza2m.c ****     /* ---- DRDRENR ---- */
 424:../generate/drivers/r_spibsc/src/lld/r_spibsc_lld_rza2m.c ****     spibsc_io_reg_write_32(&SPIBSC.DRDRENR.LONG, 0x0, SPIBSC_DRDRENR_HYPE_SHIFT , SPIBSC_DRDRENR_HY
 347              		.loc 1 424 0
 348 01a4 073AA0E3 		mov	r3, #28672
 349 01a8 0C20A0E3 		mov	r2, #12
 350 01ac 0010A0E3 		mov	r1, #0
 351 01b0 5C00A0E3 		mov	r0, #92
 352 01b4 800F41E3 		movt	r0, 8064
 353 01b8 FEFFFFEB 		bl	spibsc_io_reg_write_32
 354              	.LVL45:
 425:../generate/drivers/r_spibsc/src/lld/r_spibsc_lld_rza2m.c **** 
 426:../generate/drivers/r_spibsc/src/lld/r_spibsc_lld_rza2m.c ****     /* ---- PHYCNT ---- */
 427:../generate/drivers/r_spibsc/src/lld/r_spibsc_lld_rza2m.c ****     spibsc_io_reg_write_32(&SPIBSC.PHYCNT.LONG, 0x3, SPIBSC_PHYCNT_CKSEL_SHIFT   , SPIBSC_PHYCNT_CK
 355              		.loc 1 427 0
 356 01bc 7C40A0E3 		mov	r4, #124
 357 01c0 804F41E3 		movt	r4, 8064
 358 01c4 0338A0E3 		mov	r3, #196608
 359 01c8 1020A0E3 		mov	r2, #16
 360 01cc 0310A0E3 		mov	r1, #3
 361 01d0 0400A0E1 		mov	r0, r4
 362 01d4 FEFFFFEB 		bl	spibsc_io_reg_write_32
 363              	.LVL46:
 428:../generate/drivers/r_spibsc/src/lld/r_spibsc_lld_rza2m.c ****     spibsc_io_reg_write_32(&SPIBSC.PHYCNT.LONG, 0x0, SPIBSC_PHYCNT_CAL_SHIFT     , SPIBSC_PHYCNT_CA
 364              		.loc 1 428 0
 365 01d8 0231A0E3 		mov	r3, #-2147483648
 366 01dc 1F20A0E3 		mov	r2, #31
 367 01e0 0010A0E3 		mov	r1, #0
 368 01e4 0400A0E1 		mov	r0, r4
 369 01e8 FEFFFFEB 		bl	spibsc_io_reg_write_32
 370              	.LVL47:
 429:../generate/drivers/r_spibsc/src/lld/r_spibsc_lld_rza2m.c ****     spibsc_io_reg_write_32(&SPIBSC.PHYCNT.LONG, 0x0, SPIBSC_PHYCNT_ALT_ALIGN_SHIFT, SPIBSC_PHYCNT_A
 371              		.loc 1 429 0
 372 01ec 0131A0E3 		mov	r3, #1073741824
 373 01f0 1E20A0E3 		mov	r2, #30
 374 01f4 0010A0E3 		mov	r1, #0
 375 01f8 0400A0E1 		mov	r0, r4
 376 01fc FEFFFFEB 		bl	spibsc_io_reg_write_32
 377              	.LVL48:
 430:../generate/drivers/r_spibsc/src/lld/r_spibsc_lld_rza2m.c ****     spibsc_io_reg_write_32(&SPIBSC.PHYCNT.LONG, 0x0, SPIBSC_PHYCNT_OCTA_1_0_SHIFT, SPIBSC_PHYCNT_OC
 378              		.loc 1 430 0
 379 0200 0335A0E3 		mov	r3, #12582912
 380 0204 1620A0E3 		mov	r2, #22
 381 0208 0010A0E3 		mov	r1, #0
 382 020c 0400A0E1 		mov	r0, r4
 383 0210 FEFFFFEB 		bl	spibsc_io_reg_write_32
 384              	.LVL49:
 431:../generate/drivers/r_spibsc/src/lld/r_spibsc_lld_rza2m.c ****     spibsc_io_reg_write_32(&SPIBSC.PHYCNT.LONG, 0x0, SPIBSC_PHYCNT_EXDS_SHIFT    , SPIBSC_PHYCNT_EX
 385              		.loc 1 431 0
 386 0214 0236A0E3 		mov	r3, #2097152
 387 0218 1520A0E3 		mov	r2, #21
 388 021c 0010A0E3 		mov	r1, #0
 389 0220 0400A0E1 		mov	r0, r4
 390 0224 FEFFFFEB 		bl	spibsc_io_reg_write_32
 391              	.LVL50:
 432:../generate/drivers/r_spibsc/src/lld/r_spibsc_lld_rza2m.c ****     spibsc_io_reg_write_32(&SPIBSC.PHYCNT.LONG, 0x0, SPIBSC_PHYCNT_OCT_SHIFT     , SPIBSC_PHYCNT_OC
 392              		.loc 1 432 0
 393 0228 0136A0E3 		mov	r3, #1048576
 394 022c 1420A0E3 		mov	r2, #20
 395 0230 0010A0E3 		mov	r1, #0
 396 0234 0400A0E1 		mov	r0, r4
 397 0238 FEFFFFEB 		bl	spibsc_io_reg_write_32
 398              	.LVL51:
 433:../generate/drivers/r_spibsc/src/lld/r_spibsc_lld_rza2m.c ****     spibsc_io_reg_write_32(&SPIBSC.PHYCNT.LONG, 0x0, SPIBSC_PHYCNT_HS_SHIFT      , SPIBSC_PHYCNT_HS
 399              		.loc 1 433 0
 400 023c 0137A0E3 		mov	r3, #262144
 401 0240 1220A0E3 		mov	r2, #18
 402 0244 0010A0E3 		mov	r1, #0
 403 0248 0400A0E1 		mov	r0, r4
 404 024c FEFFFFEB 		bl	spibsc_io_reg_write_32
 405              	.LVL52:
 434:../generate/drivers/r_spibsc/src/lld/r_spibsc_lld_rza2m.c ****     spibsc_io_reg_write_32(&SPIBSC.PHYCNT.LONG, 0x0, SPIBSC_PHYCNT_WBUF2_SHIFT   , SPIBSC_PHYCNT_WB
 406              		.loc 1 434 0
 407 0250 1030A0E3 		mov	r3, #16
 408 0254 0420A0E3 		mov	r2, #4
 409 0258 0010A0E3 		mov	r1, #0
 410 025c 0400A0E1 		mov	r0, r4
 411 0260 FEFFFFEB 		bl	spibsc_io_reg_write_32
 412              	.LVL53:
 435:../generate/drivers/r_spibsc/src/lld/r_spibsc_lld_rza2m.c ****     spibsc_io_reg_write_32(&SPIBSC.PHYCNT.LONG, 0x0, SPIBSC_PHYCNT_WBUF_SHIFT    , SPIBSC_PHYCNT_WB
 413              		.loc 1 435 0
 414 0264 0430A0E3 		mov	r3, #4
 415 0268 0220A0E3 		mov	r2, #2
 416 026c 0010A0E3 		mov	r1, #0
 417 0270 0400A0E1 		mov	r0, r4
 418 0274 FEFFFFEB 		bl	spibsc_io_reg_write_32
 419              	.LVL54:
 436:../generate/drivers/r_spibsc/src/lld/r_spibsc_lld_rza2m.c ****     spibsc_io_reg_write_32(&SPIBSC.PHYCNT.LONG, 0x0, SPIBSC_PHYCNT_PHYMEM_SHIFT  , SPIBSC_PHYCNT_PH
 420              		.loc 1 436 0
 421 0278 0330A0E3 		mov	r3, #3
 422 027c 0020A0E3 		mov	r2, #0
 423 0280 0210A0E1 		mov	r1, r2
 424 0284 0400A0E1 		mov	r0, r4
 425 0288 FEFFFFEB 		bl	spibsc_io_reg_write_32
 426              	.LVL55:
 437:../generate/drivers/r_spibsc/src/lld/r_spibsc_lld_rza2m.c **** 
 438:../generate/drivers/r_spibsc/src/lld/r_spibsc_lld_rza2m.c ****     /* ---- PHYOFFSET1 ---- */
 439:../generate/drivers/r_spibsc/src/lld/r_spibsc_lld_rza2m.c ****     spibsc_io_reg_write_32(&SPIBSC.PHYOFFSET1.LONG, 0x3, SPIBSC_PHYOFFSET1_DDRTMG_SHIFT, SPIBSC_PHY
 427              		.loc 1 439 0
 428 028c 0332A0E3 		mov	r3, #805306368
 429 0290 1C20A0E3 		mov	r2, #28
 430 0294 0310A0E3 		mov	r1, #3
 431 0298 8000A0E3 		mov	r0, #128
 432 029c 800F41E3 		movt	r0, 8064
 433 02a0 FEFFFFEB 		bl	spibsc_io_reg_write_32
 434              	.LVL56:
 440:../generate/drivers/r_spibsc/src/lld/r_spibsc_lld_rza2m.c **** 
 441:../generate/drivers/r_spibsc/src/lld/r_spibsc_lld_rza2m.c ****     /* ---- PHYOFFSET2 ---- */
 442:../generate/drivers/r_spibsc/src/lld/r_spibsc_lld_rza2m.c ****     spibsc_io_reg_write_32(&SPIBSC.PHYOFFSET2.LONG, 0x4, SPIBSC_PHYOFFSET2_OCTTMG_SHIFT, SPIBSC_PHY
 435              		.loc 1 442 0
 436 02a4 073CA0E3 		mov	r3, #1792
 437 02a8 0820A0E3 		mov	r2, #8
 438 02ac 0410A0E3 		mov	r1, #4
 439 02b0 8400A0E3 		mov	r0, #132
 440 02b4 800F41E3 		movt	r0, 8064
 441 02b8 FEFFFFEB 		bl	spibsc_io_reg_write_32
 442              	.LVL57:
 443:../generate/drivers/r_spibsc/src/lld/r_spibsc_lld_rza2m.c **** 
 444:../generate/drivers/r_spibsc/src/lld/r_spibsc_lld_rza2m.c ****     /* PHY Reg Access Enable */
 445:../generate/drivers/r_spibsc/src/lld/r_spibsc_lld_rza2m.c ****     spibsc_io_reg_write_32(&SPIBSC.PHYADJ2.LONG, 0xA5390000, IOREG_NONSHIFT_ACCESS, IOREG_NONMASK_A
 443              		.loc 1 445 0
 444 02bc 7450A0E3 		mov	r5, #116
 445 02c0 805F41E3 		movt	r5, 8064
 446 02c4 0030E0E3 		mvn	r3, #0
 447 02c8 0020A0E3 		mov	r2, #0
 448 02cc 0210A0E1 		mov	r1, r2
 449 02d0 39154AE3 		movt	r1, 42297
 450 02d4 0500A0E1 		mov	r0, r5
 451 02d8 FEFFFFEB 		bl	spibsc_io_reg_write_32
 452              	.LVL58:
 446:../generate/drivers/r_spibsc/src/lld/r_spibsc_lld_rza2m.c ****     spibsc_io_reg_write_32(&SPIBSC.PHYADJ1.LONG, 0x80000000, IOREG_NONSHIFT_ACCESS, IOREG_NONMASK_A
 453              		.loc 1 446 0
 454 02dc 7040A0E3 		mov	r4, #112
 455 02e0 804F41E3 		movt	r4, 8064
 456 02e4 0030E0E3 		mvn	r3, #0
 457 02e8 0020A0E3 		mov	r2, #0
 458 02ec 0211A0E3 		mov	r1, #-2147483648
 459 02f0 0400A0E1 		mov	r0, r4
 460 02f4 FEFFFFEB 		bl	spibsc_io_reg_write_32
 461              	.LVL59:
 447:../generate/drivers/r_spibsc/src/lld/r_spibsc_lld_rza2m.c **** 
 448:../generate/drivers/r_spibsc/src/lld/r_spibsc_lld_rza2m.c ****     /* Set PHY Timing Adjust Reg.(for SDR) */
 449:../generate/drivers/r_spibsc/src/lld/r_spibsc_lld_rza2m.c ****     spibsc_io_reg_write_32(&SPIBSC.PHYADJ2.LONG, 0x00008080, IOREG_NONSHIFT_ACCESS, IOREG_NONMASK_A
 462              		.loc 1 449 0
 463 02f8 0030E0E3 		mvn	r3, #0
 464 02fc 0020A0E3 		mov	r2, #0
 465 0300 801008E3 		movw	r1, #32896
 466 0304 0500A0E1 		mov	r0, r5
 467 0308 FEFFFFEB 		bl	spibsc_io_reg_write_32
 468              	.LVL60:
 450:../generate/drivers/r_spibsc/src/lld/r_spibsc_lld_rza2m.c ****     spibsc_io_reg_write_32(&SPIBSC.PHYADJ1.LONG, 0x80000022, IOREG_NONSHIFT_ACCESS, IOREG_NONMASK_A
 469              		.loc 1 450 0
 470 030c 0030E0E3 		mvn	r3, #0
 471 0310 0020A0E3 		mov	r2, #0
 472 0314 8A11A0E3 		mov	r1, #-2147483614
 473 0318 0400A0E1 		mov	r0, r4
 474 031c FEFFFFEB 		bl	spibsc_io_reg_write_32
 475              	.LVL61:
 451:../generate/drivers/r_spibsc/src/lld/r_spibsc_lld_rza2m.c ****     spibsc_io_reg_write_32(&SPIBSC.PHYADJ2.LONG, 0x00008080, IOREG_NONSHIFT_ACCESS, IOREG_NONMASK_A
 476              		.loc 1 451 0
 477 0320 0030E0E3 		mvn	r3, #0
 478 0324 0020A0E3 		mov	r2, #0
 479 0328 801008E3 		movw	r1, #32896
 480 032c 0500A0E1 		mov	r0, r5
 481 0330 FEFFFFEB 		bl	spibsc_io_reg_write_32
 482              	.LVL62:
 452:../generate/drivers/r_spibsc/src/lld/r_spibsc_lld_rza2m.c ****     spibsc_io_reg_write_32(&SPIBSC.PHYADJ1.LONG, 0x80000024, IOREG_NONSHIFT_ACCESS, IOREG_NONMASK_A
 483              		.loc 1 452 0
 484 0334 0030E0E3 		mvn	r3, #0
 485 0338 0020A0E3 		mov	r2, #0
 486 033c 9211A0E3 		mov	r1, #-2147483612
 487 0340 0400A0E1 		mov	r0, r4
 488 0344 FEFFFFEB 		bl	spibsc_io_reg_write_32
 489              	.LVL63:
 453:../generate/drivers/r_spibsc/src/lld/r_spibsc_lld_rza2m.c **** 
 454:../generate/drivers/r_spibsc/src/lld/r_spibsc_lld_rza2m.c ****     /* Set PHY Timing Adjust(for SDR) */
 455:../generate/drivers/r_spibsc/src/lld/r_spibsc_lld_rza2m.c ****     spibsc_io_reg_write_32(&SPIBSC.PHYADJ2.LONG, 0x00000000, IOREG_NONSHIFT_ACCESS, IOREG_NONMASK_A
 490              		.loc 1 455 0
 491 0348 0030E0E3 		mvn	r3, #0
 492 034c 0020A0E3 		mov	r2, #0
 493 0350 0210A0E1 		mov	r1, r2
 494 0354 0500A0E1 		mov	r0, r5
 495 0358 FEFFFFEB 		bl	spibsc_io_reg_write_32
 496              	.LVL64:
 456:../generate/drivers/r_spibsc/src/lld/r_spibsc_lld_rza2m.c ****     spibsc_io_reg_write_32(&SPIBSC.PHYADJ1.LONG, 0x80000032, IOREG_NONSHIFT_ACCESS, IOREG_NONMASK_A
 497              		.loc 1 456 0
 498 035c 0030E0E3 		mvn	r3, #0
 499 0360 0020A0E3 		mov	r2, #0
 500 0364 CA11A0E3 		mov	r1, #-2147483598
 501 0368 0400A0E1 		mov	r0, r4
 502 036c FEFFFFEB 		bl	spibsc_io_reg_write_32
 503              	.LVL65:
 457:../generate/drivers/r_spibsc/src/lld/r_spibsc_lld_rza2m.c **** 
 458:../generate/drivers/r_spibsc/src/lld/r_spibsc_lld_rza2m.c **** }
 504              		.loc 1 458 0
 505 0370 7080BDE8 		pop	{r4, r5, r6, pc}
 506              		.cfi_endproc
 507              	.LFE6:
 509              		.section	.text.r_spibsc_port_voltage_setting,"ax",%progbits
 510              		.align	2
 511              		.syntax unified
 512              		.arm
 513              		.fpu neon
 515              	r_spibsc_port_voltage_setting:
 516              	.LFB7:
 459:../generate/drivers/r_spibsc/src/lld/r_spibsc_lld_rza2m.c **** /*******************************************************************************
 460:../generate/drivers/r_spibsc/src/lld/r_spibsc_lld_rza2m.c **** End of function r_spibsc_common_spiflash_init
 461:../generate/drivers/r_spibsc/src/lld/r_spibsc_lld_rza2m.c **** *******************************************************************************/
 462:../generate/drivers/r_spibsc/src/lld/r_spibsc_lld_rza2m.c **** 
 463:../generate/drivers/r_spibsc/src/lld/r_spibsc_lld_rza2m.c **** 
 464:../generate/drivers/r_spibsc/src/lld/r_spibsc_lld_rza2m.c **** /*******************************************************************************
 465:../generate/drivers/r_spibsc/src/lld/r_spibsc_lld_rza2m.c **** * Function Name: r_spibsc_port_voltage_setting
 466:../generate/drivers/r_spibsc/src/lld/r_spibsc_lld_rza2m.c **** * Description  : voltage setting of SPIBSC pin
 467:../generate/drivers/r_spibsc/src/lld/r_spibsc_lld_rza2m.c **** * Arguments    : uint8_t voltage
 468:../generate/drivers/r_spibsc/src/lld/r_spibsc_lld_rza2m.c **** * Return Value : none
 469:../generate/drivers/r_spibsc/src/lld/r_spibsc_lld_rza2m.c **** *******************************************************************************/
 470:../generate/drivers/r_spibsc/src/lld/r_spibsc_lld_rza2m.c **** static void r_spibsc_port_voltage_setting(uint8_t voltage)
 471:../generate/drivers/r_spibsc/src/lld/r_spibsc_lld_rza2m.c **** {
 517              		.loc 1 471 0
 518              		.cfi_startproc
 519              		@ args = 0, pretend = 0, frame = 0
 520              		@ frame_needed = 0, uses_anonymous_args = 0
 521              	.LVL66:
 522 0000 70402DE9 		push	{r4, r5, r6, lr}
 523              		.cfi_def_cfa_offset 16
 524              		.cfi_offset 4, -16
 525              		.cfi_offset 5, -12
 526              		.cfi_offset 6, -8
 527              		.cfi_offset 14, -4
 528              	.LVL67:
 472:../generate/drivers/r_spibsc/src/lld/r_spibsc_lld_rza2m.c ****     uint32_t pocsel0_value = 0x1;
 473:../generate/drivers/r_spibsc/src/lld/r_spibsc_lld_rza2m.c ****     uint32_t poc0_value = 0x1;
 474:../generate/drivers/r_spibsc/src/lld/r_spibsc_lld_rza2m.c **** 
 475:../generate/drivers/r_spibsc/src/lld/r_spibsc_lld_rza2m.c ****     if (SPIBSC_PORT_VOLTAGE_1_8V == voltage)
 529              		.loc 1 475 0
 530 0004 010050E3 		cmp	r0, #1
 531 0008 0D00000A 		beq	.L17
 472:../generate/drivers/r_spibsc/src/lld/r_spibsc_lld_rza2m.c ****     uint32_t pocsel0_value = 0x1;
 532              		.loc 1 472 0
 533 000c 0150A0E3 		mov	r5, #1
 534              	.L14:
 535              	.LVL68:
 476:../generate/drivers/r_spibsc/src/lld/r_spibsc_lld_rza2m.c ****     {
 477:../generate/drivers/r_spibsc/src/lld/r_spibsc_lld_rza2m.c ****         pocsel0_value = 0x0;
 478:../generate/drivers/r_spibsc/src/lld/r_spibsc_lld_rza2m.c ****         poc0_value = 0x0;
 479:../generate/drivers/r_spibsc/src/lld/r_spibsc_lld_rza2m.c ****     }
 480:../generate/drivers/r_spibsc/src/lld/r_spibsc_lld_rza2m.c ****     else if ( SPIBSC_PORT_VOLTAGE_3_3V == voltage)
 481:../generate/drivers/r_spibsc/src/lld/r_spibsc_lld_rza2m.c ****     {
 482:../generate/drivers/r_spibsc/src/lld/r_spibsc_lld_rza2m.c ****         pocsel0_value = 0x1;
 483:../generate/drivers/r_spibsc/src/lld/r_spibsc_lld_rza2m.c ****         poc0_value = 0x1;
 484:../generate/drivers/r_spibsc/src/lld/r_spibsc_lld_rza2m.c ****     }
 485:../generate/drivers/r_spibsc/src/lld/r_spibsc_lld_rza2m.c ****     else
 486:../generate/drivers/r_spibsc/src/lld/r_spibsc_lld_rza2m.c ****     {
 487:../generate/drivers/r_spibsc/src/lld/r_spibsc_lld_rza2m.c ****         /* 3.3V */
 488:../generate/drivers/r_spibsc/src/lld/r_spibsc_lld_rza2m.c ****     }
 489:../generate/drivers/r_spibsc/src/lld/r_spibsc_lld_rza2m.c **** 
 490:../generate/drivers/r_spibsc/src/lld/r_spibsc_lld_rza2m.c ****     /* PPOC */
 491:../generate/drivers/r_spibsc/src/lld/r_spibsc_lld_rza2m.c ****     spibsc_io_reg_write_32(&GPIO.PPOC.LONG, pocsel0_value, GPIO_PPOC_POCSEL0_SHIFT, GPIO_PPOC_POCSE
 536              		.loc 1 491 0
 537 0010 E94CA0E3 		mov	r4, #59648
 538 0014 FF4C4FE3 		movt	r4, 64767
 539 0018 013CA0E3 		mov	r3, #256
 540 001c 0820A0E3 		mov	r2, #8
 541 0020 0510A0E1 		mov	r1, r5
 542 0024 0400A0E1 		mov	r0, r4
 543              	.LVL69:
 544 0028 FEFFFFEB 		bl	spibsc_io_reg_write_32
 545              	.LVL70:
 492:../generate/drivers/r_spibsc/src/lld/r_spibsc_lld_rza2m.c ****     spibsc_io_reg_write_32(&GPIO.PPOC.LONG, poc0_value, GPIO_PPOC_POC0_SHIFT,    GPIO_PPOC_POC0);
 546              		.loc 1 492 0
 547 002c 0130A0E3 		mov	r3, #1
 548 0030 0020A0E3 		mov	r2, #0
 549 0034 0510A0E1 		mov	r1, r5
 550 0038 0400A0E1 		mov	r0, r4
 551 003c FEFFFFEB 		bl	spibsc_io_reg_write_32
 552              	.LVL71:
 493:../generate/drivers/r_spibsc/src/lld/r_spibsc_lld_rza2m.c **** 
 494:../generate/drivers/r_spibsc/src/lld/r_spibsc_lld_rza2m.c **** }
 553              		.loc 1 494 0
 554 0040 7080BDE8 		pop	{r4, r5, r6, pc}
 555              	.LVL72:
 556              	.L17:
 477:../generate/drivers/r_spibsc/src/lld/r_spibsc_lld_rza2m.c ****         poc0_value = 0x0;
 557              		.loc 1 477 0
 558 0044 0050A0E3 		mov	r5, #0
 559 0048 F0FFFFEA 		b	.L14
 560              		.cfi_endproc
 561              	.LFE7:
 563              		.section	.text.r_spibsc_port_current_setting,"ax",%progbits
 564              		.align	2
 565              		.syntax unified
 566              		.arm
 567              		.fpu neon
 569              	r_spibsc_port_current_setting:
 570              	.LFB8:
 495:../generate/drivers/r_spibsc/src/lld/r_spibsc_lld_rza2m.c **** /*******************************************************************************
 496:../generate/drivers/r_spibsc/src/lld/r_spibsc_lld_rza2m.c **** End of function r_spibsc_port_voltage_setting
 497:../generate/drivers/r_spibsc/src/lld/r_spibsc_lld_rza2m.c **** *******************************************************************************/
 498:../generate/drivers/r_spibsc/src/lld/r_spibsc_lld_rza2m.c **** 
 499:../generate/drivers/r_spibsc/src/lld/r_spibsc_lld_rza2m.c **** 
 500:../generate/drivers/r_spibsc/src/lld/r_spibsc_lld_rza2m.c **** 
 501:../generate/drivers/r_spibsc/src/lld/r_spibsc_lld_rza2m.c **** /*******************************************************************************
 502:../generate/drivers/r_spibsc/src/lld/r_spibsc_lld_rza2m.c **** * Function Name: r_spibsc_port_current_setting
 503:../generate/drivers/r_spibsc/src/lld/r_spibsc_lld_rza2m.c **** * Description  : Current setting of SPIBSC pin
 504:../generate/drivers/r_spibsc/src/lld/r_spibsc_lld_rza2m.c **** * Arguments    : uint8_t voltage
 505:../generate/drivers/r_spibsc/src/lld/r_spibsc_lld_rza2m.c **** * Return Value : none
 506:../generate/drivers/r_spibsc/src/lld/r_spibsc_lld_rza2m.c **** *******************************************************************************/
 507:../generate/drivers/r_spibsc/src/lld/r_spibsc_lld_rza2m.c **** static void r_spibsc_port_current_setting(uint8_t voltage)
 508:../generate/drivers/r_spibsc/src/lld/r_spibsc_lld_rza2m.c **** {
 571              		.loc 1 508 0
 572              		.cfi_startproc
 573              		@ args = 0, pretend = 0, frame = 0
 574              		@ frame_needed = 0, uses_anonymous_args = 0
 575              	.LVL73:
 576 0000 70402DE9 		push	{r4, r5, r6, lr}
 577              		.cfi_def_cfa_offset 16
 578              		.cfi_offset 4, -16
 579              		.cfi_offset 5, -12
 580              		.cfi_offset 6, -8
 581              		.cfi_offset 14, -4
 582              	.LVL74:
 509:../generate/drivers/r_spibsc/src/lld/r_spibsc_lld_rza2m.c ****     uint32_t reg_value = 0x1;
 510:../generate/drivers/r_spibsc/src/lld/r_spibsc_lld_rza2m.c ****     
 511:../generate/drivers/r_spibsc/src/lld/r_spibsc_lld_rza2m.c ****     if( SPIBSC_PORT_VOLTAGE_1_8V == voltage)
 583              		.loc 1 511 0
 584 0004 010050E3 		cmp	r0, #1
 585 0008 4900000A 		beq	.L22
 509:../generate/drivers/r_spibsc/src/lld/r_spibsc_lld_rza2m.c ****     uint32_t reg_value = 0x1;
 586              		.loc 1 509 0
 587 000c 0150A0E3 		mov	r5, #1
 588              	.L19:
 589              	.LVL75:
 512:../generate/drivers/r_spibsc/src/lld/r_spibsc_lld_rza2m.c ****     {
 513:../generate/drivers/r_spibsc/src/lld/r_spibsc_lld_rza2m.c ****         reg_value = 0x3;   /* 1.8V : 12mA */
 514:../generate/drivers/r_spibsc/src/lld/r_spibsc_lld_rza2m.c ****     }
 515:../generate/drivers/r_spibsc/src/lld/r_spibsc_lld_rza2m.c ****     else if( SPIBSC_PORT_VOLTAGE_3_3V == voltage)
 516:../generate/drivers/r_spibsc/src/lld/r_spibsc_lld_rza2m.c ****     {
 517:../generate/drivers/r_spibsc/src/lld/r_spibsc_lld_rza2m.c ****         reg_value = 0x1;   /* 3.3V : 8mA */
 518:../generate/drivers/r_spibsc/src/lld/r_spibsc_lld_rza2m.c ****     }
 519:../generate/drivers/r_spibsc/src/lld/r_spibsc_lld_rza2m.c ****     else
 520:../generate/drivers/r_spibsc/src/lld/r_spibsc_lld_rza2m.c ****     {
 521:../generate/drivers/r_spibsc/src/lld/r_spibsc_lld_rza2m.c ****         /* Do Nothing */
 522:../generate/drivers/r_spibsc/src/lld/r_spibsc_lld_rza2m.c ****     }
 523:../generate/drivers/r_spibsc/src/lld/r_spibsc_lld_rza2m.c **** 
 524:../generate/drivers/r_spibsc/src/lld/r_spibsc_lld_rza2m.c ****     /* PSPIBSC */
 525:../generate/drivers/r_spibsc/src/lld/r_spibsc_lld_rza2m.c ****     spibsc_io_reg_write_32(&GPIO.PSPIBSC.LONG, reg_value, GPIO_PSPIBSC_QSPI0_SPCLK_DRV_SHIFT,  GPIO
 590              		.loc 1 525 0
 591 0010 60490EE3 		movw	r4, #59744
 592 0014 FF4C4FE3 		movt	r4, 64767
 593 0018 0330A0E3 		mov	r3, #3
 594 001c 0020A0E3 		mov	r2, #0
 595 0020 0510A0E1 		mov	r1, r5
 596 0024 0400A0E1 		mov	r0, r4
 597              	.LVL76:
 598 0028 FEFFFFEB 		bl	spibsc_io_reg_write_32
 599              	.LVL77:
 526:../generate/drivers/r_spibsc/src/lld/r_spibsc_lld_rza2m.c ****     spibsc_io_reg_write_32(&GPIO.PSPIBSC.LONG, reg_value, GPIO_PSPIBSC_QSPI0_IO0_DRV_SHIFT,    GPIO
 600              		.loc 1 526 0
 601 002c 0C30A0E3 		mov	r3, #12
 602 0030 0220A0E3 		mov	r2, #2
 603 0034 0510A0E1 		mov	r1, r5
 604 0038 0400A0E1 		mov	r0, r4
 605 003c FEFFFFEB 		bl	spibsc_io_reg_write_32
 606              	.LVL78:
 527:../generate/drivers/r_spibsc/src/lld/r_spibsc_lld_rza2m.c ****     spibsc_io_reg_write_32(&GPIO.PSPIBSC.LONG, reg_value, GPIO_PSPIBSC_QSPI0_IO1_DRV_SHIFT,    GPIO
 607              		.loc 1 527 0
 608 0040 3030A0E3 		mov	r3, #48
 609 0044 0420A0E3 		mov	r2, #4
 610 0048 0510A0E1 		mov	r1, r5
 611 004c 0400A0E1 		mov	r0, r4
 612 0050 FEFFFFEB 		bl	spibsc_io_reg_write_32
 613              	.LVL79:
 528:../generate/drivers/r_spibsc/src/lld/r_spibsc_lld_rza2m.c ****     spibsc_io_reg_write_32(&GPIO.PSPIBSC.LONG, reg_value, GPIO_PSPIBSC_QSPI0_IO2_DRV_SHIFT,    GPIO
 614              		.loc 1 528 0
 615 0054 C030A0E3 		mov	r3, #192
 616 0058 0620A0E3 		mov	r2, #6
 617 005c 0510A0E1 		mov	r1, r5
 618 0060 0400A0E1 		mov	r0, r4
 619 0064 FEFFFFEB 		bl	spibsc_io_reg_write_32
 620              	.LVL80:
 529:../generate/drivers/r_spibsc/src/lld/r_spibsc_lld_rza2m.c ****     spibsc_io_reg_write_32(&GPIO.PSPIBSC.LONG, reg_value, GPIO_PSPIBSC_QSPI0_IO3_DRV_SHIFT,    GPIO
 621              		.loc 1 529 0
 622 0068 033CA0E3 		mov	r3, #768
 623 006c 0820A0E3 		mov	r2, #8
 624 0070 0510A0E1 		mov	r1, r5
 625 0074 0400A0E1 		mov	r0, r4
 626 0078 FEFFFFEB 		bl	spibsc_io_reg_write_32
 627              	.LVL81:
 530:../generate/drivers/r_spibsc/src/lld/r_spibsc_lld_rza2m.c ****     spibsc_io_reg_write_32(&GPIO.PSPIBSC.LONG, reg_value, GPIO_PSPIBSC_QSPI0_SSL_DRV_SHIFT,    GPIO
 628              		.loc 1 530 0
 629 007c 033BA0E3 		mov	r3, #3072
 630 0080 0A20A0E3 		mov	r2, #10
 631 0084 0510A0E1 		mov	r1, r5
 632 0088 0400A0E1 		mov	r0, r4
 633 008c FEFFFFEB 		bl	spibsc_io_reg_write_32
 634              	.LVL82:
 531:../generate/drivers/r_spibsc/src/lld/r_spibsc_lld_rza2m.c ****     spibsc_io_reg_write_32(&GPIO.PSPIBSC.LONG, reg_value, GPIO_PSPIBSC_RPC_RESETN_DRV_SHIFT,   GPIO
 635              		.loc 1 531 0
 636 0090 033AA0E3 		mov	r3, #12288
 637 0094 0C20A0E3 		mov	r2, #12
 638 0098 0510A0E1 		mov	r1, r5
 639 009c 0400A0E1 		mov	r0, r4
 640 00a0 FEFFFFEB 		bl	spibsc_io_reg_write_32
 641              	.LVL83:
 532:../generate/drivers/r_spibsc/src/lld/r_spibsc_lld_rza2m.c **** 
 533:../generate/drivers/r_spibsc/src/lld/r_spibsc_lld_rza2m.c ****     spibsc_io_reg_write_32(&GPIO.PSPIBSC.LONG, reg_value, GPIO_PSPIBSC_RPC_WPN_DRV_SHIFT,      GPIO
 642              		.loc 1 533 0
 643 00a4 0339A0E3 		mov	r3, #49152
 644 00a8 0E20A0E3 		mov	r2, #14
 645 00ac 0510A0E1 		mov	r1, r5
 646 00b0 0400A0E1 		mov	r0, r4
 647 00b4 FEFFFFEB 		bl	spibsc_io_reg_write_32
 648              	.LVL84:
 534:../generate/drivers/r_spibsc/src/lld/r_spibsc_lld_rza2m.c ****     spibsc_io_reg_write_32(&GPIO.PSPIBSC.LONG, reg_value, GPIO_PSPIBSC_QSPI1_SPCLK_DRV_SHIFT,  GPIO
 649              		.loc 1 534 0
 650 00b8 0338A0E3 		mov	r3, #196608
 651 00bc 1020A0E3 		mov	r2, #16
 652 00c0 0510A0E1 		mov	r1, r5
 653 00c4 0400A0E1 		mov	r0, r4
 654 00c8 FEFFFFEB 		bl	spibsc_io_reg_write_32
 655              	.LVL85:
 535:../generate/drivers/r_spibsc/src/lld/r_spibsc_lld_rza2m.c ****     spibsc_io_reg_write_32(&GPIO.PSPIBSC.LONG, reg_value, GPIO_PSPIBSC_QSPI1_IO0_DRV_SHIFT,    GPIO
 656              		.loc 1 535 0
 657 00cc 0337A0E3 		mov	r3, #786432
 658 00d0 1220A0E3 		mov	r2, #18
 659 00d4 0510A0E1 		mov	r1, r5
 660 00d8 0400A0E1 		mov	r0, r4
 661 00dc FEFFFFEB 		bl	spibsc_io_reg_write_32
 662              	.LVL86:
 536:../generate/drivers/r_spibsc/src/lld/r_spibsc_lld_rza2m.c ****     spibsc_io_reg_write_32(&GPIO.PSPIBSC.LONG, reg_value, GPIO_PSPIBSC_QSPI1_IO1_DRV_SHIFT,    GPIO
 663              		.loc 1 536 0
 664 00e0 0336A0E3 		mov	r3, #3145728
 665 00e4 1420A0E3 		mov	r2, #20
 666 00e8 0510A0E1 		mov	r1, r5
 667 00ec 0400A0E1 		mov	r0, r4
 668 00f0 FEFFFFEB 		bl	spibsc_io_reg_write_32
 669              	.LVL87:
 537:../generate/drivers/r_spibsc/src/lld/r_spibsc_lld_rza2m.c ****     spibsc_io_reg_write_32(&GPIO.PSPIBSC.LONG, reg_value, GPIO_PSPIBSC_QSPI1_IO2_DRV_SHIFT,    GPIO
 670              		.loc 1 537 0
 671 00f4 0335A0E3 		mov	r3, #12582912
 672 00f8 1620A0E3 		mov	r2, #22
 673 00fc 0510A0E1 		mov	r1, r5
 674 0100 0400A0E1 		mov	r0, r4
 675 0104 FEFFFFEB 		bl	spibsc_io_reg_write_32
 676              	.LVL88:
 538:../generate/drivers/r_spibsc/src/lld/r_spibsc_lld_rza2m.c ****     spibsc_io_reg_write_32(&GPIO.PSPIBSC.LONG, reg_value, GPIO_PSPIBSC_QSPI1_IO3_DRV_SHIFT,    GPIO
 677              		.loc 1 538 0
 678 0108 0334A0E3 		mov	r3, #50331648
 679 010c 1820A0E3 		mov	r2, #24
 680 0110 0510A0E1 		mov	r1, r5
 681 0114 0400A0E1 		mov	r0, r4
 682 0118 FEFFFFEB 		bl	spibsc_io_reg_write_32
 683              	.LVL89:
 539:../generate/drivers/r_spibsc/src/lld/r_spibsc_lld_rza2m.c ****     spibsc_io_reg_write_32(&GPIO.PSPIBSC.LONG, reg_value, GPIO_PSPIBSC_QSPI1_SSL_DRV_SHIFT,    GPIO
 684              		.loc 1 539 0
 685 011c 0333A0E3 		mov	r3, #201326592
 686 0120 1A20A0E3 		mov	r2, #26
 687 0124 0510A0E1 		mov	r1, r5
 688 0128 0400A0E1 		mov	r0, r4
 689 012c FEFFFFEB 		bl	spibsc_io_reg_write_32
 690              	.LVL90:
 540:../generate/drivers/r_spibsc/src/lld/r_spibsc_lld_rza2m.c **** 
 541:../generate/drivers/r_spibsc/src/lld/r_spibsc_lld_rza2m.c **** }
 691              		.loc 1 541 0
 692 0130 7080BDE8 		pop	{r4, r5, r6, pc}
 693              	.LVL91:
 694              	.L22:
 513:../generate/drivers/r_spibsc/src/lld/r_spibsc_lld_rza2m.c ****     }
 695              		.loc 1 513 0
 696 0134 0350A0E3 		mov	r5, #3
 697 0138 B4FFFFEA 		b	.L19
 698              		.cfi_endproc
 699              	.LFE8:
 701              		.section	.text.r_spibsc_manual_assert_ssl,"ax",%progbits
 702              		.align	2
 703              		.syntax unified
 704              		.arm
 705              		.fpu neon
 707              	r_spibsc_manual_assert_ssl:
 708              	.LFB9:
 542:../generate/drivers/r_spibsc/src/lld/r_spibsc_lld_rza2m.c **** /*******************************************************************************
 543:../generate/drivers/r_spibsc/src/lld/r_spibsc_lld_rza2m.c **** End of function r_spibsc_port_current_setting
 544:../generate/drivers/r_spibsc/src/lld/r_spibsc_lld_rza2m.c **** *******************************************************************************/
 545:../generate/drivers/r_spibsc/src/lld/r_spibsc_lld_rza2m.c **** 
 546:../generate/drivers/r_spibsc/src/lld/r_spibsc_lld_rza2m.c **** 
 547:../generate/drivers/r_spibsc/src/lld/r_spibsc_lld_rza2m.c **** 
 548:../generate/drivers/r_spibsc/src/lld/r_spibsc_lld_rza2m.c **** 
 549:../generate/drivers/r_spibsc/src/lld/r_spibsc_lld_rza2m.c **** /*******************************************************************************
 550:../generate/drivers/r_spibsc/src/lld/r_spibsc_lld_rza2m.c **** * Function Name: r_spibsc_manual_assert_ssl
 551:../generate/drivers/r_spibsc/src/lld/r_spibsc_lld_rza2m.c **** * Description  : SSL assert keep
 552:../generate/drivers/r_spibsc/src/lld/r_spibsc_lld_rza2m.c **** * Arguments    : none
 553:../generate/drivers/r_spibsc/src/lld/r_spibsc_lld_rza2m.c **** * Return Value : none
 554:../generate/drivers/r_spibsc/src/lld/r_spibsc_lld_rza2m.c **** *******************************************************************************/
 555:../generate/drivers/r_spibsc/src/lld/r_spibsc_lld_rza2m.c **** static void r_spibsc_manual_assert_ssl(void)
 556:../generate/drivers/r_spibsc/src/lld/r_spibsc_lld_rza2m.c **** {
 709              		.loc 1 556 0
 710              		.cfi_startproc
 711              		@ args = 0, pretend = 0, frame = 0
 712              		@ frame_needed = 0, uses_anonymous_args = 0
 713 0000 10402DE9 		push	{r4, lr}
 714              		.cfi_def_cfa_offset 8
 715              		.cfi_offset 4, -8
 716              		.cfi_offset 14, -4
 557:../generate/drivers/r_spibsc/src/lld/r_spibsc_lld_rza2m.c ****     /* SMCR.SSLKP = 1 :  (QSPIn_SSL signal level is maintained from the end of transfer 
 558:../generate/drivers/r_spibsc/src/lld/r_spibsc_lld_rza2m.c ****        to the start of next access)*/
 559:../generate/drivers/r_spibsc/src/lld/r_spibsc_lld_rza2m.c ****     spibsc_io_reg_write_32(&SPIBSC.SMCR.LONG, 1, SPIBSC_SMCR_SSLKP_SHIFT, SPIBSC_SMCR_SSLKP);
 717              		.loc 1 559 0
 718 0004 013CA0E3 		mov	r3, #256
 719 0008 0820A0E3 		mov	r2, #8
 720 000c 0110A0E3 		mov	r1, #1
 721 0010 2000A0E3 		mov	r0, #32
 722 0014 800F41E3 		movt	r0, 8064
 723 0018 FEFFFFEB 		bl	spibsc_io_reg_write_32
 724              	.LVL92:
 560:../generate/drivers/r_spibsc/src/lld/r_spibsc_lld_rza2m.c **** }
 725              		.loc 1 560 0
 726 001c 1080BDE8 		pop	{r4, pc}
 727              		.cfi_endproc
 728              	.LFE9:
 730              		.section	.text.r_spibsc_manual_negate_ssl,"ax",%progbits
 731              		.align	2
 732              		.syntax unified
 733              		.arm
 734              		.fpu neon
 736              	r_spibsc_manual_negate_ssl:
 737              	.LFB10:
 561:../generate/drivers/r_spibsc/src/lld/r_spibsc_lld_rza2m.c **** /*******************************************************************************
 562:../generate/drivers/r_spibsc/src/lld/r_spibsc_lld_rza2m.c **** End of function r_spibsc_manual_assert_ssl
 563:../generate/drivers/r_spibsc/src/lld/r_spibsc_lld_rza2m.c **** *******************************************************************************/
 564:../generate/drivers/r_spibsc/src/lld/r_spibsc_lld_rza2m.c **** 
 565:../generate/drivers/r_spibsc/src/lld/r_spibsc_lld_rza2m.c **** 
 566:../generate/drivers/r_spibsc/src/lld/r_spibsc_lld_rza2m.c **** /*******************************************************************************
 567:../generate/drivers/r_spibsc/src/lld/r_spibsc_lld_rza2m.c **** * Function Name: r_spibsc_manual_negate_ssl
 568:../generate/drivers/r_spibsc/src/lld/r_spibsc_lld_rza2m.c **** * Description  : SSL assert keep
 569:../generate/drivers/r_spibsc/src/lld/r_spibsc_lld_rza2m.c **** * Arguments    : none
 570:../generate/drivers/r_spibsc/src/lld/r_spibsc_lld_rza2m.c **** * Return Value : none
 571:../generate/drivers/r_spibsc/src/lld/r_spibsc_lld_rza2m.c **** *******************************************************************************/
 572:../generate/drivers/r_spibsc/src/lld/r_spibsc_lld_rza2m.c **** static void r_spibsc_manual_negate_ssl(void)
 573:../generate/drivers/r_spibsc/src/lld/r_spibsc_lld_rza2m.c **** {
 738              		.loc 1 573 0
 739              		.cfi_startproc
 740              		@ args = 0, pretend = 0, frame = 0
 741              		@ frame_needed = 0, uses_anonymous_args = 0
 742 0000 10402DE9 		push	{r4, lr}
 743              		.cfi_def_cfa_offset 8
 744              		.cfi_offset 4, -8
 745              		.cfi_offset 14, -4
 574:../generate/drivers/r_spibsc/src/lld/r_spibsc_lld_rza2m.c ****     /* SMCR.SSLKP = 0 : QSPIn_SSL signal is negated at the end of transfer. */
 575:../generate/drivers/r_spibsc/src/lld/r_spibsc_lld_rza2m.c ****     spibsc_io_reg_write_32(&SPIBSC.SMCR.LONG, 0, SPIBSC_SMCR_SSLKP_SHIFT, SPIBSC_SMCR_SSLKP);
 746              		.loc 1 575 0
 747 0004 013CA0E3 		mov	r3, #256
 748 0008 0820A0E3 		mov	r2, #8
 749 000c 0010A0E3 		mov	r1, #0
 750 0010 2000A0E3 		mov	r0, #32
 751 0014 800F41E3 		movt	r0, 8064
 752 0018 FEFFFFEB 		bl	spibsc_io_reg_write_32
 753              	.LVL93:
 576:../generate/drivers/r_spibsc/src/lld/r_spibsc_lld_rza2m.c **** }
 754              		.loc 1 576 0
 755 001c 1080BDE8 		pop	{r4, pc}
 756              		.cfi_endproc
 757              	.LFE10:
 759              		.section	.text.r_spibsc_manual_set_command,"ax",%progbits
 760              		.align	2
 761              		.syntax unified
 762              		.arm
 763              		.fpu neon
 765              	r_spibsc_manual_set_command:
 766              	.LFB11:
 577:../generate/drivers/r_spibsc/src/lld/r_spibsc_lld_rza2m.c **** /*******************************************************************************
 578:../generate/drivers/r_spibsc/src/lld/r_spibsc_lld_rza2m.c **** End of function r_spibsc_manual_negate_ssl
 579:../generate/drivers/r_spibsc/src/lld/r_spibsc_lld_rza2m.c **** *******************************************************************************/
 580:../generate/drivers/r_spibsc/src/lld/r_spibsc_lld_rza2m.c **** 
 581:../generate/drivers/r_spibsc/src/lld/r_spibsc_lld_rza2m.c **** 
 582:../generate/drivers/r_spibsc/src/lld/r_spibsc_lld_rza2m.c **** /*******************************************************************************
 583:../generate/drivers/r_spibsc/src/lld/r_spibsc_lld_rza2m.c **** * Function Name: r_spibsc_manual_set_command
 584:../generate/drivers/r_spibsc/src/lld/r_spibsc_lld_rza2m.c **** * Description  : Command Setting (Manual mode)
 585:../generate/drivers/r_spibsc/src/lld/r_spibsc_lld_rza2m.c **** * Arguments    : uint8_t cmd            : Command
 586:../generate/drivers/r_spibsc/src/lld/r_spibsc_lld_rza2m.c **** *              : uint8_t width          : Command bus width
 587:../generate/drivers/r_spibsc/src/lld/r_spibsc_lld_rza2m.c **** *              :                        :   b'00 : 1bit
 588:../generate/drivers/r_spibsc/src/lld/r_spibsc_lld_rza2m.c **** *              :                        :   b'10 : 4bit
 589:../generate/drivers/r_spibsc/src/lld/r_spibsc_lld_rza2m.c **** *              : uint8_t output_enable  : Command output enable
 590:../generate/drivers/r_spibsc/src/lld/r_spibsc_lld_rza2m.c **** *              :                        :      0 : Command output disabled
 591:../generate/drivers/r_spibsc/src/lld/r_spibsc_lld_rza2m.c **** *              :                        :      1 : Command output enabled
 592:../generate/drivers/r_spibsc/src/lld/r_spibsc_lld_rza2m.c **** * Return Value : none
 593:../generate/drivers/r_spibsc/src/lld/r_spibsc_lld_rza2m.c **** *******************************************************************************/
 594:../generate/drivers/r_spibsc/src/lld/r_spibsc_lld_rza2m.c **** static void r_spibsc_manual_set_command(uint8_t cmd, uint8_t width, uint8_t output_enable)
 595:../generate/drivers/r_spibsc/src/lld/r_spibsc_lld_rza2m.c **** {
 767              		.loc 1 595 0
 768              		.cfi_startproc
 769              		@ args = 0, pretend = 0, frame = 0
 770              		@ frame_needed = 0, uses_anonymous_args = 0
 771              	.LVL94:
 772 0000 70402DE9 		push	{r4, r5, r6, lr}
 773              		.cfi_def_cfa_offset 16
 774              		.cfi_offset 4, -16
 775              		.cfi_offset 5, -12
 776              		.cfi_offset 6, -8
 777              		.cfi_offset 14, -4
 778 0004 0150A0E1 		mov	r5, r1
 779 0008 0240A0E1 		mov	r4, r2
 596:../generate/drivers/r_spibsc/src/lld/r_spibsc_lld_rza2m.c **** 
 597:../generate/drivers/r_spibsc/src/lld/r_spibsc_lld_rza2m.c ****     /* SMCMR.CMD[7:0] = cmd (SPI Command code setting) */
 598:../generate/drivers/r_spibsc/src/lld/r_spibsc_lld_rza2m.c ****     spibsc_io_reg_write_32(&SPIBSC.SMCMR.LONG, cmd,          SPIBSC_SMCMR_CMD_SHIFT, SPIBSC_SMCMR_C
 780              		.loc 1 598 0
 781 000c FF38A0E3 		mov	r3, #16711680
 782 0010 1020A0E3 		mov	r2, #16
 783              	.LVL95:
 784 0014 0010A0E1 		mov	r1, r0
 785              	.LVL96:
 786 0018 2400A0E3 		mov	r0, #36
 787              	.LVL97:
 788 001c 800F41E3 		movt	r0, 8064
 789 0020 FEFFFFEB 		bl	spibsc_io_reg_write_32
 790              	.LVL98:
 599:../generate/drivers/r_spibsc/src/lld/r_spibsc_lld_rza2m.c **** 
 600:../generate/drivers/r_spibsc/src/lld/r_spibsc_lld_rza2m.c ****     /* SMENR.CDB[1:0] = width (SPI Command width setting : 1bit or 4bit ) */
 601:../generate/drivers/r_spibsc/src/lld/r_spibsc_lld_rza2m.c ****     spibsc_io_reg_write_32(&SPIBSC.SMENR.LONG, width & 0x03, SPIBSC_SMENR_CDB_SHIFT, SPIBSC_SMENR_C
 791              		.loc 1 601 0
 792 0024 0331A0E3 		mov	r3, #-1073741824
 793 0028 1E20A0E3 		mov	r2, #30
 794 002c 031005E2 		and	r1, r5, #3
 795 0030 3000A0E3 		mov	r0, #48
 796 0034 800F41E3 		movt	r0, 8064
 797 0038 FEFFFFEB 		bl	spibsc_io_reg_write_32
 798              	.LVL99:
 602:../generate/drivers/r_spibsc/src/lld/r_spibsc_lld_rza2m.c **** 
 603:../generate/drivers/r_spibsc/src/lld/r_spibsc_lld_rza2m.c ****     if( SPIBSC_OUTPUT_ENABLE == output_enable)
 799              		.loc 1 603 0
 800 003c 010054E3 		cmp	r4, #1
 801 0040 0600000A 		beq	.L31
 604:../generate/drivers/r_spibsc/src/lld/r_spibsc_lld_rza2m.c ****     {
 605:../generate/drivers/r_spibsc/src/lld/r_spibsc_lld_rza2m.c ****         /* SMENR.CDE = 1 (Command output enabled) */
 606:../generate/drivers/r_spibsc/src/lld/r_spibsc_lld_rza2m.c ****         spibsc_io_reg_write_32(&SPIBSC.SMENR.LONG, SPIBSC_OUTPUT_ENABLE, SPIBSC_SMENR_CDE_SHIFT, SP
 607:../generate/drivers/r_spibsc/src/lld/r_spibsc_lld_rza2m.c ****     }
 608:../generate/drivers/r_spibsc/src/lld/r_spibsc_lld_rza2m.c ****     else
 609:../generate/drivers/r_spibsc/src/lld/r_spibsc_lld_rza2m.c ****     {
 610:../generate/drivers/r_spibsc/src/lld/r_spibsc_lld_rza2m.c ****         /* SMENR.CDE = 0 (Command output disabled) */
 611:../generate/drivers/r_spibsc/src/lld/r_spibsc_lld_rza2m.c ****         spibsc_io_reg_write_32(&SPIBSC.SMENR.LONG, SPIBSC_OUTPUT_DISABLE, SPIBSC_SMENR_CDE_SHIFT, S
 802              		.loc 1 611 0
 803 0044 0139A0E3 		mov	r3, #16384
 804 0048 0E20A0E3 		mov	r2, #14
 805 004c 0010A0E3 		mov	r1, #0
 806 0050 3000A0E3 		mov	r0, #48
 807 0054 800F41E3 		movt	r0, 8064
 808 0058 FEFFFFEB 		bl	spibsc_io_reg_write_32
 809              	.LVL100:
 612:../generate/drivers/r_spibsc/src/lld/r_spibsc_lld_rza2m.c ****     }
 613:../generate/drivers/r_spibsc/src/lld/r_spibsc_lld_rza2m.c **** 
 614:../generate/drivers/r_spibsc/src/lld/r_spibsc_lld_rza2m.c **** }
 810              		.loc 1 614 0
 811 005c 7080BDE8 		pop	{r4, r5, r6, pc}
 812              	.L31:
 606:../generate/drivers/r_spibsc/src/lld/r_spibsc_lld_rza2m.c ****     }
 813              		.loc 1 606 0
 814 0060 0139A0E3 		mov	r3, #16384
 815 0064 0E20A0E3 		mov	r2, #14
 816 0068 0110A0E3 		mov	r1, #1
 817 006c 3000A0E3 		mov	r0, #48
 818 0070 800F41E3 		movt	r0, 8064
 819 0074 FEFFFFEB 		bl	spibsc_io_reg_write_32
 820              	.LVL101:
 821 0078 7080BDE8 		pop	{r4, r5, r6, pc}
 822              		.cfi_endproc
 823              	.LFE11:
 825              		.section	.text.r_spibsc_manual_set_optional_command,"ax",%progbits
 826              		.align	2
 827              		.syntax unified
 828              		.arm
 829              		.fpu neon
 831              	r_spibsc_manual_set_optional_command:
 832              	.LFB12:
 615:../generate/drivers/r_spibsc/src/lld/r_spibsc_lld_rza2m.c **** /*******************************************************************************
 616:../generate/drivers/r_spibsc/src/lld/r_spibsc_lld_rza2m.c **** End of function r_spibsc_manual_set_command
 617:../generate/drivers/r_spibsc/src/lld/r_spibsc_lld_rza2m.c **** *******************************************************************************/
 618:../generate/drivers/r_spibsc/src/lld/r_spibsc_lld_rza2m.c **** 
 619:../generate/drivers/r_spibsc/src/lld/r_spibsc_lld_rza2m.c **** /*******************************************************************************
 620:../generate/drivers/r_spibsc/src/lld/r_spibsc_lld_rza2m.c **** * Function Name: r_spibsc_manual_set_optional_command
 621:../generate/drivers/r_spibsc/src/lld/r_spibsc_lld_rza2m.c **** * Description  : Optional Command Setting (Manual mode)
 622:../generate/drivers/r_spibsc/src/lld/r_spibsc_lld_rza2m.c **** * Arguments    : uint8_t ocmd           : Optional command
 623:../generate/drivers/r_spibsc/src/lld/r_spibsc_lld_rza2m.c **** *              : uint8_t width          : Optional command bus width
 624:../generate/drivers/r_spibsc/src/lld/r_spibsc_lld_rza2m.c **** *              :                        :   b'00 : 1bit
 625:../generate/drivers/r_spibsc/src/lld/r_spibsc_lld_rza2m.c **** *              :                        :   b'10 : 4bit
 626:../generate/drivers/r_spibsc/src/lld/r_spibsc_lld_rza2m.c **** *              : uint8_t output_enable  : Command output enable
 627:../generate/drivers/r_spibsc/src/lld/r_spibsc_lld_rza2m.c **** *              :                        :      0 : Optional command output disabled
 628:../generate/drivers/r_spibsc/src/lld/r_spibsc_lld_rza2m.c **** *              :                        :      1 : Optional command output enabled
 629:../generate/drivers/r_spibsc/src/lld/r_spibsc_lld_rza2m.c **** * Return Value : none
 630:../generate/drivers/r_spibsc/src/lld/r_spibsc_lld_rza2m.c **** *******************************************************************************/
 631:../generate/drivers/r_spibsc/src/lld/r_spibsc_lld_rza2m.c **** static void r_spibsc_manual_set_optional_command(uint8_t ocmd, uint8_t width, uint8_t output_enable
 632:../generate/drivers/r_spibsc/src/lld/r_spibsc_lld_rza2m.c **** {
 833              		.loc 1 632 0
 834              		.cfi_startproc
 835              		@ args = 0, pretend = 0, frame = 0
 836              		@ frame_needed = 0, uses_anonymous_args = 0
 837              	.LVL102:
 838 0000 70402DE9 		push	{r4, r5, r6, lr}
 839              		.cfi_def_cfa_offset 16
 840              		.cfi_offset 4, -16
 841              		.cfi_offset 5, -12
 842              		.cfi_offset 6, -8
 843              		.cfi_offset 14, -4
 844 0004 0150A0E1 		mov	r5, r1
 845 0008 0240A0E1 		mov	r4, r2
 633:../generate/drivers/r_spibsc/src/lld/r_spibsc_lld_rza2m.c **** 
 634:../generate/drivers/r_spibsc/src/lld/r_spibsc_lld_rza2m.c ****     /* SMCMR.OCMD[7:0] = ocmd (SPI Optional Command code setting) */
 635:../generate/drivers/r_spibsc/src/lld/r_spibsc_lld_rza2m.c ****     spibsc_io_reg_write_32(&SPIBSC.SMCMR.LONG, ocmd,         SPIBSC_SMCMR_OCMD_SHIFT, SPIBSC_SMCMR_
 846              		.loc 1 635 0
 847 000c FF30A0E3 		mov	r3, #255
 848 0010 0020A0E3 		mov	r2, #0
 849              	.LVL103:
 850 0014 0010A0E1 		mov	r1, r0
 851              	.LVL104:
 852 0018 2400A0E3 		mov	r0, #36
 853              	.LVL105:
 854 001c 800F41E3 		movt	r0, 8064
 855 0020 FEFFFFEB 		bl	spibsc_io_reg_write_32
 856              	.LVL106:
 636:../generate/drivers/r_spibsc/src/lld/r_spibsc_lld_rza2m.c **** 
 637:../generate/drivers/r_spibsc/src/lld/r_spibsc_lld_rza2m.c ****     /* SMENR.OCDB[1:0] = ocmd (SPI Optional Command width setting : 1bit or 4bit ) */
 638:../generate/drivers/r_spibsc/src/lld/r_spibsc_lld_rza2m.c ****     spibsc_io_reg_write_32(&SPIBSC.SMENR.LONG, width & 0x03, SPIBSC_SMENR_OCDB_SHIFT, SPIBSC_SMENR_
 857              		.loc 1 638 0
 858 0024 0332A0E3 		mov	r3, #805306368
 859 0028 1C20A0E3 		mov	r2, #28
 860 002c 031005E2 		and	r1, r5, #3
 861 0030 3000A0E3 		mov	r0, #48
 862 0034 800F41E3 		movt	r0, 8064
 863 0038 FEFFFFEB 		bl	spibsc_io_reg_write_32
 864              	.LVL107:
 639:../generate/drivers/r_spibsc/src/lld/r_spibsc_lld_rza2m.c **** 
 640:../generate/drivers/r_spibsc/src/lld/r_spibsc_lld_rza2m.c ****     if( SPIBSC_OUTPUT_ENABLE == output_enable)
 865              		.loc 1 640 0
 866 003c 010054E3 		cmp	r4, #1
 867 0040 0600000A 		beq	.L36
 641:../generate/drivers/r_spibsc/src/lld/r_spibsc_lld_rza2m.c ****     {
 642:../generate/drivers/r_spibsc/src/lld/r_spibsc_lld_rza2m.c ****         /* SMENR.OCDE = 1 (Optional command output enabled) */
 643:../generate/drivers/r_spibsc/src/lld/r_spibsc_lld_rza2m.c ****         spibsc_io_reg_write_32(&SPIBSC.SMENR.LONG, SPIBSC_OUTPUT_ENABLE, SPIBSC_SMENR_OCDE_SHIFT, S
 644:../generate/drivers/r_spibsc/src/lld/r_spibsc_lld_rza2m.c ****     }
 645:../generate/drivers/r_spibsc/src/lld/r_spibsc_lld_rza2m.c ****     else
 646:../generate/drivers/r_spibsc/src/lld/r_spibsc_lld_rza2m.c ****     {
 647:../generate/drivers/r_spibsc/src/lld/r_spibsc_lld_rza2m.c ****         /* SMENR.OCDE = 0 (Optional command output disabled) */
 648:../generate/drivers/r_spibsc/src/lld/r_spibsc_lld_rza2m.c ****         spibsc_io_reg_write_32(&SPIBSC.SMENR.LONG, SPIBSC_OUTPUT_DISABLE, SPIBSC_SMENR_OCDE_SHIFT, 
 868              		.loc 1 648 0
 869 0044 013AA0E3 		mov	r3, #4096
 870 0048 0C20A0E3 		mov	r2, #12
 871 004c 0010A0E3 		mov	r1, #0
 872 0050 3000A0E3 		mov	r0, #48
 873 0054 800F41E3 		movt	r0, 8064
 874 0058 FEFFFFEB 		bl	spibsc_io_reg_write_32
 875              	.LVL108:
 649:../generate/drivers/r_spibsc/src/lld/r_spibsc_lld_rza2m.c ****     }
 650:../generate/drivers/r_spibsc/src/lld/r_spibsc_lld_rza2m.c **** 
 651:../generate/drivers/r_spibsc/src/lld/r_spibsc_lld_rza2m.c **** }
 876              		.loc 1 651 0
 877 005c 7080BDE8 		pop	{r4, r5, r6, pc}
 878              	.L36:
 643:../generate/drivers/r_spibsc/src/lld/r_spibsc_lld_rza2m.c ****     }
 879              		.loc 1 643 0
 880 0060 013AA0E3 		mov	r3, #4096
 881 0064 0C20A0E3 		mov	r2, #12
 882 0068 0110A0E3 		mov	r1, #1
 883 006c 3000A0E3 		mov	r0, #48
 884 0070 800F41E3 		movt	r0, 8064
 885 0074 FEFFFFEB 		bl	spibsc_io_reg_write_32
 886              	.LVL109:
 887 0078 7080BDE8 		pop	{r4, r5, r6, pc}
 888              		.cfi_endproc
 889              	.LFE12:
 891              		.section	.text.r_spibsc_manual_set_address,"ax",%progbits
 892              		.align	2
 893              		.syntax unified
 894              		.arm
 895              		.fpu neon
 897              	r_spibsc_manual_set_address:
 898              	.LFB13:
 652:../generate/drivers/r_spibsc/src/lld/r_spibsc_lld_rza2m.c **** /*******************************************************************************
 653:../generate/drivers/r_spibsc/src/lld/r_spibsc_lld_rza2m.c **** End of function r_spibsc_manual_set_optional_command
 654:../generate/drivers/r_spibsc/src/lld/r_spibsc_lld_rza2m.c **** *******************************************************************************/
 655:../generate/drivers/r_spibsc/src/lld/r_spibsc_lld_rza2m.c **** 
 656:../generate/drivers/r_spibsc/src/lld/r_spibsc_lld_rza2m.c **** /*******************************************************************************
 657:../generate/drivers/r_spibsc/src/lld/r_spibsc_lld_rza2m.c **** * Function Name: r_spibsc_manual_set_address
 658:../generate/drivers/r_spibsc/src/lld/r_spibsc_lld_rza2m.c **** * Description  : Address Setting (Manual mode)
 659:../generate/drivers/r_spibsc/src/lld/r_spibsc_lld_rza2m.c **** *              : uint32_t address               : Address
 660:../generate/drivers/r_spibsc/src/lld/r_spibsc_lld_rza2m.c **** *              : uint8_t width                  : Address bus width
 661:../generate/drivers/r_spibsc/src/lld/r_spibsc_lld_rza2m.c **** *              :                                :   b'00 : 1bit
 662:../generate/drivers/r_spibsc/src/lld/r_spibsc_lld_rza2m.c **** *              :                                :   b'10 : 4bit
 663:../generate/drivers/r_spibsc/src/lld/r_spibsc_lld_rza2m.c **** *              : uint8_t address_output_enable  : Address output enable
 664:../generate/drivers/r_spibsc/src/lld/r_spibsc_lld_rza2m.c **** *              :                                :   b'0000 : Address output disabled
 665:../generate/drivers/r_spibsc/src/lld/r_spibsc_lld_rza2m.c **** *              :                                :   b'0100 : SMADR.ADR[23:16] output enabled
 666:../generate/drivers/r_spibsc/src/lld/r_spibsc_lld_rza2m.c **** *              :                                :   b'0110 : SMADR.ADR[23:8] output enabled
 667:../generate/drivers/r_spibsc/src/lld/r_spibsc_lld_rza2m.c **** *              :                                :   b'0111 : SMADR.ADR[23:0] output enabled
 668:../generate/drivers/r_spibsc/src/lld/r_spibsc_lld_rza2m.c **** *              :                                :   b'1111 : SMADR.ADR[31:0] output enabled
 669:../generate/drivers/r_spibsc/src/lld/r_spibsc_lld_rza2m.c **** *              : uint8_t ddr_enable             : Address DDR Enable
 670:../generate/drivers/r_spibsc/src/lld/r_spibsc_lld_rza2m.c **** *              :                                :   0 : SDR transfer
 671:../generate/drivers/r_spibsc/src/lld/r_spibsc_lld_rza2m.c **** *              :                                :   1 : DDR transfer
 672:../generate/drivers/r_spibsc/src/lld/r_spibsc_lld_rza2m.c **** * Return Value : none
 673:../generate/drivers/r_spibsc/src/lld/r_spibsc_lld_rza2m.c **** *******************************************************************************/
 674:../generate/drivers/r_spibsc/src/lld/r_spibsc_lld_rza2m.c **** static void r_spibsc_manual_set_address(uint32_t address, uint8_t width, uint8_t address_output_ena
 675:../generate/drivers/r_spibsc/src/lld/r_spibsc_lld_rza2m.c **** {
 899              		.loc 1 675 0
 900              		.cfi_startproc
 901              		@ args = 0, pretend = 0, frame = 0
 902              		@ frame_needed = 0, uses_anonymous_args = 0
 903              	.LVL110:
 904 0000 70402DE9 		push	{r4, r5, r6, lr}
 905              		.cfi_def_cfa_offset 16
 906              		.cfi_offset 4, -16
 907              		.cfi_offset 5, -12
 908              		.cfi_offset 6, -8
 909              		.cfi_offset 14, -4
 910 0004 0160A0E1 		mov	r6, r1
 911 0008 0240A0E1 		mov	r4, r2
 912 000c 0350A0E1 		mov	r5, r3
 676:../generate/drivers/r_spibsc/src/lld/r_spibsc_lld_rza2m.c **** 
 677:../generate/drivers/r_spibsc/src/lld/r_spibsc_lld_rza2m.c ****     /* SMADR.ADR[31:0] = address (Address setting) */
 678:../generate/drivers/r_spibsc/src/lld/r_spibsc_lld_rza2m.c ****     spibsc_io_reg_write_32(&SPIBSC.SMADR.LONG, address, SPIBSC_SMADR_ADR_SHIFT, SPIBSC_SMADR_ADR);
 913              		.loc 1 678 0
 914 0010 0030E0E3 		mvn	r3, #0
 915              	.LVL111:
 916 0014 0020A0E3 		mov	r2, #0
 917              	.LVL112:
 918 0018 0010A0E1 		mov	r1, r0
 919              	.LVL113:
 920 001c 2800A0E3 		mov	r0, #40
 921              	.LVL114:
 922 0020 800F41E3 		movt	r0, 8064
 923 0024 FEFFFFEB 		bl	spibsc_io_reg_write_32
 924              	.LVL115:
 679:../generate/drivers/r_spibsc/src/lld/r_spibsc_lld_rza2m.c **** 
 680:../generate/drivers/r_spibsc/src/lld/r_spibsc_lld_rza2m.c ****     /* SMENR.ADB[1:0] = width (Address width setting) */
 681:../generate/drivers/r_spibsc/src/lld/r_spibsc_lld_rza2m.c ****     spibsc_io_reg_write_32(&SPIBSC.SMENR.LONG, width & 0x03, SPIBSC_SMENR_ADB_SHIFT, SPIBSC_SMENR_A
 925              		.loc 1 681 0
 926 0028 0334A0E3 		mov	r3, #50331648
 927 002c 1820A0E3 		mov	r2, #24
 928 0030 031006E2 		and	r1, r6, #3
 929 0034 3000A0E3 		mov	r0, #48
 930 0038 800F41E3 		movt	r0, 8064
 931 003c FEFFFFEB 		bl	spibsc_io_reg_write_32
 932              	.LVL116:
 682:../generate/drivers/r_spibsc/src/lld/r_spibsc_lld_rza2m.c **** 
 683:../generate/drivers/r_spibsc/src/lld/r_spibsc_lld_rza2m.c ****     if( 0xf == address_output_enable)
 933              		.loc 1 683 0
 934 0040 0F0054E3 		cmp	r4, #15
 935 0044 1000000A 		beq	.L46
 684:../generate/drivers/r_spibsc/src/lld/r_spibsc_lld_rza2m.c ****     {
 685:../generate/drivers/r_spibsc/src/lld/r_spibsc_lld_rza2m.c ****         /* SMENR.ADE[3:0] = b'1111 : SMADR.ADR[31:0] output enabled */
 686:../generate/drivers/r_spibsc/src/lld/r_spibsc_lld_rza2m.c ****         spibsc_io_reg_write_32(&SPIBSC.SMENR.LONG, 0xf, SPIBSC_SMENR_ADE_SHIFT, SPIBSC_SMENR_ADE);
 687:../generate/drivers/r_spibsc/src/lld/r_spibsc_lld_rza2m.c ****     }
 688:../generate/drivers/r_spibsc/src/lld/r_spibsc_lld_rza2m.c ****     else if( 0x7 == address_output_enable)
 936              		.loc 1 688 0
 937 0048 070054E3 		cmp	r4, #7
 938 004c 1500000A 		beq	.L47
 689:../generate/drivers/r_spibsc/src/lld/r_spibsc_lld_rza2m.c ****     {
 690:../generate/drivers/r_spibsc/src/lld/r_spibsc_lld_rza2m.c ****         /* SMENR.ADE[3:0] = b'0111 : SMADR.ADR[23:0] output enabled */
 691:../generate/drivers/r_spibsc/src/lld/r_spibsc_lld_rza2m.c ****         spibsc_io_reg_write_32(&SPIBSC.SMENR.LONG, 0x7, SPIBSC_SMENR_ADE_SHIFT, SPIBSC_SMENR_ADE);
 692:../generate/drivers/r_spibsc/src/lld/r_spibsc_lld_rza2m.c ****     }
 693:../generate/drivers/r_spibsc/src/lld/r_spibsc_lld_rza2m.c ****     else if( 0x6 == address_output_enable)
 939              		.loc 1 693 0
 940 0050 060054E3 		cmp	r4, #6
 941 0054 1A00000A 		beq	.L48
 694:../generate/drivers/r_spibsc/src/lld/r_spibsc_lld_rza2m.c ****     {
 695:../generate/drivers/r_spibsc/src/lld/r_spibsc_lld_rza2m.c ****         /* SMENR.ADE[3:0] = b'0110 : SMADR.ADR[23:8] output enabled */
 696:../generate/drivers/r_spibsc/src/lld/r_spibsc_lld_rza2m.c ****         spibsc_io_reg_write_32(&SPIBSC.SMENR.LONG, 0x6, SPIBSC_SMENR_ADE_SHIFT, SPIBSC_SMENR_ADE);
 697:../generate/drivers/r_spibsc/src/lld/r_spibsc_lld_rza2m.c ****     }
 698:../generate/drivers/r_spibsc/src/lld/r_spibsc_lld_rza2m.c ****     else if( 0x4 == address_output_enable)
 942              		.loc 1 698 0
 943 0058 040054E3 		cmp	r4, #4
 944 005c 1F00000A 		beq	.L49
 699:../generate/drivers/r_spibsc/src/lld/r_spibsc_lld_rza2m.c ****     {
 700:../generate/drivers/r_spibsc/src/lld/r_spibsc_lld_rza2m.c ****         /* SMENR.ADE[3:0] = b'0100 : SMADR.ADR[23:16] output enabled */
 701:../generate/drivers/r_spibsc/src/lld/r_spibsc_lld_rza2m.c ****         spibsc_io_reg_write_32(&SPIBSC.SMENR.LONG, 0x4, SPIBSC_SMENR_ADE_SHIFT, SPIBSC_SMENR_ADE);
 702:../generate/drivers/r_spibsc/src/lld/r_spibsc_lld_rza2m.c ****     }
 703:../generate/drivers/r_spibsc/src/lld/r_spibsc_lld_rza2m.c ****     else if( 0x0 == address_output_enable)
 945              		.loc 1 703 0
 946 0060 000054E3 		cmp	r4, #0
 947 0064 2400000A 		beq	.L50
 948              	.L39:
 704:../generate/drivers/r_spibsc/src/lld/r_spibsc_lld_rza2m.c ****     {
 705:../generate/drivers/r_spibsc/src/lld/r_spibsc_lld_rza2m.c ****         /* SMENR.ADE[3:0] = b'0000 : Address output disabled */
 706:../generate/drivers/r_spibsc/src/lld/r_spibsc_lld_rza2m.c ****         spibsc_io_reg_write_32(&SPIBSC.SMENR.LONG, 0x0, SPIBSC_SMENR_ADE_SHIFT, SPIBSC_SMENR_ADE);
 707:../generate/drivers/r_spibsc/src/lld/r_spibsc_lld_rza2m.c ****     }
 708:../generate/drivers/r_spibsc/src/lld/r_spibsc_lld_rza2m.c **** 
 709:../generate/drivers/r_spibsc/src/lld/r_spibsc_lld_rza2m.c ****     if( 1 == ddr_enable)
 949              		.loc 1 709 0
 950 0068 010055E3 		cmp	r5, #1
 951 006c 2900000A 		beq	.L51
 710:../generate/drivers/r_spibsc/src/lld/r_spibsc_lld_rza2m.c ****     {
 711:../generate/drivers/r_spibsc/src/lld/r_spibsc_lld_rza2m.c ****         /* SMDRENR.ADDRE = 1 : ADDRESS is DDR transfer setting */
 712:../generate/drivers/r_spibsc/src/lld/r_spibsc_lld_rza2m.c ****         spibsc_io_reg_write_32(&SPIBSC.SMDRENR.LONG, 1, SPIBSC_SMDRENR_ADDRE_SHIFT, SPIBSC_SMDRENR_
 713:../generate/drivers/r_spibsc/src/lld/r_spibsc_lld_rza2m.c ****     }
 714:../generate/drivers/r_spibsc/src/lld/r_spibsc_lld_rza2m.c ****     else
 715:../generate/drivers/r_spibsc/src/lld/r_spibsc_lld_rza2m.c ****     {
 716:../generate/drivers/r_spibsc/src/lld/r_spibsc_lld_rza2m.c ****         /* SMDRENR.ADDRE = 0 : ADDRESS is SDR transfer setting */
 717:../generate/drivers/r_spibsc/src/lld/r_spibsc_lld_rza2m.c ****         spibsc_io_reg_write_32(&SPIBSC.SMDRENR.LONG, 0, SPIBSC_SMDRENR_ADDRE_SHIFT, SPIBSC_SMDRENR_
 952              		.loc 1 717 0
 953 0070 013CA0E3 		mov	r3, #256
 954 0074 0820A0E3 		mov	r2, #8
 955 0078 0010A0E3 		mov	r1, #0
 956 007c 6400A0E3 		mov	r0, #100
 957 0080 800F41E3 		movt	r0, 8064
 958 0084 FEFFFFEB 		bl	spibsc_io_reg_write_32
 959              	.LVL117:
 718:../generate/drivers/r_spibsc/src/lld/r_spibsc_lld_rza2m.c ****     }
 719:../generate/drivers/r_spibsc/src/lld/r_spibsc_lld_rza2m.c **** 
 720:../generate/drivers/r_spibsc/src/lld/r_spibsc_lld_rza2m.c **** }
 960              		.loc 1 720 0
 961 0088 7080BDE8 		pop	{r4, r5, r6, pc}
 962              	.L46:
 686:../generate/drivers/r_spibsc/src/lld/r_spibsc_lld_rza2m.c ****     }
 963              		.loc 1 686 0
 964 008c 0F3CA0E3 		mov	r3, #3840
 965 0090 0820A0E3 		mov	r2, #8
 966 0094 0F10A0E3 		mov	r1, #15
 967 0098 3000A0E3 		mov	r0, #48
 968 009c 800F41E3 		movt	r0, 8064
 969 00a0 FEFFFFEB 		bl	spibsc_io_reg_write_32
 970              	.LVL118:
 971 00a4 EFFFFFEA 		b	.L39
 972              	.L47:
 691:../generate/drivers/r_spibsc/src/lld/r_spibsc_lld_rza2m.c ****     }
 973              		.loc 1 691 0
 974 00a8 0F3CA0E3 		mov	r3, #3840
 975 00ac 0820A0E3 		mov	r2, #8
 976 00b0 0710A0E3 		mov	r1, #7
 977 00b4 3000A0E3 		mov	r0, #48
 978 00b8 800F41E3 		movt	r0, 8064
 979 00bc FEFFFFEB 		bl	spibsc_io_reg_write_32
 980              	.LVL119:
 981 00c0 E8FFFFEA 		b	.L39
 982              	.L48:
 696:../generate/drivers/r_spibsc/src/lld/r_spibsc_lld_rza2m.c ****     }
 983              		.loc 1 696 0
 984 00c4 0F3CA0E3 		mov	r3, #3840
 985 00c8 0820A0E3 		mov	r2, #8
 986 00cc 0610A0E3 		mov	r1, #6
 987 00d0 3000A0E3 		mov	r0, #48
 988 00d4 800F41E3 		movt	r0, 8064
 989 00d8 FEFFFFEB 		bl	spibsc_io_reg_write_32
 990              	.LVL120:
 991 00dc E1FFFFEA 		b	.L39
 992              	.L49:
 701:../generate/drivers/r_spibsc/src/lld/r_spibsc_lld_rza2m.c ****     }
 993              		.loc 1 701 0
 994 00e0 0F3CA0E3 		mov	r3, #3840
 995 00e4 0820A0E3 		mov	r2, #8
 996 00e8 0410A0E3 		mov	r1, #4
 997 00ec 3000A0E3 		mov	r0, #48
 998 00f0 800F41E3 		movt	r0, 8064
 999 00f4 FEFFFFEB 		bl	spibsc_io_reg_write_32
 1000              	.LVL121:
 1001 00f8 DAFFFFEA 		b	.L39
 1002              	.L50:
 706:../generate/drivers/r_spibsc/src/lld/r_spibsc_lld_rza2m.c ****     }
 1003              		.loc 1 706 0
 1004 00fc 0F3CA0E3 		mov	r3, #3840
 1005 0100 0820A0E3 		mov	r2, #8
 1006 0104 0010A0E3 		mov	r1, #0
 1007 0108 3000A0E3 		mov	r0, #48
 1008 010c 800F41E3 		movt	r0, 8064
 1009 0110 FEFFFFEB 		bl	spibsc_io_reg_write_32
 1010              	.LVL122:
 1011 0114 D3FFFFEA 		b	.L39
 1012              	.L51:
 712:../generate/drivers/r_spibsc/src/lld/r_spibsc_lld_rza2m.c ****     }
 1013              		.loc 1 712 0
 1014 0118 013CA0E3 		mov	r3, #256
 1015 011c 0820A0E3 		mov	r2, #8
 1016 0120 0110A0E3 		mov	r1, #1
 1017 0124 6400A0E3 		mov	r0, #100
 1018 0128 800F41E3 		movt	r0, 8064
 1019 012c FEFFFFEB 		bl	spibsc_io_reg_write_32
 1020              	.LVL123:
 1021 0130 7080BDE8 		pop	{r4, r5, r6, pc}
 1022              		.cfi_endproc
 1023              	.LFE13:
 1025              		.section	.text.r_spibsc_manual_set_option_data,"ax",%progbits
 1026              		.align	2
 1027              		.syntax unified
 1028              		.arm
 1029              		.fpu neon
 1031              	r_spibsc_manual_set_option_data:
 1032              	.LFB14:
 721:../generate/drivers/r_spibsc/src/lld/r_spibsc_lld_rza2m.c **** /*******************************************************************************
 722:../generate/drivers/r_spibsc/src/lld/r_spibsc_lld_rza2m.c **** End of function r_spibsc_manual_set_address
 723:../generate/drivers/r_spibsc/src/lld/r_spibsc_lld_rza2m.c **** *******************************************************************************/
 724:../generate/drivers/r_spibsc/src/lld/r_spibsc_lld_rza2m.c **** 
 725:../generate/drivers/r_spibsc/src/lld/r_spibsc_lld_rza2m.c **** /*******************************************************************************
 726:../generate/drivers/r_spibsc/src/lld/r_spibsc_lld_rza2m.c **** * Function Name: r_spibsc_manual_set_option_data
 727:../generate/drivers/r_spibsc/src/lld/r_spibsc_lld_rza2m.c **** * Description  : Option Data Setting (Manual mode)
 728:../generate/drivers/r_spibsc/src/lld/r_spibsc_lld_rza2m.c **** * Arguments    : uint8_t opd3           : Option Data 3
 729:../generate/drivers/r_spibsc/src/lld/r_spibsc_lld_rza2m.c **** *              : uint8_t opd2           : Option Data 2
 730:../generate/drivers/r_spibsc/src/lld/r_spibsc_lld_rza2m.c **** *              : uint8_t opd1           : Option Data 1
 731:../generate/drivers/r_spibsc/src/lld/r_spibsc_lld_rza2m.c **** *              : uint8_t opd0           : Option Data 0
 732:../generate/drivers/r_spibsc/src/lld/r_spibsc_lld_rza2m.c **** *              : uint8_t width          : Option Data bus width
 733:../generate/drivers/r_spibsc/src/lld/r_spibsc_lld_rza2m.c **** *              :                        :   b'00 : 1bit
 734:../generate/drivers/r_spibsc/src/lld/r_spibsc_lld_rza2m.c **** *              :                        :   b'10 : 4bit
 735:../generate/drivers/r_spibsc/src/lld/r_spibsc_lld_rza2m.c **** *              : uint8_t option_data_output_enable  : Option Data output enable
 736:../generate/drivers/r_spibsc/src/lld/r_spibsc_lld_rza2m.c **** *              :                        :              b'0000 : Option Data Output disabled
 737:../generate/drivers/r_spibsc/src/lld/r_spibsc_lld_rza2m.c **** *              :                        :              b'1000 : OPD3 output enabled
 738:../generate/drivers/r_spibsc/src/lld/r_spibsc_lld_rza2m.c **** *              :                        :              b'1100 : OPD3, OPD2 output enabled
 739:../generate/drivers/r_spibsc/src/lld/r_spibsc_lld_rza2m.c **** *              :                        :              b'1110 : OPD3, OPD2, OPD1 output enabled
 740:../generate/drivers/r_spibsc/src/lld/r_spibsc_lld_rza2m.c **** *              :                        :              b'1111 : OPD3, OPD2, OPD1, OPD0 output enabl
 741:../generate/drivers/r_spibsc/src/lld/r_spibsc_lld_rza2m.c **** *              : uint8_t ddr_enable     : Option Data DDR Enable
 742:../generate/drivers/r_spibsc/src/lld/r_spibsc_lld_rza2m.c **** *              :                        :   0 : SDR
 743:../generate/drivers/r_spibsc/src/lld/r_spibsc_lld_rza2m.c **** *              :                        :   1 : DDR
 744:../generate/drivers/r_spibsc/src/lld/r_spibsc_lld_rza2m.c **** * Return Value : none
 745:../generate/drivers/r_spibsc/src/lld/r_spibsc_lld_rza2m.c **** *******************************************************************************/
 746:../generate/drivers/r_spibsc/src/lld/r_spibsc_lld_rza2m.c **** static void r_spibsc_manual_set_option_data(uint8_t opd3, uint8_t opd2, uint8_t opd1, uint8_t opd0,
 747:../generate/drivers/r_spibsc/src/lld/r_spibsc_lld_rza2m.c ****                                      uint8_t width, uint8_t option_data_output_enable, uint8_t ddr_
 748:../generate/drivers/r_spibsc/src/lld/r_spibsc_lld_rza2m.c **** {
 1033              		.loc 1 748 0
 1034              		.cfi_startproc
 1035              		@ args = 12, pretend = 0, frame = 0
 1036              		@ frame_needed = 0, uses_anonymous_args = 0
 1037              	.LVL124:
 1038 0000 F0412DE9 		push	{r4, r5, r6, r7, r8, lr}
 1039              		.cfi_def_cfa_offset 24
 1040              		.cfi_offset 4, -24
 1041              		.cfi_offset 5, -20
 1042              		.cfi_offset 6, -16
 1043              		.cfi_offset 7, -12
 1044              		.cfi_offset 8, -8
 1045              		.cfi_offset 14, -4
 1046 0004 0180A0E1 		mov	r8, r1
 1047 0008 0270A0E1 		mov	r7, r2
 1048 000c 0360A0E1 		mov	r6, r3
 1049 0010 1C50DDE5 		ldrb	r5, [sp, #28]	@ zero_extendqisi2
 749:../generate/drivers/r_spibsc/src/lld/r_spibsc_lld_rza2m.c **** 
 750:../generate/drivers/r_spibsc/src/lld/r_spibsc_lld_rza2m.c ****     /* SMOPR.OPD3[7:0] = opd3 */
 751:../generate/drivers/r_spibsc/src/lld/r_spibsc_lld_rza2m.c ****     spibsc_io_reg_write_32(&SPIBSC.SMOPR.LONG, opd3, SPIBSC_SMOPR_OPD3_SHIFT, SPIBSC_SMOPR_OPD3);  
 1050              		.loc 1 751 0
 1051 0014 2C40A0E3 		mov	r4, #44
 1052 0018 804F41E3 		movt	r4, 8064
 1053 001c FF34A0E3 		mov	r3, #-16777216
 1054              	.LVL125:
 1055 0020 1820A0E3 		mov	r2, #24
 1056              	.LVL126:
 1057 0024 0010A0E1 		mov	r1, r0
 1058              	.LVL127:
 1059 0028 0400A0E1 		mov	r0, r4
 1060              	.LVL128:
 1061 002c FEFFFFEB 		bl	spibsc_io_reg_write_32
 1062              	.LVL129:
 752:../generate/drivers/r_spibsc/src/lld/r_spibsc_lld_rza2m.c **** 
 753:../generate/drivers/r_spibsc/src/lld/r_spibsc_lld_rza2m.c ****     /* SMOPR.OPD2[7:0] = opd2 */
 754:../generate/drivers/r_spibsc/src/lld/r_spibsc_lld_rza2m.c ****     spibsc_io_reg_write_32(&SPIBSC.SMOPR.LONG, opd2, SPIBSC_SMOPR_OPD2_SHIFT, SPIBSC_SMOPR_OPD2);  
 1063              		.loc 1 754 0
 1064 0030 FF38A0E3 		mov	r3, #16711680
 1065 0034 1020A0E3 		mov	r2, #16
 1066 0038 0810A0E1 		mov	r1, r8
 1067 003c 0400A0E1 		mov	r0, r4
 1068 0040 FEFFFFEB 		bl	spibsc_io_reg_write_32
 1069              	.LVL130:
 755:../generate/drivers/r_spibsc/src/lld/r_spibsc_lld_rza2m.c **** 
 756:../generate/drivers/r_spibsc/src/lld/r_spibsc_lld_rza2m.c ****     /* SMOPR.OPD1[7:0] = opd1 */
 757:../generate/drivers/r_spibsc/src/lld/r_spibsc_lld_rza2m.c ****     spibsc_io_reg_write_32(&SPIBSC.SMOPR.LONG, opd1, SPIBSC_SMOPR_OPD1_SHIFT, SPIBSC_SMOPR_OPD1);  
 1070              		.loc 1 757 0
 1071 0044 FF3CA0E3 		mov	r3, #65280
 1072 0048 0820A0E3 		mov	r2, #8
 1073 004c 0710A0E1 		mov	r1, r7
 1074 0050 0400A0E1 		mov	r0, r4
 1075 0054 FEFFFFEB 		bl	spibsc_io_reg_write_32
 1076              	.LVL131:
 758:../generate/drivers/r_spibsc/src/lld/r_spibsc_lld_rza2m.c **** 
 759:../generate/drivers/r_spibsc/src/lld/r_spibsc_lld_rza2m.c ****     /* SMOPR.OPD0[7:0] = opd0 */
 760:../generate/drivers/r_spibsc/src/lld/r_spibsc_lld_rza2m.c ****     spibsc_io_reg_write_32(&SPIBSC.SMOPR.LONG, opd0, SPIBSC_SMOPR_OPD0_SHIFT, SPIBSC_SMOPR_OPD0);  
 1077              		.loc 1 760 0
 1078 0058 FF30A0E3 		mov	r3, #255
 1079 005c 0020A0E3 		mov	r2, #0
 1080 0060 0610A0E1 		mov	r1, r6
 1081 0064 0400A0E1 		mov	r0, r4
 1082 0068 FEFFFFEB 		bl	spibsc_io_reg_write_32
 1083              	.LVL132:
 761:../generate/drivers/r_spibsc/src/lld/r_spibsc_lld_rza2m.c **** 
 762:../generate/drivers/r_spibsc/src/lld/r_spibsc_lld_rza2m.c ****     /* SMENR.OPDB[1:0] = width  (SPI Option Data width setting : 1bit or 4bit ) */
 763:../generate/drivers/r_spibsc/src/lld/r_spibsc_lld_rza2m.c ****     spibsc_io_reg_write_32(&SPIBSC.SMENR.LONG, width & 0x03, SPIBSC_SMENR_OPDB_SHIFT, SPIBSC_SMENR_
 1084              		.loc 1 763 0
 1085 006c 0336A0E3 		mov	r3, #3145728
 1086 0070 1420A0E3 		mov	r2, #20
 1087 0074 1810DDE5 		ldrb	r1, [sp, #24]	@ zero_extendqisi2
 1088 0078 031001E2 		and	r1, r1, #3
 1089 007c 3000A0E3 		mov	r0, #48
 1090 0080 800F41E3 		movt	r0, 8064
 1091 0084 FEFFFFEB 		bl	spibsc_io_reg_write_32
 1092              	.LVL133:
 764:../generate/drivers/r_spibsc/src/lld/r_spibsc_lld_rza2m.c **** 
 765:../generate/drivers/r_spibsc/src/lld/r_spibsc_lld_rza2m.c **** 
 766:../generate/drivers/r_spibsc/src/lld/r_spibsc_lld_rza2m.c ****     if( 0x0 == option_data_output_enable)
 1093              		.loc 1 766 0
 1094 0088 000055E3 		cmp	r5, #0
 1095 008c 0E00000A 		beq	.L61
 767:../generate/drivers/r_spibsc/src/lld/r_spibsc_lld_rza2m.c ****     {
 768:../generate/drivers/r_spibsc/src/lld/r_spibsc_lld_rza2m.c ****         /* SMENR.OPDE[3:0] = b'0000 : Option Data Output disabled */
 769:../generate/drivers/r_spibsc/src/lld/r_spibsc_lld_rza2m.c ****         spibsc_io_reg_write_32(&SPIBSC.SMENR.LONG, 0, SPIBSC_SMENR_OPDE_SHIFT, SPIBSC_SMENR_OPDE);
 770:../generate/drivers/r_spibsc/src/lld/r_spibsc_lld_rza2m.c ****     }
 771:../generate/drivers/r_spibsc/src/lld/r_spibsc_lld_rza2m.c ****     else if ( SPIBSC_OUTPUT_OPD_3 == option_data_output_enable)
 1096              		.loc 1 771 0
 1097 0090 080055E3 		cmp	r5, #8
 1098 0094 1C00000A 		beq	.L62
 772:../generate/drivers/r_spibsc/src/lld/r_spibsc_lld_rza2m.c ****     {
 773:../generate/drivers/r_spibsc/src/lld/r_spibsc_lld_rza2m.c ****         /* SMENR.OPDE[3:0] = b'1000 : DATA is DDR transfer setting */
 774:../generate/drivers/r_spibsc/src/lld/r_spibsc_lld_rza2m.c ****         spibsc_io_reg_write_32(&SPIBSC.SMENR.LONG, SPIBSC_OUTPUT_OPD_3, SPIBSC_SMENR_OPDE_SHIFT, SP
 775:../generate/drivers/r_spibsc/src/lld/r_spibsc_lld_rza2m.c ****     }
 776:../generate/drivers/r_spibsc/src/lld/r_spibsc_lld_rza2m.c ****     else if ( SPIBSC_OUTPUT_OPD_32 == option_data_output_enable)
 1099              		.loc 1 776 0
 1100 0098 0C0055E3 		cmp	r5, #12
 1101 009c 2100000A 		beq	.L63
 777:../generate/drivers/r_spibsc/src/lld/r_spibsc_lld_rza2m.c ****     {
 778:../generate/drivers/r_spibsc/src/lld/r_spibsc_lld_rza2m.c ****         /* SMENR.OPDE[3:0] = b'1100 : OPD3, OPD2 output enabled */
 779:../generate/drivers/r_spibsc/src/lld/r_spibsc_lld_rza2m.c ****         spibsc_io_reg_write_32(&SPIBSC.SMENR.LONG, SPIBSC_OUTPUT_OPD_32, SPIBSC_SMENR_OPDE_SHIFT, S
 780:../generate/drivers/r_spibsc/src/lld/r_spibsc_lld_rza2m.c ****     }
 781:../generate/drivers/r_spibsc/src/lld/r_spibsc_lld_rza2m.c ****     else if ( SPIBSC_OUTPUT_OPD_321 == option_data_output_enable)
 1102              		.loc 1 781 0
 1103 00a0 0E0055E3 		cmp	r5, #14
 1104 00a4 2600000A 		beq	.L64
 782:../generate/drivers/r_spibsc/src/lld/r_spibsc_lld_rza2m.c ****     {
 783:../generate/drivers/r_spibsc/src/lld/r_spibsc_lld_rza2m.c ****         /* SMENR.OPDE[3:0] = b'1110 : OPD3, OPD2, OPD1 output enabled */
 784:../generate/drivers/r_spibsc/src/lld/r_spibsc_lld_rza2m.c ****         spibsc_io_reg_write_32(&SPIBSC.SMENR.LONG, SPIBSC_OUTPUT_OPD_321, SPIBSC_SMENR_OPDE_SHIFT, 
 785:../generate/drivers/r_spibsc/src/lld/r_spibsc_lld_rza2m.c ****     }
 786:../generate/drivers/r_spibsc/src/lld/r_spibsc_lld_rza2m.c ****     else if ( SPIBSC_OUTPUT_OPD_3210 == option_data_output_enable)
 1105              		.loc 1 786 0
 1106 00a8 0F0055E3 		cmp	r5, #15
 1107 00ac 0C00001A 		bne	.L54
 787:../generate/drivers/r_spibsc/src/lld/r_spibsc_lld_rza2m.c ****     {
 788:../generate/drivers/r_spibsc/src/lld/r_spibsc_lld_rza2m.c ****         /* SMENR.OPDE[3:0] = b'1111 : OPD3, OPD2, OPD1, OPD0 output enabled */
 789:../generate/drivers/r_spibsc/src/lld/r_spibsc_lld_rza2m.c ****         spibsc_io_reg_write_32(&SPIBSC.SMENR.LONG, SPIBSC_OUTPUT_OPD_3210, SPIBSC_SMENR_OPDE_SHIFT,
 1108              		.loc 1 789 0
 1109 00b0 F030A0E3 		mov	r3, #240
 1110 00b4 0420A0E3 		mov	r2, #4
 1111 00b8 0F10A0E3 		mov	r1, #15
 1112 00bc 3000A0E3 		mov	r0, #48
 1113 00c0 800F41E3 		movt	r0, 8064
 1114 00c4 FEFFFFEB 		bl	spibsc_io_reg_write_32
 1115              	.LVL134:
 1116 00c8 050000EA 		b	.L54
 1117              	.L61:
 769:../generate/drivers/r_spibsc/src/lld/r_spibsc_lld_rza2m.c ****     }
 1118              		.loc 1 769 0
 1119 00cc F030A0E3 		mov	r3, #240
 1120 00d0 0420A0E3 		mov	r2, #4
 1121 00d4 0010A0E3 		mov	r1, #0
 1122 00d8 3000A0E3 		mov	r0, #48
 1123 00dc 800F41E3 		movt	r0, 8064
 1124 00e0 FEFFFFEB 		bl	spibsc_io_reg_write_32
 1125              	.LVL135:
 1126              	.L54:
 790:../generate/drivers/r_spibsc/src/lld/r_spibsc_lld_rza2m.c ****     }
 791:../generate/drivers/r_spibsc/src/lld/r_spibsc_lld_rza2m.c **** 
 792:../generate/drivers/r_spibsc/src/lld/r_spibsc_lld_rza2m.c **** 
 793:../generate/drivers/r_spibsc/src/lld/r_spibsc_lld_rza2m.c ****     if ( 1 == ddr_enable)
 1127              		.loc 1 793 0
 1128 00e4 2030DDE5 		ldrb	r3, [sp, #32]	@ zero_extendqisi2
 1129 00e8 010053E3 		cmp	r3, #1
 1130 00ec 1B00000A 		beq	.L65
 794:../generate/drivers/r_spibsc/src/lld/r_spibsc_lld_rza2m.c ****     {
 795:../generate/drivers/r_spibsc/src/lld/r_spibsc_lld_rza2m.c ****         /* SMDRENR.OPDRE = 1 : OPTION DATA is DDR transfer setting */
 796:../generate/drivers/r_spibsc/src/lld/r_spibsc_lld_rza2m.c ****         spibsc_io_reg_write_32(&SPIBSC.SMDRENR.LONG, 1, SPIBSC_SMDRENR_OPDRE_SHIFT, SPIBSC_SMDRENR_
 797:../generate/drivers/r_spibsc/src/lld/r_spibsc_lld_rza2m.c ****     }
 798:../generate/drivers/r_spibsc/src/lld/r_spibsc_lld_rza2m.c ****     else
 799:../generate/drivers/r_spibsc/src/lld/r_spibsc_lld_rza2m.c ****     {
 800:../generate/drivers/r_spibsc/src/lld/r_spibsc_lld_rza2m.c ****         /* SMDRENR.OPDRE = 1 : OPTION DATA is SDR transfer setting */
 801:../generate/drivers/r_spibsc/src/lld/r_spibsc_lld_rza2m.c ****         spibsc_io_reg_write_32(&SPIBSC.SMDRENR.LONG, 0, SPIBSC_SMDRENR_OPDRE_SHIFT, SPIBSC_SMDRENR_
 1131              		.loc 1 801 0
 1132 00f0 1030A0E3 		mov	r3, #16
 1133 00f4 0420A0E3 		mov	r2, #4
 1134 00f8 0010A0E3 		mov	r1, #0
 1135 00fc 6400A0E3 		mov	r0, #100
 1136 0100 800F41E3 		movt	r0, 8064
 1137 0104 FEFFFFEB 		bl	spibsc_io_reg_write_32
 1138              	.LVL136:
 802:../generate/drivers/r_spibsc/src/lld/r_spibsc_lld_rza2m.c ****     }
 803:../generate/drivers/r_spibsc/src/lld/r_spibsc_lld_rza2m.c **** 
 804:../generate/drivers/r_spibsc/src/lld/r_spibsc_lld_rza2m.c **** }
 1139              		.loc 1 804 0
 1140 0108 F081BDE8 		pop	{r4, r5, r6, r7, r8, pc}
 1141              	.L62:
 774:../generate/drivers/r_spibsc/src/lld/r_spibsc_lld_rza2m.c ****     }
 1142              		.loc 1 774 0
 1143 010c F030A0E3 		mov	r3, #240
 1144 0110 0420A0E3 		mov	r2, #4
 1145 0114 0810A0E3 		mov	r1, #8
 1146 0118 3000A0E3 		mov	r0, #48
 1147 011c 800F41E3 		movt	r0, 8064
 1148 0120 FEFFFFEB 		bl	spibsc_io_reg_write_32
 1149              	.LVL137:
 1150 0124 EEFFFFEA 		b	.L54
 1151              	.L63:
 779:../generate/drivers/r_spibsc/src/lld/r_spibsc_lld_rza2m.c ****     }
 1152              		.loc 1 779 0
 1153 0128 F030A0E3 		mov	r3, #240
 1154 012c 0420A0E3 		mov	r2, #4
 1155 0130 0C10A0E3 		mov	r1, #12
 1156 0134 3000A0E3 		mov	r0, #48
 1157 0138 800F41E3 		movt	r0, 8064
 1158 013c FEFFFFEB 		bl	spibsc_io_reg_write_32
 1159              	.LVL138:
 1160 0140 E7FFFFEA 		b	.L54
 1161              	.L64:
 784:../generate/drivers/r_spibsc/src/lld/r_spibsc_lld_rza2m.c ****     }
 1162              		.loc 1 784 0
 1163 0144 F030A0E3 		mov	r3, #240
 1164 0148 0420A0E3 		mov	r2, #4
 1165 014c 0E10A0E3 		mov	r1, #14
 1166 0150 3000A0E3 		mov	r0, #48
 1167 0154 800F41E3 		movt	r0, 8064
 1168 0158 FEFFFFEB 		bl	spibsc_io_reg_write_32
 1169              	.LVL139:
 1170 015c E0FFFFEA 		b	.L54
 1171              	.L65:
 796:../generate/drivers/r_spibsc/src/lld/r_spibsc_lld_rza2m.c ****     }
 1172              		.loc 1 796 0
 1173 0160 1030A0E3 		mov	r3, #16
 1174 0164 0420A0E3 		mov	r2, #4
 1175 0168 0110A0E3 		mov	r1, #1
 1176 016c 6400A0E3 		mov	r0, #100
 1177 0170 800F41E3 		movt	r0, 8064
 1178 0174 FEFFFFEB 		bl	spibsc_io_reg_write_32
 1179              	.LVL140:
 1180 0178 F081BDE8 		pop	{r4, r5, r6, r7, r8, pc}
 1181              		.cfi_endproc
 1182              	.LFE14:
 1184              		.section	.text.r_spibsc_manual_set_dummy_cycle,"ax",%progbits
 1185              		.align	2
 1186              		.syntax unified
 1187              		.arm
 1188              		.fpu neon
 1190              	r_spibsc_manual_set_dummy_cycle:
 1191              	.LFB15:
 805:../generate/drivers/r_spibsc/src/lld/r_spibsc_lld_rza2m.c **** /*******************************************************************************
 806:../generate/drivers/r_spibsc/src/lld/r_spibsc_lld_rza2m.c **** End of function r_spibsc_manual_set_option_data
 807:../generate/drivers/r_spibsc/src/lld/r_spibsc_lld_rza2m.c **** *******************************************************************************/
 808:../generate/drivers/r_spibsc/src/lld/r_spibsc_lld_rza2m.c **** 
 809:../generate/drivers/r_spibsc/src/lld/r_spibsc_lld_rza2m.c **** 
 810:../generate/drivers/r_spibsc/src/lld/r_spibsc_lld_rza2m.c **** /*******************************************************************************
 811:../generate/drivers/r_spibsc/src/lld/r_spibsc_lld_rza2m.c **** * Function Name: r_spibsc_manual_set_dummy_cycle
 812:../generate/drivers/r_spibsc/src/lld/r_spibsc_lld_rza2m.c **** * Description  : Dummy Cycle Setting (Manual mode)
 813:../generate/drivers/r_spibsc/src/lld/r_spibsc_lld_rza2m.c **** * Arguments    : uint8_t dummy_cycle_num : Number of Dummy Cycles
 814:../generate/drivers/r_spibsc/src/lld/r_spibsc_lld_rza2m.c **** *              :                         : b'00000   :  1 cycle
 815:../generate/drivers/r_spibsc/src/lld/r_spibsc_lld_rza2m.c **** *              :                         : b'00001   :  2 cycle
 816:../generate/drivers/r_spibsc/src/lld/r_spibsc_lld_rza2m.c **** *              :                         : b'00010   :  3 cycle
 817:../generate/drivers/r_spibsc/src/lld/r_spibsc_lld_rza2m.c **** *              :                         : ...
 818:../generate/drivers/r_spibsc/src/lld/r_spibsc_lld_rza2m.c **** *              :                         : b'10011   : 20 cycle
 819:../generate/drivers/r_spibsc/src/lld/r_spibsc_lld_rza2m.c **** *              : uint8_t width           : Dummy Cycle bus width
 820:../generate/drivers/r_spibsc/src/lld/r_spibsc_lld_rza2m.c **** *              :                         :   b'00 : 1bit
 821:../generate/drivers/r_spibsc/src/lld/r_spibsc_lld_rza2m.c **** *              :                         :   b'10 : 4bit
 822:../generate/drivers/r_spibsc/src/lld/r_spibsc_lld_rza2m.c **** *              : uint8_t output_enable  : Dummy Cycle output enable
 823:../generate/drivers/r_spibsc/src/lld/r_spibsc_lld_rza2m.c **** *              :                        :      0 : Dummy Cycle output disabled
 824:../generate/drivers/r_spibsc/src/lld/r_spibsc_lld_rza2m.c **** *              :                        :      1 : Dummy Cycle output enabled
 825:../generate/drivers/r_spibsc/src/lld/r_spibsc_lld_rza2m.c **** * Return Value : none
 826:../generate/drivers/r_spibsc/src/lld/r_spibsc_lld_rza2m.c **** *******************************************************************************/
 827:../generate/drivers/r_spibsc/src/lld/r_spibsc_lld_rza2m.c **** static void r_spibsc_manual_set_dummy_cycle(uint8_t dummy_cycle_num, uint8_t width, uint8_t output_
 828:../generate/drivers/r_spibsc/src/lld/r_spibsc_lld_rza2m.c **** {
 1192              		.loc 1 828 0
 1193              		.cfi_startproc
 1194              		@ args = 0, pretend = 0, frame = 0
 1195              		@ frame_needed = 0, uses_anonymous_args = 0
 1196              	.LVL141:
 1197 0000 10402DE9 		push	{r4, lr}
 1198              		.cfi_def_cfa_offset 8
 1199              		.cfi_offset 4, -8
 1200              		.cfi_offset 14, -4
 1201 0004 0240A0E1 		mov	r4, r2
 829:../generate/drivers/r_spibsc/src/lld/r_spibsc_lld_rza2m.c ****     spibsc_io_reg_write_32(&SPIBSC.SMDMCR.LONG, dummy_cycle_num, SPIBSC_SMDMCR_DMCYC_SHIFT, SPIBSC_
 1202              		.loc 1 829 0
 1203 0008 1F30A0E3 		mov	r3, #31
 1204 000c 0020A0E3 		mov	r2, #0
 1205              	.LVL142:
 1206 0010 0010A0E1 		mov	r1, r0
 1207              	.LVL143:
 1208 0014 6000A0E3 		mov	r0, #96
 1209              	.LVL144:
 1210 0018 800F41E3 		movt	r0, 8064
 1211 001c FEFFFFEB 		bl	spibsc_io_reg_write_32
 1212              	.LVL145:
 830:../generate/drivers/r_spibsc/src/lld/r_spibsc_lld_rza2m.c **** 
 831:../generate/drivers/r_spibsc/src/lld/r_spibsc_lld_rza2m.c ****     /* Since the version of UM has changed from 0.5 to 1.0 and the DMDB bit has been deleted, comme
 832:../generate/drivers/r_spibsc/src/lld/r_spibsc_lld_rza2m.c **** /*    SPIBSC_IO_RegWrite_32(&SPIBSC.SMDMCR.LONG, width,           SPIBSC_SMDMCR_DMDB_SHIFT,  SPIBSC
 833:../generate/drivers/r_spibsc/src/lld/r_spibsc_lld_rza2m.c ****     UNUSED_PARAM(width);
 834:../generate/drivers/r_spibsc/src/lld/r_spibsc_lld_rza2m.c **** 
 835:../generate/drivers/r_spibsc/src/lld/r_spibsc_lld_rza2m.c ****     if ( SPIBSC_OUTPUT_ENABLE == output_enable)
 1213              		.loc 1 835 0
 1214 0020 010054E3 		cmp	r4, #1
 1215 0024 0600000A 		beq	.L70
 836:../generate/drivers/r_spibsc/src/lld/r_spibsc_lld_rza2m.c ****     {
 837:../generate/drivers/r_spibsc/src/lld/r_spibsc_lld_rza2m.c ****         /* SMENR.DME = 1 : Dummy cycle output enabled */
 838:../generate/drivers/r_spibsc/src/lld/r_spibsc_lld_rza2m.c ****         spibsc_io_reg_write_32(&SPIBSC.SMENR.LONG, SPIBSC_OUTPUT_ENABLE, SPIBSC_SMENR_DME_SHIFT, SP
 839:../generate/drivers/r_spibsc/src/lld/r_spibsc_lld_rza2m.c ****     }
 840:../generate/drivers/r_spibsc/src/lld/r_spibsc_lld_rza2m.c ****     else
 841:../generate/drivers/r_spibsc/src/lld/r_spibsc_lld_rza2m.c ****     {
 842:../generate/drivers/r_spibsc/src/lld/r_spibsc_lld_rza2m.c ****         /* SMENR.DME = 0 : Dummy Cycle output disabled */
 843:../generate/drivers/r_spibsc/src/lld/r_spibsc_lld_rza2m.c ****         spibsc_io_reg_write_32(&SPIBSC.SMENR.LONG, SPIBSC_OUTPUT_DISABLE, SPIBSC_SMENR_DME_SHIFT, S
 1216              		.loc 1 843 0
 1217 0028 0239A0E3 		mov	r3, #32768
 1218 002c 0F20A0E3 		mov	r2, #15
 1219 0030 0010A0E3 		mov	r1, #0
 1220 0034 3000A0E3 		mov	r0, #48
 1221 0038 800F41E3 		movt	r0, 8064
 1222 003c FEFFFFEB 		bl	spibsc_io_reg_write_32
 1223              	.LVL146:
 844:../generate/drivers/r_spibsc/src/lld/r_spibsc_lld_rza2m.c ****     }
 845:../generate/drivers/r_spibsc/src/lld/r_spibsc_lld_rza2m.c **** 
 846:../generate/drivers/r_spibsc/src/lld/r_spibsc_lld_rza2m.c **** }
 1224              		.loc 1 846 0
 1225 0040 1080BDE8 		pop	{r4, pc}
 1226              	.L70:
 838:../generate/drivers/r_spibsc/src/lld/r_spibsc_lld_rza2m.c ****     }
 1227              		.loc 1 838 0
 1228 0044 0239A0E3 		mov	r3, #32768
 1229 0048 0F20A0E3 		mov	r2, #15
 1230 004c 0110A0E3 		mov	r1, #1
 1231 0050 3000A0E3 		mov	r0, #48
 1232 0054 800F41E3 		movt	r0, 8064
 1233 0058 FEFFFFEB 		bl	spibsc_io_reg_write_32
 1234              	.LVL147:
 1235 005c 1080BDE8 		pop	{r4, pc}
 1236              		.cfi_endproc
 1237              	.LFE15:
 1239              		.section	.text.r_spibsc_manual_set_datatransfer,"ax",%progbits
 1240              		.align	2
 1241              		.syntax unified
 1242              		.arm
 1243              		.fpu neon
 1245              	r_spibsc_manual_set_datatransfer:
 1246              	.LFB16:
 847:../generate/drivers/r_spibsc/src/lld/r_spibsc_lld_rza2m.c **** /*******************************************************************************
 848:../generate/drivers/r_spibsc/src/lld/r_spibsc_lld_rza2m.c **** End of function r_spibsc_manual_set_dummy_cycle
 849:../generate/drivers/r_spibsc/src/lld/r_spibsc_lld_rza2m.c **** *******************************************************************************/
 850:../generate/drivers/r_spibsc/src/lld/r_spibsc_lld_rza2m.c **** 
 851:../generate/drivers/r_spibsc/src/lld/r_spibsc_lld_rza2m.c **** 
 852:../generate/drivers/r_spibsc/src/lld/r_spibsc_lld_rza2m.c **** /*******************************************************************************
 853:../generate/drivers/r_spibsc/src/lld/r_spibsc_lld_rza2m.c **** * Function Name: r_spibsc_manual_set_datatransfer
 854:../generate/drivers/r_spibsc/src/lld/r_spibsc_lld_rza2m.c **** * Description  : Option Data Setting (Manual mode)
 855:../generate/drivers/r_spibsc/src/lld/r_spibsc_lld_rza2m.c **** * Arguments    : uint8_t transfer_unit  : Transfer Unit size
 856:../generate/drivers/r_spibsc/src/lld/r_spibsc_lld_rza2m.c **** *              :                        :    b'0000: Not transferred
 857:../generate/drivers/r_spibsc/src/lld/r_spibsc_lld_rza2m.c **** *              :                        :    b'1000: 8 bits transferred
 858:../generate/drivers/r_spibsc/src/lld/r_spibsc_lld_rza2m.c **** *              :                        :    b'1100: 16 bits transferred
 859:../generate/drivers/r_spibsc/src/lld/r_spibsc_lld_rza2m.c **** *              :                        :    b'1111: 32 bits transferred
 860:../generate/drivers/r_spibsc/src/lld/r_spibsc_lld_rza2m.c **** *              : uint8_t width          : Data bus width
 861:../generate/drivers/r_spibsc/src/lld/r_spibsc_lld_rza2m.c **** *              :                        :   b'00 : 1bit
 862:../generate/drivers/r_spibsc/src/lld/r_spibsc_lld_rza2m.c **** *              :                        :   b'10 : 4bit
 863:../generate/drivers/r_spibsc/src/lld/r_spibsc_lld_rza2m.c **** *              : uint8_t write_enable   : Data Write Enable
 864:../generate/drivers/r_spibsc/src/lld/r_spibsc_lld_rza2m.c **** *              :                        :   0 : Data writing disabled
 865:../generate/drivers/r_spibsc/src/lld/r_spibsc_lld_rza2m.c **** *              :                        :   1 : Data writing enabled
 866:../generate/drivers/r_spibsc/src/lld/r_spibsc_lld_rza2m.c **** *              : uint8_t read_enable    : Data Read Enable
 867:../generate/drivers/r_spibsc/src/lld/r_spibsc_lld_rza2m.c **** *              :                        :   0 : Data reading disabled
 868:../generate/drivers/r_spibsc/src/lld/r_spibsc_lld_rza2m.c **** *              :                        :   1 : Data reading enabled
 869:../generate/drivers/r_spibsc/src/lld/r_spibsc_lld_rza2m.c **** *              : uint8_t ddr_enable     : Data DDR Enable
 870:../generate/drivers/r_spibsc/src/lld/r_spibsc_lld_rza2m.c **** *              :                        :   0 : SDR
 871:../generate/drivers/r_spibsc/src/lld/r_spibsc_lld_rza2m.c **** *              :                        :   1 : DDR
 872:../generate/drivers/r_spibsc/src/lld/r_spibsc_lld_rza2m.c **** * Return Value : none
 873:../generate/drivers/r_spibsc/src/lld/r_spibsc_lld_rza2m.c **** *******************************************************************************/
 874:../generate/drivers/r_spibsc/src/lld/r_spibsc_lld_rza2m.c **** static void r_spibsc_manual_set_datatransfer(uint8_t transfer_unit,uint8_t width,uint8_t write_enab
 875:../generate/drivers/r_spibsc/src/lld/r_spibsc_lld_rza2m.c **** {
 1247              		.loc 1 875 0
 1248              		.cfi_startproc
 1249              		@ args = 4, pretend = 0, frame = 0
 1250              		@ frame_needed = 0, uses_anonymous_args = 0
 1251              	.LVL148:
 1252 0000 F0412DE9 		push	{r4, r5, r6, r7, r8, lr}
 1253              		.cfi_def_cfa_offset 24
 1254              		.cfi_offset 4, -24
 1255              		.cfi_offset 5, -20
 1256              		.cfi_offset 6, -16
 1257              		.cfi_offset 7, -12
 1258              		.cfi_offset 8, -8
 1259              		.cfi_offset 14, -4
 1260 0004 0170A0E1 		mov	r7, r1
 1261 0008 0260A0E1 		mov	r6, r2
 1262 000c 0350A0E1 		mov	r5, r3
 876:../generate/drivers/r_spibsc/src/lld/r_spibsc_lld_rza2m.c **** 
 877:../generate/drivers/r_spibsc/src/lld/r_spibsc_lld_rza2m.c ****     spibsc_io_reg_write_32(&SPIBSC.SMENR.LONG, transfer_unit, SPIBSC_SMENR_SPIDE_SHIFT, SPIBSC_SMEN
 1263              		.loc 1 877 0
 1264 0010 3040A0E3 		mov	r4, #48
 1265 0014 804F41E3 		movt	r4, 8064
 1266 0018 0F30A0E3 		mov	r3, #15
 1267              	.LVL149:
 1268 001c 0020A0E3 		mov	r2, #0
 1269              	.LVL150:
 1270 0020 0010A0E1 		mov	r1, r0
 1271              	.LVL151:
 1272 0024 0400A0E1 		mov	r0, r4
 1273              	.LVL152:
 1274 0028 FEFFFFEB 		bl	spibsc_io_reg_write_32
 1275              	.LVL153:
 878:../generate/drivers/r_spibsc/src/lld/r_spibsc_lld_rza2m.c ****     spibsc_io_reg_write_32(&SPIBSC.SMENR.LONG, width,         SPIBSC_SMENR_SPIDB_SHIFT, SPIBSC_SMEN
 1276              		.loc 1 878 0
 1277 002c 0338A0E3 		mov	r3, #196608
 1278 0030 1020A0E3 		mov	r2, #16
 1279 0034 0710A0E1 		mov	r1, r7
 1280 0038 0400A0E1 		mov	r0, r4
 1281 003c FEFFFFEB 		bl	spibsc_io_reg_write_32
 1282              	.LVL154:
 879:../generate/drivers/r_spibsc/src/lld/r_spibsc_lld_rza2m.c **** 
 880:../generate/drivers/r_spibsc/src/lld/r_spibsc_lld_rza2m.c **** 
 881:../generate/drivers/r_spibsc/src/lld/r_spibsc_lld_rza2m.c ****     if ( 1 == write_enable)
 1283              		.loc 1 881 0
 1284 0040 010056E3 		cmp	r6, #1
 1285 0044 1700000A 		beq	.L79
 882:../generate/drivers/r_spibsc/src/lld/r_spibsc_lld_rza2m.c ****     {
 883:../generate/drivers/r_spibsc/src/lld/r_spibsc_lld_rza2m.c ****         /* SMCR.SPIWE = 1 : Data writing enabled */
 884:../generate/drivers/r_spibsc/src/lld/r_spibsc_lld_rza2m.c ****         spibsc_io_reg_write_32(&SPIBSC.SMCR.LONG, 1, SPIBSC_SMCR_SPIWE_SHIFT, SPIBSC_SMCR_SPIWE);
 885:../generate/drivers/r_spibsc/src/lld/r_spibsc_lld_rza2m.c ****     }
 886:../generate/drivers/r_spibsc/src/lld/r_spibsc_lld_rza2m.c ****     else
 887:../generate/drivers/r_spibsc/src/lld/r_spibsc_lld_rza2m.c ****     {
 888:../generate/drivers/r_spibsc/src/lld/r_spibsc_lld_rza2m.c ****         /* SMCR.SPIWE = 0 : Data writing disabled */
 889:../generate/drivers/r_spibsc/src/lld/r_spibsc_lld_rza2m.c ****         spibsc_io_reg_write_32(&SPIBSC.SMCR.LONG, 0, SPIBSC_SMCR_SPIWE_SHIFT, SPIBSC_SMCR_SPIWE);
 1286              		.loc 1 889 0
 1287 0048 0230A0E3 		mov	r3, #2
 1288 004c 0120A0E3 		mov	r2, #1
 1289 0050 0010A0E3 		mov	r1, #0
 1290 0054 2000A0E3 		mov	r0, #32
 1291 0058 800F41E3 		movt	r0, 8064
 1292 005c FEFFFFEB 		bl	spibsc_io_reg_write_32
 1293              	.LVL155:
 1294              	.L73:
 890:../generate/drivers/r_spibsc/src/lld/r_spibsc_lld_rza2m.c ****     }
 891:../generate/drivers/r_spibsc/src/lld/r_spibsc_lld_rza2m.c **** 
 892:../generate/drivers/r_spibsc/src/lld/r_spibsc_lld_rza2m.c ****     if ( 1 == read_enable)
 1295              		.loc 1 892 0
 1296 0060 010055E3 		cmp	r5, #1
 1297 0064 1600000A 		beq	.L80
 893:../generate/drivers/r_spibsc/src/lld/r_spibsc_lld_rza2m.c ****     {
 894:../generate/drivers/r_spibsc/src/lld/r_spibsc_lld_rza2m.c ****         /* SMCR.SPIRE = 1 : Data reading enabled */
 895:../generate/drivers/r_spibsc/src/lld/r_spibsc_lld_rza2m.c ****         spibsc_io_reg_write_32(&SPIBSC.SMCR.LONG, 1, SPIBSC_SMCR_SPIRE_SHIFT, SPIBSC_SMCR_SPIRE);
 896:../generate/drivers/r_spibsc/src/lld/r_spibsc_lld_rza2m.c ****     }
 897:../generate/drivers/r_spibsc/src/lld/r_spibsc_lld_rza2m.c ****     else
 898:../generate/drivers/r_spibsc/src/lld/r_spibsc_lld_rza2m.c ****     {
 899:../generate/drivers/r_spibsc/src/lld/r_spibsc_lld_rza2m.c ****         /* SMCR.SPIRE = 0 : Data reading disabled */
 900:../generate/drivers/r_spibsc/src/lld/r_spibsc_lld_rza2m.c ****         spibsc_io_reg_write_32(&SPIBSC.SMCR.LONG, 0, SPIBSC_SMCR_SPIRE_SHIFT, SPIBSC_SMCR_SPIRE);
 1298              		.loc 1 900 0
 1299 0068 0430A0E3 		mov	r3, #4
 1300 006c 0220A0E3 		mov	r2, #2
 1301 0070 0010A0E3 		mov	r1, #0
 1302 0074 2000A0E3 		mov	r0, #32
 1303 0078 800F41E3 		movt	r0, 8064
 1304 007c FEFFFFEB 		bl	spibsc_io_reg_write_32
 1305              	.LVL156:
 1306              	.L75:
 901:../generate/drivers/r_spibsc/src/lld/r_spibsc_lld_rza2m.c ****     }
 902:../generate/drivers/r_spibsc/src/lld/r_spibsc_lld_rza2m.c **** 
 903:../generate/drivers/r_spibsc/src/lld/r_spibsc_lld_rza2m.c **** 
 904:../generate/drivers/r_spibsc/src/lld/r_spibsc_lld_rza2m.c ****     if ( 1 == ddr_enable )
 1307              		.loc 1 904 0
 1308 0080 1830DDE5 		ldrb	r3, [sp, #24]	@ zero_extendqisi2
 1309 0084 010053E3 		cmp	r3, #1
 1310 0088 1400000A 		beq	.L81
 905:../generate/drivers/r_spibsc/src/lld/r_spibsc_lld_rza2m.c ****     {
 906:../generate/drivers/r_spibsc/src/lld/r_spibsc_lld_rza2m.c ****         /* SMDRENR.SPIDRE = 1 : TRANSFER DATA is DDR transfer setting */
 907:../generate/drivers/r_spibsc/src/lld/r_spibsc_lld_rza2m.c ****         spibsc_io_reg_write_32(&SPIBSC.SMDRENR.LONG, 1, SPIBSC_SMDRENR_SPIDRE_SHIFT, SPIBSC_SMDRENR
 908:../generate/drivers/r_spibsc/src/lld/r_spibsc_lld_rza2m.c ****     }
 909:../generate/drivers/r_spibsc/src/lld/r_spibsc_lld_rza2m.c ****     else
 910:../generate/drivers/r_spibsc/src/lld/r_spibsc_lld_rza2m.c ****     {
 911:../generate/drivers/r_spibsc/src/lld/r_spibsc_lld_rza2m.c ****         /* SMDRENR.SPIDRE = 0 : TRANSFER DATA is SDR transfer setting */
 912:../generate/drivers/r_spibsc/src/lld/r_spibsc_lld_rza2m.c ****         spibsc_io_reg_write_32(&SPIBSC.SMDRENR.LONG, 0, SPIBSC_SMDRENR_SPIDRE_SHIFT, SPIBSC_SMDRENR
 1311              		.loc 1 912 0
 1312 008c 0130A0E3 		mov	r3, #1
 1313 0090 0020A0E3 		mov	r2, #0
 1314 0094 0210A0E1 		mov	r1, r2
 1315 0098 6400A0E3 		mov	r0, #100
 1316 009c 800F41E3 		movt	r0, 8064
 1317 00a0 FEFFFFEB 		bl	spibsc_io_reg_write_32
 1318              	.LVL157:
 913:../generate/drivers/r_spibsc/src/lld/r_spibsc_lld_rza2m.c ****     }
 914:../generate/drivers/r_spibsc/src/lld/r_spibsc_lld_rza2m.c **** 
 915:../generate/drivers/r_spibsc/src/lld/r_spibsc_lld_rza2m.c **** }
 1319              		.loc 1 915 0
 1320 00a4 F081BDE8 		pop	{r4, r5, r6, r7, r8, pc}
 1321              	.L79:
 884:../generate/drivers/r_spibsc/src/lld/r_spibsc_lld_rza2m.c ****     }
 1322              		.loc 1 884 0
 1323 00a8 0230A0E3 		mov	r3, #2
 1324 00ac 0120A0E3 		mov	r2, #1
 1325 00b0 0210A0E1 		mov	r1, r2
 1326 00b4 2000A0E3 		mov	r0, #32
 1327 00b8 800F41E3 		movt	r0, 8064
 1328 00bc FEFFFFEB 		bl	spibsc_io_reg_write_32
 1329              	.LVL158:
 1330 00c0 E6FFFFEA 		b	.L73
 1331              	.L80:
 895:../generate/drivers/r_spibsc/src/lld/r_spibsc_lld_rza2m.c ****     }
 1332              		.loc 1 895 0
 1333 00c4 0430A0E3 		mov	r3, #4
 1334 00c8 0220A0E3 		mov	r2, #2
 1335 00cc 0110A0E3 		mov	r1, #1
 1336 00d0 2000A0E3 		mov	r0, #32
 1337 00d4 800F41E3 		movt	r0, 8064
 1338 00d8 FEFFFFEB 		bl	spibsc_io_reg_write_32
 1339              	.LVL159:
 1340 00dc E7FFFFEA 		b	.L75
 1341              	.L81:
 907:../generate/drivers/r_spibsc/src/lld/r_spibsc_lld_rza2m.c ****     }
 1342              		.loc 1 907 0
 1343 00e0 0020A0E3 		mov	r2, #0
 1344 00e4 0310A0E1 		mov	r1, r3
 1345 00e8 6400A0E3 		mov	r0, #100
 1346 00ec 800F41E3 		movt	r0, 8064
 1347 00f0 FEFFFFEB 		bl	spibsc_io_reg_write_32
 1348              	.LVL160:
 1349 00f4 F081BDE8 		pop	{r4, r5, r6, r7, r8, pc}
 1350              		.cfi_endproc
 1351              	.LFE16:
 1353              		.section	.text.r_spibsc_manual_start_transfer,"ax",%progbits
 1354              		.align	2
 1355              		.syntax unified
 1356              		.arm
 1357              		.fpu neon
 1359              	r_spibsc_manual_start_transfer:
 1360              	.LFB17:
 916:../generate/drivers/r_spibsc/src/lld/r_spibsc_lld_rza2m.c **** /*******************************************************************************
 917:../generate/drivers/r_spibsc/src/lld/r_spibsc_lld_rza2m.c **** End of function r_spibsc_manual_set_datatransfer
 918:../generate/drivers/r_spibsc/src/lld/r_spibsc_lld_rza2m.c **** *******************************************************************************/
 919:../generate/drivers/r_spibsc/src/lld/r_spibsc_lld_rza2m.c **** 
 920:../generate/drivers/r_spibsc/src/lld/r_spibsc_lld_rza2m.c **** 
 921:../generate/drivers/r_spibsc/src/lld/r_spibsc_lld_rza2m.c **** /*******************************************************************************
 922:../generate/drivers/r_spibsc/src/lld/r_spibsc_lld_rza2m.c **** * Function Name: r_spibsc_manual_start_transfer
 923:../generate/drivers/r_spibsc/src/lld/r_spibsc_lld_rza2m.c **** * Description  : Start Transfer  (Manual mode)
 924:../generate/drivers/r_spibsc/src/lld/r_spibsc_lld_rza2m.c **** * Arguments    : none
 925:../generate/drivers/r_spibsc/src/lld/r_spibsc_lld_rza2m.c **** * Return Value : none
 926:../generate/drivers/r_spibsc/src/lld/r_spibsc_lld_rza2m.c **** *******************************************************************************/
 927:../generate/drivers/r_spibsc/src/lld/r_spibsc_lld_rza2m.c **** static void r_spibsc_manual_start_transfer(void)
 928:../generate/drivers/r_spibsc/src/lld/r_spibsc_lld_rza2m.c **** {
 1361              		.loc 1 928 0
 1362              		.cfi_startproc
 1363              		@ args = 0, pretend = 0, frame = 0
 1364              		@ frame_needed = 0, uses_anonymous_args = 0
 1365 0000 10402DE9 		push	{r4, lr}
 1366              		.cfi_def_cfa_offset 8
 1367              		.cfi_offset 4, -8
 1368              		.cfi_offset 14, -4
 929:../generate/drivers/r_spibsc/src/lld/r_spibsc_lld_rza2m.c **** 
 930:../generate/drivers/r_spibsc/src/lld/r_spibsc_lld_rza2m.c ****     /* PHYCNT.CAL = 1 : Calibration Setting */
 931:../generate/drivers/r_spibsc/src/lld/r_spibsc_lld_rza2m.c ****     spibsc_io_reg_write_32(&SPIBSC.PHYCNT.LONG, 1, SPIBSC_PHYCNT_CAL_SHIFT, SPIBSC_PHYCNT_CAL);
 1369              		.loc 1 931 0
 1370 0004 0231A0E3 		mov	r3, #-2147483648
 1371 0008 1F20A0E3 		mov	r2, #31
 1372 000c 0110A0E3 		mov	r1, #1
 1373 0010 7C00A0E3 		mov	r0, #124
 1374 0014 800F41E3 		movt	r0, 8064
 1375 0018 FEFFFFEB 		bl	spibsc_io_reg_write_32
 1376              	.LVL161:
 932:../generate/drivers/r_spibsc/src/lld/r_spibsc_lld_rza2m.c **** 
 933:../generate/drivers/r_spibsc/src/lld/r_spibsc_lld_rza2m.c ****     /* SMCR.SPIE = 1 : Start Transfer  */
 934:../generate/drivers/r_spibsc/src/lld/r_spibsc_lld_rza2m.c ****     spibsc_io_reg_write_32(&SPIBSC.SMCR.LONG,   1, SPIBSC_SMCR_SPIE_SHIFT,  SPIBSC_SMCR_SPIE);
 1377              		.loc 1 934 0
 1378 001c 0130A0E3 		mov	r3, #1
 1379 0020 0020A0E3 		mov	r2, #0
 1380 0024 0310A0E1 		mov	r1, r3
 1381 0028 2000A0E3 		mov	r0, #32
 1382 002c 800F41E3 		movt	r0, 8064
 1383 0030 FEFFFFEB 		bl	spibsc_io_reg_write_32
 1384              	.LVL162:
 935:../generate/drivers/r_spibsc/src/lld/r_spibsc_lld_rza2m.c **** }
 1385              		.loc 1 935 0
 1386 0034 1080BDE8 		pop	{r4, pc}
 1387              		.cfi_endproc
 1388              	.LFE17:
 1390              		.section	.text.r_spibsc_wait_tend,"ax",%progbits
 1391              		.align	2
 1392              		.syntax unified
 1393              		.arm
 1394              		.fpu neon
 1396              	r_spibsc_wait_tend:
 1397              	.LFB18:
 936:../generate/drivers/r_spibsc/src/lld/r_spibsc_lld_rza2m.c **** /*******************************************************************************
 937:../generate/drivers/r_spibsc/src/lld/r_spibsc_lld_rza2m.c **** End of function r_spibsc_manual_start_transfer
 938:../generate/drivers/r_spibsc/src/lld/r_spibsc_lld_rza2m.c **** *******************************************************************************/
 939:../generate/drivers/r_spibsc/src/lld/r_spibsc_lld_rza2m.c **** 
 940:../generate/drivers/r_spibsc/src/lld/r_spibsc_lld_rza2m.c **** /*******************************************************************************
 941:../generate/drivers/r_spibsc/src/lld/r_spibsc_lld_rza2m.c **** * Function Name: r_spibsc_wait_tend
 942:../generate/drivers/r_spibsc/src/lld/r_spibsc_lld_rza2m.c **** * Description  : Wait Transfer End (Manual mode)
 943:../generate/drivers/r_spibsc/src/lld/r_spibsc_lld_rza2m.c **** * Arguments    : none
 944:../generate/drivers/r_spibsc/src/lld/r_spibsc_lld_rza2m.c **** * Return Value : none
 945:../generate/drivers/r_spibsc/src/lld/r_spibsc_lld_rza2m.c **** *******************************************************************************/
 946:../generate/drivers/r_spibsc/src/lld/r_spibsc_lld_rza2m.c **** static void r_spibsc_wait_tend(void)
 947:../generate/drivers/r_spibsc/src/lld/r_spibsc_lld_rza2m.c **** {
 1398              		.loc 1 947 0
 1399              		.cfi_startproc
 1400              		@ args = 0, pretend = 0, frame = 0
 1401              		@ frame_needed = 0, uses_anonymous_args = 0
 1402 0000 10402DE9 		push	{r4, lr}
 1403              		.cfi_def_cfa_offset 8
 1404              		.cfi_offset 4, -8
 1405              		.cfi_offset 14, -4
 1406              	.L85:
 948:../generate/drivers/r_spibsc/src/lld/r_spibsc_lld_rza2m.c **** 
 949:../generate/drivers/r_spibsc/src/lld/r_spibsc_lld_rza2m.c ****     uint32_t tend;
 950:../generate/drivers/r_spibsc/src/lld/r_spibsc_lld_rza2m.c ****     
 951:../generate/drivers/r_spibsc/src/lld/r_spibsc_lld_rza2m.c ****     do{
 952:../generate/drivers/r_spibsc/src/lld/r_spibsc_lld_rza2m.c **** 
 953:../generate/drivers/r_spibsc/src/lld/r_spibsc_lld_rza2m.c ****         /* Read CMNSR.TEND */
 954:../generate/drivers/r_spibsc/src/lld/r_spibsc_lld_rza2m.c ****        tend = spibsc_io_reg_read_32(&SPIBSC.CMNSR.LONG, SPIBSC_CMNSR_TEND_SHIFT, SPIBSC_CMNSR_TEND)
 1407              		.loc 1 954 0 discriminator 1
 1408 0004 0120A0E3 		mov	r2, #1
 1409 0008 0010A0E3 		mov	r1, #0
 1410 000c 4800A0E3 		mov	r0, #72
 1411 0010 800F41E3 		movt	r0, 8064
 1412 0014 FEFFFFEB 		bl	spibsc_io_reg_read_32
 1413              	.LVL163:
 955:../generate/drivers/r_spibsc/src/lld/r_spibsc_lld_rza2m.c ****        
 956:../generate/drivers/r_spibsc/src/lld/r_spibsc_lld_rza2m.c ****     }while( 0 == tend );
 1414              		.loc 1 956 0 discriminator 1
 1415 0018 000050E3 		cmp	r0, #0
 1416 001c F8FFFF0A 		beq	.L85
 1417 0020 1080BDE8 		pop	{r4, pc}
 1418              		.cfi_endproc
 1419              	.LFE18:
 1421              		.section	.text.r_spibsc_manual_read_data0_8,"ax",%progbits
 1422              		.align	2
 1423              		.syntax unified
 1424              		.arm
 1425              		.fpu neon
 1427              	r_spibsc_manual_read_data0_8:
 1428              	.LFB19:
 957:../generate/drivers/r_spibsc/src/lld/r_spibsc_lld_rza2m.c **** 
 958:../generate/drivers/r_spibsc/src/lld/r_spibsc_lld_rza2m.c **** }
 959:../generate/drivers/r_spibsc/src/lld/r_spibsc_lld_rza2m.c **** /*******************************************************************************
 960:../generate/drivers/r_spibsc/src/lld/r_spibsc_lld_rza2m.c **** End of function r_spibsc_wait_tend
 961:../generate/drivers/r_spibsc/src/lld/r_spibsc_lld_rza2m.c **** *******************************************************************************/
 962:../generate/drivers/r_spibsc/src/lld/r_spibsc_lld_rza2m.c **** 
 963:../generate/drivers/r_spibsc/src/lld/r_spibsc_lld_rza2m.c **** 
 964:../generate/drivers/r_spibsc/src/lld/r_spibsc_lld_rza2m.c **** /*******************************************************************************
 965:../generate/drivers/r_spibsc/src/lld/r_spibsc_lld_rza2m.c **** * Function Name: r_spibsc_manual_read_data0_8
 966:../generate/drivers/r_spibsc/src/lld/r_spibsc_lld_rza2m.c **** * Description  : Read SMRDR0 register (8bit access)
 967:../generate/drivers/r_spibsc/src/lld/r_spibsc_lld_rza2m.c **** * Arguments    : none
 968:../generate/drivers/r_spibsc/src/lld/r_spibsc_lld_rza2m.c **** * Return Value : read data from SMRDR0 (8bit)
 969:../generate/drivers/r_spibsc/src/lld/r_spibsc_lld_rza2m.c **** *******************************************************************************/
 970:../generate/drivers/r_spibsc/src/lld/r_spibsc_lld_rza2m.c **** static uint8_t r_spibsc_manual_read_data0_8(void)
 971:../generate/drivers/r_spibsc/src/lld/r_spibsc_lld_rza2m.c **** {
 1429              		.loc 1 971 0
 1430              		.cfi_startproc
 1431              		@ args = 0, pretend = 0, frame = 0
 1432              		@ frame_needed = 0, uses_anonymous_args = 0
 1433 0000 10402DE9 		push	{r4, lr}
 1434              		.cfi_def_cfa_offset 8
 1435              		.cfi_offset 4, -8
 1436              		.cfi_offset 14, -4
 972:../generate/drivers/r_spibsc/src/lld/r_spibsc_lld_rza2m.c ****     uint8_t data;
 973:../generate/drivers/r_spibsc/src/lld/r_spibsc_lld_rza2m.c **** 
 974:../generate/drivers/r_spibsc/src/lld/r_spibsc_lld_rza2m.c ****     /* Read SMRDR0 register (8bit access) */
 975:../generate/drivers/r_spibsc/src/lld/r_spibsc_lld_rza2m.c ****     data = spibsc_io_reg_read_8(&SPIBSC.SMRDR0.BYTE.LL, SPIBSC_SMRDR0_RDATA0_SHIFT,  (uint8_t)SPIBS
 1437              		.loc 1 975 0
 1438 0004 FF20A0E3 		mov	r2, #255
 1439 0008 0010A0E3 		mov	r1, #0
 1440 000c 3800A0E3 		mov	r0, #56
 1441 0010 800F41E3 		movt	r0, 8064
 1442 0014 FEFFFFEB 		bl	spibsc_io_reg_read_8
 1443              	.LVL164:
 976:../generate/drivers/r_spibsc/src/lld/r_spibsc_lld_rza2m.c ****     return  data;
 977:../generate/drivers/r_spibsc/src/lld/r_spibsc_lld_rza2m.c **** }
 1444              		.loc 1 977 0
 1445 0018 1080BDE8 		pop	{r4, pc}
 1446              		.cfi_endproc
 1447              	.LFE19:
 1449              		.section	.text.r_spibsc_manual_read_data0_32,"ax",%progbits
 1450              		.align	2
 1451              		.syntax unified
 1452              		.arm
 1453              		.fpu neon
 1455              	r_spibsc_manual_read_data0_32:
 1456              	.LFB21:
 978:../generate/drivers/r_spibsc/src/lld/r_spibsc_lld_rza2m.c **** /*******************************************************************************
 979:../generate/drivers/r_spibsc/src/lld/r_spibsc_lld_rza2m.c **** End of function r_spibsc_manual_read_data0_8
 980:../generate/drivers/r_spibsc/src/lld/r_spibsc_lld_rza2m.c **** *******************************************************************************/
 981:../generate/drivers/r_spibsc/src/lld/r_spibsc_lld_rza2m.c **** 
 982:../generate/drivers/r_spibsc/src/lld/r_spibsc_lld_rza2m.c **** 
 983:../generate/drivers/r_spibsc/src/lld/r_spibsc_lld_rza2m.c **** /*******************************************************************************
 984:../generate/drivers/r_spibsc/src/lld/r_spibsc_lld_rza2m.c **** * Function Name: r_spibsc_manual_read_data0_16
 985:../generate/drivers/r_spibsc/src/lld/r_spibsc_lld_rza2m.c **** * Description  : Read SMRDR0 register (16bit access)
 986:../generate/drivers/r_spibsc/src/lld/r_spibsc_lld_rza2m.c **** * Arguments    : none
 987:../generate/drivers/r_spibsc/src/lld/r_spibsc_lld_rza2m.c **** * Return Value : read data from SMRDR0 (16bit)
 988:../generate/drivers/r_spibsc/src/lld/r_spibsc_lld_rza2m.c **** *******************************************************************************/
 989:../generate/drivers/r_spibsc/src/lld/r_spibsc_lld_rza2m.c **** static uint16_t r_spibsc_manual_read_data0_16(void)
 990:../generate/drivers/r_spibsc/src/lld/r_spibsc_lld_rza2m.c **** {
 991:../generate/drivers/r_spibsc/src/lld/r_spibsc_lld_rza2m.c ****     uint16_t data;
 992:../generate/drivers/r_spibsc/src/lld/r_spibsc_lld_rza2m.c **** 
 993:../generate/drivers/r_spibsc/src/lld/r_spibsc_lld_rza2m.c ****     /* Read SMRDR0 register (16bit access) */
 994:../generate/drivers/r_spibsc/src/lld/r_spibsc_lld_rza2m.c ****     data = spibsc_io_reg_read_16(&SPIBSC.SMRDR0.WORD.L, SPIBSC_SMRDR0_RDATA0_SHIFT,  (uint16_t)SPIB
 995:../generate/drivers/r_spibsc/src/lld/r_spibsc_lld_rza2m.c **** 
 996:../generate/drivers/r_spibsc/src/lld/r_spibsc_lld_rza2m.c ****     return  data;
 997:../generate/drivers/r_spibsc/src/lld/r_spibsc_lld_rza2m.c **** }
 998:../generate/drivers/r_spibsc/src/lld/r_spibsc_lld_rza2m.c **** /*******************************************************************************
 999:../generate/drivers/r_spibsc/src/lld/r_spibsc_lld_rza2m.c **** End of function r_spibsc_manual_read_data0_16
1000:../generate/drivers/r_spibsc/src/lld/r_spibsc_lld_rza2m.c **** *******************************************************************************/
1001:../generate/drivers/r_spibsc/src/lld/r_spibsc_lld_rza2m.c **** 
1002:../generate/drivers/r_spibsc/src/lld/r_spibsc_lld_rza2m.c **** 
1003:../generate/drivers/r_spibsc/src/lld/r_spibsc_lld_rza2m.c **** /*******************************************************************************
1004:../generate/drivers/r_spibsc/src/lld/r_spibsc_lld_rza2m.c **** * Function Name: r_spibsc_manual_read_data0_32
1005:../generate/drivers/r_spibsc/src/lld/r_spibsc_lld_rza2m.c **** * Description  : Read SMRDR0 register (32bit access)
1006:../generate/drivers/r_spibsc/src/lld/r_spibsc_lld_rza2m.c **** * Arguments    : none
1007:../generate/drivers/r_spibsc/src/lld/r_spibsc_lld_rza2m.c **** * Return Value : read data from SMRDR0 (32bit)
1008:../generate/drivers/r_spibsc/src/lld/r_spibsc_lld_rza2m.c **** *******************************************************************************/
1009:../generate/drivers/r_spibsc/src/lld/r_spibsc_lld_rza2m.c **** static uint32_t r_spibsc_manual_read_data0_32(void)
1010:../generate/drivers/r_spibsc/src/lld/r_spibsc_lld_rza2m.c **** {
 1457              		.loc 1 1010 0
 1458              		.cfi_startproc
 1459              		@ args = 0, pretend = 0, frame = 0
 1460              		@ frame_needed = 0, uses_anonymous_args = 0
 1461 0000 10402DE9 		push	{r4, lr}
 1462              		.cfi_def_cfa_offset 8
 1463              		.cfi_offset 4, -8
 1464              		.cfi_offset 14, -4
1011:../generate/drivers/r_spibsc/src/lld/r_spibsc_lld_rza2m.c ****     uint32_t data;
1012:../generate/drivers/r_spibsc/src/lld/r_spibsc_lld_rza2m.c **** 
1013:../generate/drivers/r_spibsc/src/lld/r_spibsc_lld_rza2m.c ****     /* Read SMRDR0 register (32bit access) */
1014:../generate/drivers/r_spibsc/src/lld/r_spibsc_lld_rza2m.c ****     data = spibsc_io_reg_read_32(&SPIBSC.SMRDR0.LONG, SPIBSC_SMRDR0_RDATA0_SHIFT, SPIBSC_SMRDR0_RDA
 1465              		.loc 1 1014 0
 1466 0004 0020E0E3 		mvn	r2, #0
 1467 0008 0010A0E3 		mov	r1, #0
 1468 000c 3800A0E3 		mov	r0, #56
 1469 0010 800F41E3 		movt	r0, 8064
 1470 0014 FEFFFFEB 		bl	spibsc_io_reg_read_32
 1471              	.LVL165:
1015:../generate/drivers/r_spibsc/src/lld/r_spibsc_lld_rza2m.c **** 
1016:../generate/drivers/r_spibsc/src/lld/r_spibsc_lld_rza2m.c ****     return data;
1017:../generate/drivers/r_spibsc/src/lld/r_spibsc_lld_rza2m.c **** }
 1472              		.loc 1 1017 0
 1473 0018 1080BDE8 		pop	{r4, pc}
 1474              		.cfi_endproc
 1475              	.LFE21:
 1477              		.section	.text.r_spibsc_manual_write_data0_8,"ax",%progbits
 1478              		.align	2
 1479              		.syntax unified
 1480              		.arm
 1481              		.fpu neon
 1483              	r_spibsc_manual_write_data0_8:
 1484              	.LFB25:
1018:../generate/drivers/r_spibsc/src/lld/r_spibsc_lld_rza2m.c **** /*******************************************************************************
1019:../generate/drivers/r_spibsc/src/lld/r_spibsc_lld_rza2m.c **** End of function r_spibsc_manual_read_data0_32
1020:../generate/drivers/r_spibsc/src/lld/r_spibsc_lld_rza2m.c **** *******************************************************************************/
1021:../generate/drivers/r_spibsc/src/lld/r_spibsc_lld_rza2m.c **** 
1022:../generate/drivers/r_spibsc/src/lld/r_spibsc_lld_rza2m.c **** 
1023:../generate/drivers/r_spibsc/src/lld/r_spibsc_lld_rza2m.c **** /*******************************************************************************
1024:../generate/drivers/r_spibsc/src/lld/r_spibsc_lld_rza2m.c **** * Function Name: r_spibsc_manual_read_data1_8
1025:../generate/drivers/r_spibsc/src/lld/r_spibsc_lld_rza2m.c **** * Description  : Read SMRDR1 register (8bit access)
1026:../generate/drivers/r_spibsc/src/lld/r_spibsc_lld_rza2m.c **** * Arguments    : none
1027:../generate/drivers/r_spibsc/src/lld/r_spibsc_lld_rza2m.c **** * Return Value : read data from SMRDR1 (8bit)
1028:../generate/drivers/r_spibsc/src/lld/r_spibsc_lld_rza2m.c **** *******************************************************************************/
1029:../generate/drivers/r_spibsc/src/lld/r_spibsc_lld_rza2m.c **** static uint8_t r_spibsc_manual_read_data1_8(void)
1030:../generate/drivers/r_spibsc/src/lld/r_spibsc_lld_rza2m.c **** {
1031:../generate/drivers/r_spibsc/src/lld/r_spibsc_lld_rza2m.c ****     uint8_t data;
1032:../generate/drivers/r_spibsc/src/lld/r_spibsc_lld_rza2m.c **** 
1033:../generate/drivers/r_spibsc/src/lld/r_spibsc_lld_rza2m.c ****     /* Read SMRDR1 register (8bit access) */
1034:../generate/drivers/r_spibsc/src/lld/r_spibsc_lld_rza2m.c ****     data = spibsc_io_reg_read_8(&SPIBSC.SMRDR1.BYTE.LL, SPIBSC_SMRDR1_RDATA1_SHIFT,  (uint8_t)SPIBS
1035:../generate/drivers/r_spibsc/src/lld/r_spibsc_lld_rza2m.c **** 
1036:../generate/drivers/r_spibsc/src/lld/r_spibsc_lld_rza2m.c ****     return data;
1037:../generate/drivers/r_spibsc/src/lld/r_spibsc_lld_rza2m.c **** }
1038:../generate/drivers/r_spibsc/src/lld/r_spibsc_lld_rza2m.c **** /*******************************************************************************
1039:../generate/drivers/r_spibsc/src/lld/r_spibsc_lld_rza2m.c **** End of function r_spibsc_manual_read_data1_8
1040:../generate/drivers/r_spibsc/src/lld/r_spibsc_lld_rza2m.c **** *******************************************************************************/
1041:../generate/drivers/r_spibsc/src/lld/r_spibsc_lld_rza2m.c **** 
1042:../generate/drivers/r_spibsc/src/lld/r_spibsc_lld_rza2m.c **** /*******************************************************************************
1043:../generate/drivers/r_spibsc/src/lld/r_spibsc_lld_rza2m.c **** * Function Name: r_spibsc_manual_read_data1_16
1044:../generate/drivers/r_spibsc/src/lld/r_spibsc_lld_rza2m.c **** * Description  : Read SMRDR1 register (16bit access)
1045:../generate/drivers/r_spibsc/src/lld/r_spibsc_lld_rza2m.c **** * Arguments    : none
1046:../generate/drivers/r_spibsc/src/lld/r_spibsc_lld_rza2m.c **** * Return Value : read data from SMRDR1 (16bit)
1047:../generate/drivers/r_spibsc/src/lld/r_spibsc_lld_rza2m.c **** *******************************************************************************/
1048:../generate/drivers/r_spibsc/src/lld/r_spibsc_lld_rza2m.c **** static uint16_t r_spibsc_manual_read_data1_16(void)
1049:../generate/drivers/r_spibsc/src/lld/r_spibsc_lld_rza2m.c **** {
1050:../generate/drivers/r_spibsc/src/lld/r_spibsc_lld_rza2m.c ****     uint16_t data;
1051:../generate/drivers/r_spibsc/src/lld/r_spibsc_lld_rza2m.c ****     
1052:../generate/drivers/r_spibsc/src/lld/r_spibsc_lld_rza2m.c ****     /* Read SMRDR1 register (16bit access) */
1053:../generate/drivers/r_spibsc/src/lld/r_spibsc_lld_rza2m.c ****     data = spibsc_io_reg_read_16(&SPIBSC.SMRDR1.WORD.L, SPIBSC_SMRDR1_RDATA1_SHIFT, (uint16_t)SPIBS
1054:../generate/drivers/r_spibsc/src/lld/r_spibsc_lld_rza2m.c ****     
1055:../generate/drivers/r_spibsc/src/lld/r_spibsc_lld_rza2m.c ****     return data;
1056:../generate/drivers/r_spibsc/src/lld/r_spibsc_lld_rza2m.c **** }
1057:../generate/drivers/r_spibsc/src/lld/r_spibsc_lld_rza2m.c **** /*******************************************************************************
1058:../generate/drivers/r_spibsc/src/lld/r_spibsc_lld_rza2m.c **** End of function r_spibsc_manual_read_data1_16
1059:../generate/drivers/r_spibsc/src/lld/r_spibsc_lld_rza2m.c **** *******************************************************************************/
1060:../generate/drivers/r_spibsc/src/lld/r_spibsc_lld_rza2m.c **** 
1061:../generate/drivers/r_spibsc/src/lld/r_spibsc_lld_rza2m.c **** /*******************************************************************************
1062:../generate/drivers/r_spibsc/src/lld/r_spibsc_lld_rza2m.c **** * Function Name: r_spibsc_manual_read_data1_32
1063:../generate/drivers/r_spibsc/src/lld/r_spibsc_lld_rza2m.c **** * Description  : Read SMRDR1 register (32bit access)
1064:../generate/drivers/r_spibsc/src/lld/r_spibsc_lld_rza2m.c **** * Arguments    : none
1065:../generate/drivers/r_spibsc/src/lld/r_spibsc_lld_rza2m.c **** * Return Value : read data from SMRDR1 (32bit)
1066:../generate/drivers/r_spibsc/src/lld/r_spibsc_lld_rza2m.c **** *******************************************************************************/
1067:../generate/drivers/r_spibsc/src/lld/r_spibsc_lld_rza2m.c **** static uint32_t r_spibsc_manual_read_data1_32(void)
1068:../generate/drivers/r_spibsc/src/lld/r_spibsc_lld_rza2m.c **** {
1069:../generate/drivers/r_spibsc/src/lld/r_spibsc_lld_rza2m.c ****     uint32_t data;
1070:../generate/drivers/r_spibsc/src/lld/r_spibsc_lld_rza2m.c ****     
1071:../generate/drivers/r_spibsc/src/lld/r_spibsc_lld_rza2m.c ****     /* Read SMRDR1 register (32bit access) */
1072:../generate/drivers/r_spibsc/src/lld/r_spibsc_lld_rza2m.c ****     data = spibsc_io_reg_read_32(&SPIBSC.SMRDR1.LONG, SPIBSC_SMRDR1_RDATA1_SHIFT,  SPIBSC_SMRDR1_RD
1073:../generate/drivers/r_spibsc/src/lld/r_spibsc_lld_rza2m.c ****     
1074:../generate/drivers/r_spibsc/src/lld/r_spibsc_lld_rza2m.c ****     return data;
1075:../generate/drivers/r_spibsc/src/lld/r_spibsc_lld_rza2m.c **** }
1076:../generate/drivers/r_spibsc/src/lld/r_spibsc_lld_rza2m.c **** /*******************************************************************************
1077:../generate/drivers/r_spibsc/src/lld/r_spibsc_lld_rza2m.c **** End of function r_spibsc_manual_read_data1_32
1078:../generate/drivers/r_spibsc/src/lld/r_spibsc_lld_rza2m.c **** *******************************************************************************/
1079:../generate/drivers/r_spibsc/src/lld/r_spibsc_lld_rza2m.c **** 
1080:../generate/drivers/r_spibsc/src/lld/r_spibsc_lld_rza2m.c **** 
1081:../generate/drivers/r_spibsc/src/lld/r_spibsc_lld_rza2m.c **** /*******************************************************************************
1082:../generate/drivers/r_spibsc/src/lld/r_spibsc_lld_rza2m.c **** * Function Name: r_spibsc_manual_write_data0_8
1083:../generate/drivers/r_spibsc/src/lld/r_spibsc_lld_rza2m.c **** * Description  : Write SMRDR0 register (8bit access)
1084:../generate/drivers/r_spibsc/src/lld/r_spibsc_lld_rza2m.c **** * Arguments    : Write Data to SMWDR0 (8bit)
1085:../generate/drivers/r_spibsc/src/lld/r_spibsc_lld_rza2m.c **** * Return Value : none
1086:../generate/drivers/r_spibsc/src/lld/r_spibsc_lld_rza2m.c **** *******************************************************************************/
1087:../generate/drivers/r_spibsc/src/lld/r_spibsc_lld_rza2m.c **** static void r_spibsc_manual_write_data0_8(uint8_t write_data)
1088:../generate/drivers/r_spibsc/src/lld/r_spibsc_lld_rza2m.c **** {
 1485              		.loc 1 1088 0
 1486              		.cfi_startproc
 1487              		@ args = 0, pretend = 0, frame = 0
 1488              		@ frame_needed = 0, uses_anonymous_args = 0
 1489              	.LVL166:
 1490 0000 10402DE9 		push	{r4, lr}
 1491              		.cfi_def_cfa_offset 8
 1492              		.cfi_offset 4, -8
 1493              		.cfi_offset 14, -4
1089:../generate/drivers/r_spibsc/src/lld/r_spibsc_lld_rza2m.c ****     /* Write SMRDR0 register (8bit access) */
1090:../generate/drivers/r_spibsc/src/lld/r_spibsc_lld_rza2m.c ****     spibsc_io_reg_write_8(&SPIBSC.SMWDR0.BYTE.LL, write_data, SPIBSC_SMWDR0_WDATA0_SHIFT, (uint8_t)
 1494              		.loc 1 1090 0
 1495 0004 FF30A0E3 		mov	r3, #255
 1496 0008 0020A0E3 		mov	r2, #0
 1497 000c 0010A0E1 		mov	r1, r0
 1498 0010 4000A0E3 		mov	r0, #64
 1499              	.LVL167:
 1500 0014 800F41E3 		movt	r0, 8064
 1501 0018 FEFFFFEB 		bl	spibsc_io_reg_write_8
 1502              	.LVL168:
1091:../generate/drivers/r_spibsc/src/lld/r_spibsc_lld_rza2m.c **** }
 1503              		.loc 1 1091 0
 1504 001c 1080BDE8 		pop	{r4, pc}
 1505              		.cfi_endproc
 1506              	.LFE25:
 1508              		.section	.text.r_spibsc_manual_write_data0_32,"ax",%progbits
 1509              		.align	2
 1510              		.syntax unified
 1511              		.arm
 1512              		.fpu neon
 1514              	r_spibsc_manual_write_data0_32:
 1515              	.LFB27:
1092:../generate/drivers/r_spibsc/src/lld/r_spibsc_lld_rza2m.c **** /*******************************************************************************
1093:../generate/drivers/r_spibsc/src/lld/r_spibsc_lld_rza2m.c **** End of function r_spibsc_manual_write_data0_8
1094:../generate/drivers/r_spibsc/src/lld/r_spibsc_lld_rza2m.c **** *******************************************************************************/
1095:../generate/drivers/r_spibsc/src/lld/r_spibsc_lld_rza2m.c **** 
1096:../generate/drivers/r_spibsc/src/lld/r_spibsc_lld_rza2m.c **** 
1097:../generate/drivers/r_spibsc/src/lld/r_spibsc_lld_rza2m.c **** /*******************************************************************************
1098:../generate/drivers/r_spibsc/src/lld/r_spibsc_lld_rza2m.c **** * Function Name: r_spibsc_manual_write_data0_16
1099:../generate/drivers/r_spibsc/src/lld/r_spibsc_lld_rza2m.c **** * Description  : Write SMRDR0 register (16bit access)
1100:../generate/drivers/r_spibsc/src/lld/r_spibsc_lld_rza2m.c **** * Arguments    : Write Data to SMWDR0 (16bit)
1101:../generate/drivers/r_spibsc/src/lld/r_spibsc_lld_rza2m.c **** * Return Value : none
1102:../generate/drivers/r_spibsc/src/lld/r_spibsc_lld_rza2m.c **** *******************************************************************************/
1103:../generate/drivers/r_spibsc/src/lld/r_spibsc_lld_rza2m.c **** static void r_spibsc_manual_write_data0_16(uint16_t write_data)
1104:../generate/drivers/r_spibsc/src/lld/r_spibsc_lld_rza2m.c **** {
1105:../generate/drivers/r_spibsc/src/lld/r_spibsc_lld_rza2m.c ****     /* Write SMRDR0 register (16bit access) */
1106:../generate/drivers/r_spibsc/src/lld/r_spibsc_lld_rza2m.c ****     spibsc_io_reg_write_16(&SPIBSC.SMWDR0.WORD.L, write_data, SPIBSC_SMWDR0_WDATA0_SHIFT, (uint16_t
1107:../generate/drivers/r_spibsc/src/lld/r_spibsc_lld_rza2m.c **** }
1108:../generate/drivers/r_spibsc/src/lld/r_spibsc_lld_rza2m.c **** /*******************************************************************************
1109:../generate/drivers/r_spibsc/src/lld/r_spibsc_lld_rza2m.c **** End of function r_spibsc_manual_write_data0_16
1110:../generate/drivers/r_spibsc/src/lld/r_spibsc_lld_rza2m.c **** *******************************************************************************/
1111:../generate/drivers/r_spibsc/src/lld/r_spibsc_lld_rza2m.c **** 
1112:../generate/drivers/r_spibsc/src/lld/r_spibsc_lld_rza2m.c **** 
1113:../generate/drivers/r_spibsc/src/lld/r_spibsc_lld_rza2m.c **** /*******************************************************************************
1114:../generate/drivers/r_spibsc/src/lld/r_spibsc_lld_rza2m.c **** * Function Name: r_spibsc_manual_write_data0_32
1115:../generate/drivers/r_spibsc/src/lld/r_spibsc_lld_rza2m.c **** * Description  : Write SMRDR0 register (32bit access)
1116:../generate/drivers/r_spibsc/src/lld/r_spibsc_lld_rza2m.c **** * Arguments    : Write Data to SMWDR0 (32bit)
1117:../generate/drivers/r_spibsc/src/lld/r_spibsc_lld_rza2m.c **** * Return Value : none
1118:../generate/drivers/r_spibsc/src/lld/r_spibsc_lld_rza2m.c **** *******************************************************************************/
1119:../generate/drivers/r_spibsc/src/lld/r_spibsc_lld_rza2m.c **** static void r_spibsc_manual_write_data0_32(uint32_t write_data)
1120:../generate/drivers/r_spibsc/src/lld/r_spibsc_lld_rza2m.c **** {
 1516              		.loc 1 1120 0
 1517              		.cfi_startproc
 1518              		@ args = 0, pretend = 0, frame = 0
 1519              		@ frame_needed = 0, uses_anonymous_args = 0
 1520              	.LVL169:
 1521 0000 10402DE9 		push	{r4, lr}
 1522              		.cfi_def_cfa_offset 8
 1523              		.cfi_offset 4, -8
 1524              		.cfi_offset 14, -4
1121:../generate/drivers/r_spibsc/src/lld/r_spibsc_lld_rza2m.c ****     /* Write SMRDR0 register (32bit access) */
1122:../generate/drivers/r_spibsc/src/lld/r_spibsc_lld_rza2m.c ****     spibsc_io_reg_write_32(&SPIBSC.SMWDR0.LONG, write_data, SPIBSC_SMWDR0_WDATA0_SHIFT, SPIBSC_SMWD
 1525              		.loc 1 1122 0
 1526 0004 0030E0E3 		mvn	r3, #0
 1527 0008 0020A0E3 		mov	r2, #0
 1528 000c 0010A0E1 		mov	r1, r0
 1529 0010 4000A0E3 		mov	r0, #64
 1530              	.LVL170:
 1531 0014 800F41E3 		movt	r0, 8064
 1532 0018 FEFFFFEB 		bl	spibsc_io_reg_write_32
 1533              	.LVL171:
1123:../generate/drivers/r_spibsc/src/lld/r_spibsc_lld_rza2m.c **** }
 1534              		.loc 1 1123 0
 1535 001c 1080BDE8 		pop	{r4, pc}
 1536              		.cfi_endproc
 1537              	.LFE27:
 1539              		.section	.text.r_spibsc_xip_set_command,"ax",%progbits
 1540              		.align	2
 1541              		.syntax unified
 1542              		.arm
 1543              		.fpu neon
 1545              	r_spibsc_xip_set_command:
 1546              	.LFB31:
1124:../generate/drivers/r_spibsc/src/lld/r_spibsc_lld_rza2m.c **** /*******************************************************************************
1125:../generate/drivers/r_spibsc/src/lld/r_spibsc_lld_rza2m.c **** End of function r_spibsc_manual_write_data0_32
1126:../generate/drivers/r_spibsc/src/lld/r_spibsc_lld_rza2m.c **** *******************************************************************************/
1127:../generate/drivers/r_spibsc/src/lld/r_spibsc_lld_rza2m.c **** 
1128:../generate/drivers/r_spibsc/src/lld/r_spibsc_lld_rza2m.c **** 
1129:../generate/drivers/r_spibsc/src/lld/r_spibsc_lld_rza2m.c **** /*******************************************************************************
1130:../generate/drivers/r_spibsc/src/lld/r_spibsc_lld_rza2m.c **** * Function Name: r_spibsc_manual_write_data1_8
1131:../generate/drivers/r_spibsc/src/lld/r_spibsc_lld_rza2m.c **** * Description  : Write SMRDR1 register (8bit access)
1132:../generate/drivers/r_spibsc/src/lld/r_spibsc_lld_rza2m.c **** * Arguments    : Write Data to SMWDR1 (8bit)
1133:../generate/drivers/r_spibsc/src/lld/r_spibsc_lld_rza2m.c **** * Return Value : none
1134:../generate/drivers/r_spibsc/src/lld/r_spibsc_lld_rza2m.c **** *******************************************************************************/
1135:../generate/drivers/r_spibsc/src/lld/r_spibsc_lld_rza2m.c **** static void r_spibsc_manual_write_data1_8(uint8_t write_data)
1136:../generate/drivers/r_spibsc/src/lld/r_spibsc_lld_rza2m.c **** {
1137:../generate/drivers/r_spibsc/src/lld/r_spibsc_lld_rza2m.c ****     /* Write SMRDR1 register (8bit access) */
1138:../generate/drivers/r_spibsc/src/lld/r_spibsc_lld_rza2m.c ****     spibsc_io_reg_write_8(&SPIBSC.SMWDR1.BYTE.LL, write_data, SPIBSC_SMWDR1_WDATA1_SHIFT, (uint8_t)
1139:../generate/drivers/r_spibsc/src/lld/r_spibsc_lld_rza2m.c **** }
1140:../generate/drivers/r_spibsc/src/lld/r_spibsc_lld_rza2m.c **** /*******************************************************************************
1141:../generate/drivers/r_spibsc/src/lld/r_spibsc_lld_rza2m.c **** End of function r_spibsc_manual_write_data1_8
1142:../generate/drivers/r_spibsc/src/lld/r_spibsc_lld_rza2m.c **** *******************************************************************************/
1143:../generate/drivers/r_spibsc/src/lld/r_spibsc_lld_rza2m.c **** 
1144:../generate/drivers/r_spibsc/src/lld/r_spibsc_lld_rza2m.c **** /*******************************************************************************
1145:../generate/drivers/r_spibsc/src/lld/r_spibsc_lld_rza2m.c **** * Function Name: r_spibsc_manual_write_data1_16
1146:../generate/drivers/r_spibsc/src/lld/r_spibsc_lld_rza2m.c **** * Description  : Write SMRDR1 register (16bit access)
1147:../generate/drivers/r_spibsc/src/lld/r_spibsc_lld_rza2m.c **** * Arguments    : Write Data to SMWDR1 (16bit)
1148:../generate/drivers/r_spibsc/src/lld/r_spibsc_lld_rza2m.c **** * Return Value : none
1149:../generate/drivers/r_spibsc/src/lld/r_spibsc_lld_rza2m.c **** *******************************************************************************/
1150:../generate/drivers/r_spibsc/src/lld/r_spibsc_lld_rza2m.c **** static void r_spibsc_manual_write_data1_16(uint16_t write_data)
1151:../generate/drivers/r_spibsc/src/lld/r_spibsc_lld_rza2m.c **** {
1152:../generate/drivers/r_spibsc/src/lld/r_spibsc_lld_rza2m.c **** 
1153:../generate/drivers/r_spibsc/src/lld/r_spibsc_lld_rza2m.c ****     /* Write SMRDR1 register (16bit access) */
1154:../generate/drivers/r_spibsc/src/lld/r_spibsc_lld_rza2m.c ****     spibsc_io_reg_write_16(&SPIBSC.SMWDR1.WORD.L, write_data, SPIBSC_SMWDR1_WDATA1_SHIFT, (uint16_t
1155:../generate/drivers/r_spibsc/src/lld/r_spibsc_lld_rza2m.c **** }
1156:../generate/drivers/r_spibsc/src/lld/r_spibsc_lld_rza2m.c **** /*******************************************************************************
1157:../generate/drivers/r_spibsc/src/lld/r_spibsc_lld_rza2m.c **** End of function r_spibsc_manual_write_data1_16
1158:../generate/drivers/r_spibsc/src/lld/r_spibsc_lld_rza2m.c **** *******************************************************************************/
1159:../generate/drivers/r_spibsc/src/lld/r_spibsc_lld_rza2m.c **** 
1160:../generate/drivers/r_spibsc/src/lld/r_spibsc_lld_rza2m.c **** /*******************************************************************************
1161:../generate/drivers/r_spibsc/src/lld/r_spibsc_lld_rza2m.c **** * Function Name: r_spibsc_manual_write_data1_32
1162:../generate/drivers/r_spibsc/src/lld/r_spibsc_lld_rza2m.c **** * Description  : Write SMRDR1 register (32bit access)
1163:../generate/drivers/r_spibsc/src/lld/r_spibsc_lld_rza2m.c **** * Arguments    : Write Data to SMWDR1 (32bit)
1164:../generate/drivers/r_spibsc/src/lld/r_spibsc_lld_rza2m.c **** * Return Value : none
1165:../generate/drivers/r_spibsc/src/lld/r_spibsc_lld_rza2m.c **** *******************************************************************************/
1166:../generate/drivers/r_spibsc/src/lld/r_spibsc_lld_rza2m.c **** static void r_spibsc_manual_write_data1_32(uint32_t write_data)
1167:../generate/drivers/r_spibsc/src/lld/r_spibsc_lld_rza2m.c **** {
1168:../generate/drivers/r_spibsc/src/lld/r_spibsc_lld_rza2m.c ****     /* Write SMRDR1 register (32bit access) */
1169:../generate/drivers/r_spibsc/src/lld/r_spibsc_lld_rza2m.c ****     spibsc_io_reg_write_32(&SPIBSC.SMWDR1.LONG, write_data, SPIBSC_SMWDR1_WDATA1_SHIFT, SPIBSC_SMWD
1170:../generate/drivers/r_spibsc/src/lld/r_spibsc_lld_rza2m.c **** }
1171:../generate/drivers/r_spibsc/src/lld/r_spibsc_lld_rza2m.c **** /*******************************************************************************
1172:../generate/drivers/r_spibsc/src/lld/r_spibsc_lld_rza2m.c **** End of function r_spibsc_manual_write_data1_32
1173:../generate/drivers/r_spibsc/src/lld/r_spibsc_lld_rza2m.c **** *******************************************************************************/
1174:../generate/drivers/r_spibsc/src/lld/r_spibsc_lld_rza2m.c **** 
1175:../generate/drivers/r_spibsc/src/lld/r_spibsc_lld_rza2m.c **** /*******************************************************************************
1176:../generate/drivers/r_spibsc/src/lld/r_spibsc_lld_rza2m.c **** * Function Name: r_spibsc_xip_set_command
1177:../generate/drivers/r_spibsc/src/lld/r_spibsc_lld_rza2m.c **** * Description  : Command Setting (External address space read mode (XIP) )
1178:../generate/drivers/r_spibsc/src/lld/r_spibsc_lld_rza2m.c **** * Arguments    : uint8_t cmd            : Command
1179:../generate/drivers/r_spibsc/src/lld/r_spibsc_lld_rza2m.c **** *              : uint8_t width          : Command bus width
1180:../generate/drivers/r_spibsc/src/lld/r_spibsc_lld_rza2m.c **** *              :                        :   b'00 : 1bit
1181:../generate/drivers/r_spibsc/src/lld/r_spibsc_lld_rza2m.c **** *              :                        :   b'01 : 2bit
1182:../generate/drivers/r_spibsc/src/lld/r_spibsc_lld_rza2m.c **** *              :                        :   b'10 : 4bit
1183:../generate/drivers/r_spibsc/src/lld/r_spibsc_lld_rza2m.c **** *              : uint8_t output_enable  : Command output enable
1184:../generate/drivers/r_spibsc/src/lld/r_spibsc_lld_rza2m.c **** *              :                        :      0 : Command output disabled
1185:../generate/drivers/r_spibsc/src/lld/r_spibsc_lld_rza2m.c **** *              :                        :      1 : Command output enabled
1186:../generate/drivers/r_spibsc/src/lld/r_spibsc_lld_rza2m.c **** * Return Value : none
1187:../generate/drivers/r_spibsc/src/lld/r_spibsc_lld_rza2m.c **** *******************************************************************************/
1188:../generate/drivers/r_spibsc/src/lld/r_spibsc_lld_rza2m.c **** static void r_spibsc_xip_set_command(uint8_t cmd, uint8_t width, uint8_t output_enable)
1189:../generate/drivers/r_spibsc/src/lld/r_spibsc_lld_rza2m.c **** {
 1547              		.loc 1 1189 0
 1548              		.cfi_startproc
 1549              		@ args = 0, pretend = 0, frame = 0
 1550              		@ frame_needed = 0, uses_anonymous_args = 0
 1551              	.LVL172:
 1552 0000 70402DE9 		push	{r4, r5, r6, lr}
 1553              		.cfi_def_cfa_offset 16
 1554              		.cfi_offset 4, -16
 1555              		.cfi_offset 5, -12
 1556              		.cfi_offset 6, -8
 1557              		.cfi_offset 14, -4
 1558 0004 0150A0E1 		mov	r5, r1
 1559 0008 0240A0E1 		mov	r4, r2
1190:../generate/drivers/r_spibsc/src/lld/r_spibsc_lld_rza2m.c **** 
1191:../generate/drivers/r_spibsc/src/lld/r_spibsc_lld_rza2m.c ****     /* DRCMR.CMD[7:0] = cmd */
1192:../generate/drivers/r_spibsc/src/lld/r_spibsc_lld_rza2m.c ****     spibsc_io_reg_write_32(&SPIBSC.DRCMR.LONG, cmd,         SPIBSC_DRCMR_CMD_SHIFT, SPIBSC_DRCMR_CM
 1560              		.loc 1 1192 0
 1561 000c FF38A0E3 		mov	r3, #16711680
 1562 0010 1020A0E3 		mov	r2, #16
 1563              	.LVL173:
 1564 0014 0010A0E1 		mov	r1, r0
 1565              	.LVL174:
 1566 0018 0200A0E1 		mov	r0, r2
 1567              	.LVL175:
 1568 001c 800F41E3 		movt	r0, 8064
 1569 0020 FEFFFFEB 		bl	spibsc_io_reg_write_32
 1570              	.LVL176:
1193:../generate/drivers/r_spibsc/src/lld/r_spibsc_lld_rza2m.c **** 
1194:../generate/drivers/r_spibsc/src/lld/r_spibsc_lld_rza2m.c ****     /* DRENR.CDB[1:0] = width */
1195:../generate/drivers/r_spibsc/src/lld/r_spibsc_lld_rza2m.c ****     spibsc_io_reg_write_32(&SPIBSC.DRENR.LONG, width & 0x3, SPIBSC_DRENR_CDB_SHIFT, SPIBSC_DRENR_CD
 1571              		.loc 1 1195 0
 1572 0024 0331A0E3 		mov	r3, #-1073741824
 1573 0028 1E20A0E3 		mov	r2, #30
 1574 002c 031005E2 		and	r1, r5, #3
 1575 0030 1C00A0E3 		mov	r0, #28
 1576 0034 800F41E3 		movt	r0, 8064
 1577 0038 FEFFFFEB 		bl	spibsc_io_reg_write_32
 1578              	.LVL177:
1196:../generate/drivers/r_spibsc/src/lld/r_spibsc_lld_rza2m.c **** 
1197:../generate/drivers/r_spibsc/src/lld/r_spibsc_lld_rza2m.c ****     if( SPIBSC_OUTPUT_ENABLE == output_enable)
 1579              		.loc 1 1197 0
 1580 003c 010054E3 		cmp	r4, #1
 1581 0040 0600000A 		beq	.L100
1198:../generate/drivers/r_spibsc/src/lld/r_spibsc_lld_rza2m.c ****     {
1199:../generate/drivers/r_spibsc/src/lld/r_spibsc_lld_rza2m.c ****         /* DRENR.CDE = 1 : Command output enabled */
1200:../generate/drivers/r_spibsc/src/lld/r_spibsc_lld_rza2m.c ****         spibsc_io_reg_write_32(&SPIBSC.DRENR.LONG, SPIBSC_OUTPUT_ENABLE, SPIBSC_DRENR_CDE_SHIFT, SP
1201:../generate/drivers/r_spibsc/src/lld/r_spibsc_lld_rza2m.c ****     }
1202:../generate/drivers/r_spibsc/src/lld/r_spibsc_lld_rza2m.c ****     else
1203:../generate/drivers/r_spibsc/src/lld/r_spibsc_lld_rza2m.c ****     {
1204:../generate/drivers/r_spibsc/src/lld/r_spibsc_lld_rza2m.c ****         /* DRENR.CDE = 0 : Command output disabled */
1205:../generate/drivers/r_spibsc/src/lld/r_spibsc_lld_rza2m.c ****         spibsc_io_reg_write_32(&SPIBSC.DRENR.LONG, SPIBSC_OUTPUT_DISABLE, SPIBSC_DRENR_CDE_SHIFT, S
 1582              		.loc 1 1205 0
 1583 0044 0139A0E3 		mov	r3, #16384
 1584 0048 0E20A0E3 		mov	r2, #14
 1585 004c 0010A0E3 		mov	r1, #0
 1586 0050 1C00A0E3 		mov	r0, #28
 1587 0054 800F41E3 		movt	r0, 8064
 1588 0058 FEFFFFEB 		bl	spibsc_io_reg_write_32
 1589              	.LVL178:
1206:../generate/drivers/r_spibsc/src/lld/r_spibsc_lld_rza2m.c ****     }
1207:../generate/drivers/r_spibsc/src/lld/r_spibsc_lld_rza2m.c **** 
1208:../generate/drivers/r_spibsc/src/lld/r_spibsc_lld_rza2m.c **** }
 1590              		.loc 1 1208 0
 1591 005c 7080BDE8 		pop	{r4, r5, r6, pc}
 1592              	.L100:
1200:../generate/drivers/r_spibsc/src/lld/r_spibsc_lld_rza2m.c ****     }
 1593              		.loc 1 1200 0
 1594 0060 0139A0E3 		mov	r3, #16384
 1595 0064 0E20A0E3 		mov	r2, #14
 1596 0068 0110A0E3 		mov	r1, #1
 1597 006c 1C00A0E3 		mov	r0, #28
 1598 0070 800F41E3 		movt	r0, 8064
 1599 0074 FEFFFFEB 		bl	spibsc_io_reg_write_32
 1600              	.LVL179:
 1601 0078 7080BDE8 		pop	{r4, r5, r6, pc}
 1602              		.cfi_endproc
 1603              	.LFE31:
 1605              		.section	.text.r_spibsc_xip_set_optional_command,"ax",%progbits
 1606              		.align	2
 1607              		.syntax unified
 1608              		.arm
 1609              		.fpu neon
 1611              	r_spibsc_xip_set_optional_command:
 1612              	.LFB32:
1209:../generate/drivers/r_spibsc/src/lld/r_spibsc_lld_rza2m.c **** /*******************************************************************************
1210:../generate/drivers/r_spibsc/src/lld/r_spibsc_lld_rza2m.c **** End of function r_spibsc_xip_set_command
1211:../generate/drivers/r_spibsc/src/lld/r_spibsc_lld_rza2m.c **** *******************************************************************************/
1212:../generate/drivers/r_spibsc/src/lld/r_spibsc_lld_rza2m.c **** 
1213:../generate/drivers/r_spibsc/src/lld/r_spibsc_lld_rza2m.c **** 
1214:../generate/drivers/r_spibsc/src/lld/r_spibsc_lld_rza2m.c **** /*******************************************************************************
1215:../generate/drivers/r_spibsc/src/lld/r_spibsc_lld_rza2m.c **** * Function Name: r_spibsc_xip_set_optional_command
1216:../generate/drivers/r_spibsc/src/lld/r_spibsc_lld_rza2m.c **** * Description  : Optional Command Setting (External address space read mode (XIP) )
1217:../generate/drivers/r_spibsc/src/lld/r_spibsc_lld_rza2m.c **** * Arguments    : uint8_t ocmd           : Optional command code
1218:../generate/drivers/r_spibsc/src/lld/r_spibsc_lld_rza2m.c **** *              : uint8_t width          : Optional command bus width
1219:../generate/drivers/r_spibsc/src/lld/r_spibsc_lld_rza2m.c **** *              :                        :   b'00 : 1bit
1220:../generate/drivers/r_spibsc/src/lld/r_spibsc_lld_rza2m.c **** *              :                        :   b'10 : 4bit
1221:../generate/drivers/r_spibsc/src/lld/r_spibsc_lld_rza2m.c **** *              : uint8_t output_enable  : Optional Command output enable
1222:../generate/drivers/r_spibsc/src/lld/r_spibsc_lld_rza2m.c **** *              :                        :      0 : Optional command output disabled
1223:../generate/drivers/r_spibsc/src/lld/r_spibsc_lld_rza2m.c **** *              :                        :      1 : Optional command output enabled
1224:../generate/drivers/r_spibsc/src/lld/r_spibsc_lld_rza2m.c **** * Return Value : none
1225:../generate/drivers/r_spibsc/src/lld/r_spibsc_lld_rza2m.c **** *******************************************************************************/
1226:../generate/drivers/r_spibsc/src/lld/r_spibsc_lld_rza2m.c **** static void r_spibsc_xip_set_optional_command(uint8_t ocmd, uint8_t width, uint8_t output_enable)
1227:../generate/drivers/r_spibsc/src/lld/r_spibsc_lld_rza2m.c **** {
 1613              		.loc 1 1227 0
 1614              		.cfi_startproc
 1615              		@ args = 0, pretend = 0, frame = 0
 1616              		@ frame_needed = 0, uses_anonymous_args = 0
 1617              	.LVL180:
 1618 0000 70402DE9 		push	{r4, r5, r6, lr}
 1619              		.cfi_def_cfa_offset 16
 1620              		.cfi_offset 4, -16
 1621              		.cfi_offset 5, -12
 1622              		.cfi_offset 6, -8
 1623              		.cfi_offset 14, -4
 1624 0004 0150A0E1 		mov	r5, r1
 1625 0008 0240A0E1 		mov	r4, r2
1228:../generate/drivers/r_spibsc/src/lld/r_spibsc_lld_rza2m.c ****     /* DRCMR.OCMD[7:0] = ocmd */
1229:../generate/drivers/r_spibsc/src/lld/r_spibsc_lld_rza2m.c ****     spibsc_io_reg_write_32(&SPIBSC.DRCMR.LONG, ocmd, SPIBSC_DRCMR_OCMD_SHIFT, SPIBSC_DRCMR_OCMD);
 1626              		.loc 1 1229 0
 1627 000c FF30A0E3 		mov	r3, #255
 1628 0010 0020A0E3 		mov	r2, #0
 1629              	.LVL181:
 1630 0014 0010A0E1 		mov	r1, r0
 1631              	.LVL182:
 1632 0018 1000A0E3 		mov	r0, #16
 1633              	.LVL183:
 1634 001c 800F41E3 		movt	r0, 8064
 1635 0020 FEFFFFEB 		bl	spibsc_io_reg_write_32
 1636              	.LVL184:
1230:../generate/drivers/r_spibsc/src/lld/r_spibsc_lld_rza2m.c **** 
1231:../generate/drivers/r_spibsc/src/lld/r_spibsc_lld_rza2m.c ****     /* DRENR.OCDB[1:0] = width */
1232:../generate/drivers/r_spibsc/src/lld/r_spibsc_lld_rza2m.c ****     spibsc_io_reg_write_32(&SPIBSC.DRENR.LONG, width & 0x3 , SPIBSC_DRENR_OCDB_SHIFT, SPIBSC_DRENR_
 1637              		.loc 1 1232 0
 1638 0024 0332A0E3 		mov	r3, #805306368
 1639 0028 1C20A0E3 		mov	r2, #28
 1640 002c 031005E2 		and	r1, r5, #3
 1641 0030 0200A0E1 		mov	r0, r2
 1642 0034 800F41E3 		movt	r0, 8064
 1643 0038 FEFFFFEB 		bl	spibsc_io_reg_write_32
 1644              	.LVL185:
1233:../generate/drivers/r_spibsc/src/lld/r_spibsc_lld_rza2m.c **** 
1234:../generate/drivers/r_spibsc/src/lld/r_spibsc_lld_rza2m.c **** 
1235:../generate/drivers/r_spibsc/src/lld/r_spibsc_lld_rza2m.c ****     if( SPIBSC_OUTPUT_ENABLE == output_enable)
 1645              		.loc 1 1235 0
 1646 003c 010054E3 		cmp	r4, #1
 1647 0040 0600000A 		beq	.L105
1236:../generate/drivers/r_spibsc/src/lld/r_spibsc_lld_rza2m.c ****     {
1237:../generate/drivers/r_spibsc/src/lld/r_spibsc_lld_rza2m.c ****         /* DRENR.OCDE = 1 : Optional command output enabled */
1238:../generate/drivers/r_spibsc/src/lld/r_spibsc_lld_rza2m.c ****         spibsc_io_reg_write_32(&SPIBSC.DRENR.LONG, SPIBSC_OUTPUT_ENABLE, SPIBSC_DRENR_OCDE_SHIFT, S
1239:../generate/drivers/r_spibsc/src/lld/r_spibsc_lld_rza2m.c ****     }
1240:../generate/drivers/r_spibsc/src/lld/r_spibsc_lld_rza2m.c ****     else
1241:../generate/drivers/r_spibsc/src/lld/r_spibsc_lld_rza2m.c ****     {
1242:../generate/drivers/r_spibsc/src/lld/r_spibsc_lld_rza2m.c ****         /* DRENR.OCDE = 0 : Optional command output disabled */
1243:../generate/drivers/r_spibsc/src/lld/r_spibsc_lld_rza2m.c ****         spibsc_io_reg_write_32(&SPIBSC.DRENR.LONG, SPIBSC_OUTPUT_DISABLE, SPIBSC_DRENR_OCDE_SHIFT, 
 1648              		.loc 1 1243 0
 1649 0044 013AA0E3 		mov	r3, #4096
 1650 0048 0C20A0E3 		mov	r2, #12
 1651 004c 0010A0E3 		mov	r1, #0
 1652 0050 1C00A0E3 		mov	r0, #28
 1653 0054 800F41E3 		movt	r0, 8064
 1654 0058 FEFFFFEB 		bl	spibsc_io_reg_write_32
 1655              	.LVL186:
1244:../generate/drivers/r_spibsc/src/lld/r_spibsc_lld_rza2m.c ****     }
1245:../generate/drivers/r_spibsc/src/lld/r_spibsc_lld_rza2m.c **** 
1246:../generate/drivers/r_spibsc/src/lld/r_spibsc_lld_rza2m.c **** }
 1656              		.loc 1 1246 0
 1657 005c 7080BDE8 		pop	{r4, r5, r6, pc}
 1658              	.L105:
1238:../generate/drivers/r_spibsc/src/lld/r_spibsc_lld_rza2m.c ****     }
 1659              		.loc 1 1238 0
 1660 0060 013AA0E3 		mov	r3, #4096
 1661 0064 0C20A0E3 		mov	r2, #12
 1662 0068 0110A0E3 		mov	r1, #1
 1663 006c 1C00A0E3 		mov	r0, #28
 1664 0070 800F41E3 		movt	r0, 8064
 1665 0074 FEFFFFEB 		bl	spibsc_io_reg_write_32
 1666              	.LVL187:
 1667 0078 7080BDE8 		pop	{r4, r5, r6, pc}
 1668              		.cfi_endproc
 1669              	.LFE32:
 1671              		.section	.text.r_spibsc_xip_set_address,"ax",%progbits
 1672              		.align	2
 1673              		.syntax unified
 1674              		.arm
 1675              		.fpu neon
 1677              	r_spibsc_xip_set_address:
 1678              	.LFB33:
1247:../generate/drivers/r_spibsc/src/lld/r_spibsc_lld_rza2m.c **** /*******************************************************************************
1248:../generate/drivers/r_spibsc/src/lld/r_spibsc_lld_rza2m.c **** End of function r_spibsc_xip_set_optional_command
1249:../generate/drivers/r_spibsc/src/lld/r_spibsc_lld_rza2m.c **** *******************************************************************************/
1250:../generate/drivers/r_spibsc/src/lld/r_spibsc_lld_rza2m.c **** 
1251:../generate/drivers/r_spibsc/src/lld/r_spibsc_lld_rza2m.c **** 
1252:../generate/drivers/r_spibsc/src/lld/r_spibsc_lld_rza2m.c **** /*******************************************************************************
1253:../generate/drivers/r_spibsc/src/lld/r_spibsc_lld_rza2m.c **** * Function Name: r_spibsc_xip_set_address
1254:../generate/drivers/r_spibsc/src/lld/r_spibsc_lld_rza2m.c **** * Description  : Address Setting (External address space read mode (XIP) )
1255:../generate/drivers/r_spibsc/src/lld/r_spibsc_lld_rza2m.c **** *              : uint8_t width                  : Address bus width
1256:../generate/drivers/r_spibsc/src/lld/r_spibsc_lld_rza2m.c **** *              :                                :   b'00 : 1bit
1257:../generate/drivers/r_spibsc/src/lld/r_spibsc_lld_rza2m.c **** *              :                                :   b'01 : 2bit
1258:../generate/drivers/r_spibsc/src/lld/r_spibsc_lld_rza2m.c **** *              :                                :   b'10 : 4bit
1259:../generate/drivers/r_spibsc/src/lld/r_spibsc_lld_rza2m.c **** *              : uint8_t address_output_enable  : Address output enable
1260:../generate/drivers/r_spibsc/src/lld/r_spibsc_lld_rza2m.c **** *              :                                :   b'0000 : Address output disabled
1261:../generate/drivers/r_spibsc/src/lld/r_spibsc_lld_rza2m.c **** *              :                                :   b'0111 : Address[23:0] output enabled
1262:../generate/drivers/r_spibsc/src/lld/r_spibsc_lld_rza2m.c **** *              :                                :   b'1111 : Address[31:0] output enabled
1263:../generate/drivers/r_spibsc/src/lld/r_spibsc_lld_rza2m.c **** *              : uint8_t ddr_enable             : Address DDR Enable
1264:../generate/drivers/r_spibsc/src/lld/r_spibsc_lld_rza2m.c **** *              :                                :   0 : SDR
1265:../generate/drivers/r_spibsc/src/lld/r_spibsc_lld_rza2m.c **** *              :                                :   1 : DDR
1266:../generate/drivers/r_spibsc/src/lld/r_spibsc_lld_rza2m.c **** * Return Value : none
1267:../generate/drivers/r_spibsc/src/lld/r_spibsc_lld_rza2m.c **** *******************************************************************************/
1268:../generate/drivers/r_spibsc/src/lld/r_spibsc_lld_rza2m.c **** static void r_spibsc_xip_set_address(uint8_t width, uint8_t address_output_enable, uint8_t ddr_enab
1269:../generate/drivers/r_spibsc/src/lld/r_spibsc_lld_rza2m.c **** {
 1679              		.loc 1 1269 0
 1680              		.cfi_startproc
 1681              		@ args = 0, pretend = 0, frame = 0
 1682              		@ frame_needed = 0, uses_anonymous_args = 0
 1683              	.LVL188:
 1684 0000 70402DE9 		push	{r4, r5, r6, lr}
 1685              		.cfi_def_cfa_offset 16
 1686              		.cfi_offset 4, -16
 1687              		.cfi_offset 5, -12
 1688              		.cfi_offset 6, -8
 1689              		.cfi_offset 14, -4
 1690 0004 0140A0E1 		mov	r4, r1
 1691 0008 0250A0E1 		mov	r5, r2
1270:../generate/drivers/r_spibsc/src/lld/r_spibsc_lld_rza2m.c **** 
1271:../generate/drivers/r_spibsc/src/lld/r_spibsc_lld_rza2m.c ****     /* DRENR.ADB[1:0] = width */
1272:../generate/drivers/r_spibsc/src/lld/r_spibsc_lld_rza2m.c ****     spibsc_io_reg_write_32(&SPIBSC.DRENR.LONG, width & 0x3, SPIBSC_DRENR_ADB_SHIFT, SPIBSC_DRENR_AD
 1692              		.loc 1 1272 0
 1693 000c 0334A0E3 		mov	r3, #50331648
 1694 0010 1820A0E3 		mov	r2, #24
 1695              	.LVL189:
 1696 0014 031000E2 		and	r1, r0, #3
 1697              	.LVL190:
 1698 0018 1C00A0E3 		mov	r0, #28
 1699              	.LVL191:
 1700 001c 800F41E3 		movt	r0, 8064
 1701 0020 FEFFFFEB 		bl	spibsc_io_reg_write_32
 1702              	.LVL192:
1273:../generate/drivers/r_spibsc/src/lld/r_spibsc_lld_rza2m.c **** 
1274:../generate/drivers/r_spibsc/src/lld/r_spibsc_lld_rza2m.c ****     if( SPIBSC_OUTPUT_ADDR_32 == address_output_enable )
 1703              		.loc 1 1274 0
 1704 0024 0F0054E3 		cmp	r4, #15
 1705 0028 0C00000A 		beq	.L113
1275:../generate/drivers/r_spibsc/src/lld/r_spibsc_lld_rza2m.c ****     {
1276:../generate/drivers/r_spibsc/src/lld/r_spibsc_lld_rza2m.c ****         /* DRENR.ADE[3:0] = b'1111 : Address[31:0] output enabled */
1277:../generate/drivers/r_spibsc/src/lld/r_spibsc_lld_rza2m.c ****         spibsc_io_reg_write_32(&SPIBSC.DRENR.LONG, SPIBSC_OUTPUT_ADDR_32, SPIBSC_DRENR_ADE_SHIFT, S
1278:../generate/drivers/r_spibsc/src/lld/r_spibsc_lld_rza2m.c ****     }
1279:../generate/drivers/r_spibsc/src/lld/r_spibsc_lld_rza2m.c ****     else if( SPIBSC_OUTPUT_ADDR_24 == address_output_enable)
 1706              		.loc 1 1279 0
 1707 002c 070054E3 		cmp	r4, #7
 1708 0030 1100000A 		beq	.L114
1280:../generate/drivers/r_spibsc/src/lld/r_spibsc_lld_rza2m.c ****     {
1281:../generate/drivers/r_spibsc/src/lld/r_spibsc_lld_rza2m.c ****         /* DRENR.ADE[3:0] = b'0111 :  Address[23:0] output enabled */
1282:../generate/drivers/r_spibsc/src/lld/r_spibsc_lld_rza2m.c ****         spibsc_io_reg_write_32(&SPIBSC.DRENR.LONG, SPIBSC_OUTPUT_ADDR_24, SPIBSC_DRENR_ADE_SHIFT, S
1283:../generate/drivers/r_spibsc/src/lld/r_spibsc_lld_rza2m.c ****     }
1284:../generate/drivers/r_spibsc/src/lld/r_spibsc_lld_rza2m.c ****     else if( 0x0 == address_output_enable)
 1709              		.loc 1 1284 0
 1710 0034 000054E3 		cmp	r4, #0
 1711 0038 1600000A 		beq	.L115
 1712              	.L108:
1285:../generate/drivers/r_spibsc/src/lld/r_spibsc_lld_rza2m.c ****     {
1286:../generate/drivers/r_spibsc/src/lld/r_spibsc_lld_rza2m.c ****         /* DRENR.ADE[3:0] = b'0000 : Address output disabled */
1287:../generate/drivers/r_spibsc/src/lld/r_spibsc_lld_rza2m.c ****         spibsc_io_reg_write_32(&SPIBSC.DRENR.LONG, 0, SPIBSC_DRENR_ADE_SHIFT, SPIBSC_DRENR_ADE);
1288:../generate/drivers/r_spibsc/src/lld/r_spibsc_lld_rza2m.c ****     }
1289:../generate/drivers/r_spibsc/src/lld/r_spibsc_lld_rza2m.c **** 
1290:../generate/drivers/r_spibsc/src/lld/r_spibsc_lld_rza2m.c ****     if( 1 == ddr_enable)
 1713              		.loc 1 1290 0
 1714 003c 010055E3 		cmp	r5, #1
 1715 0040 1B00000A 		beq	.L116
1291:../generate/drivers/r_spibsc/src/lld/r_spibsc_lld_rza2m.c ****     {
1292:../generate/drivers/r_spibsc/src/lld/r_spibsc_lld_rza2m.c ****         /* DRDRENR.ADDRE = 1 : ADDRESS is DDR transfer setting */
1293:../generate/drivers/r_spibsc/src/lld/r_spibsc_lld_rza2m.c ****         spibsc_io_reg_write_32(&SPIBSC.DRDRENR.LONG, SPIBSC_DDR_TRANSFER, SPIBSC_DRDRENR_ADDRE_SHIF
1294:../generate/drivers/r_spibsc/src/lld/r_spibsc_lld_rza2m.c ****     }
1295:../generate/drivers/r_spibsc/src/lld/r_spibsc_lld_rza2m.c ****     else
1296:../generate/drivers/r_spibsc/src/lld/r_spibsc_lld_rza2m.c ****     {
1297:../generate/drivers/r_spibsc/src/lld/r_spibsc_lld_rza2m.c ****        /* DRDRENR.ADDRE = 0 : ADDRESS is SDR transfer setting */
1298:../generate/drivers/r_spibsc/src/lld/r_spibsc_lld_rza2m.c ****         spibsc_io_reg_write_32(&SPIBSC.DRDRENR.LONG, SPIBSC_SDR_TRANSFER, SPIBSC_DRDRENR_ADDRE_SHIF
 1716              		.loc 1 1298 0
 1717 0044 013CA0E3 		mov	r3, #256
 1718 0048 0820A0E3 		mov	r2, #8
 1719 004c 0010A0E3 		mov	r1, #0
 1720 0050 5C00A0E3 		mov	r0, #92
 1721 0054 800F41E3 		movt	r0, 8064
 1722 0058 FEFFFFEB 		bl	spibsc_io_reg_write_32
 1723              	.LVL193:
1299:../generate/drivers/r_spibsc/src/lld/r_spibsc_lld_rza2m.c ****     }
1300:../generate/drivers/r_spibsc/src/lld/r_spibsc_lld_rza2m.c **** 
1301:../generate/drivers/r_spibsc/src/lld/r_spibsc_lld_rza2m.c **** }
 1724              		.loc 1 1301 0
 1725 005c 7080BDE8 		pop	{r4, r5, r6, pc}
 1726              	.L113:
1277:../generate/drivers/r_spibsc/src/lld/r_spibsc_lld_rza2m.c ****     }
 1727              		.loc 1 1277 0
 1728 0060 0F3CA0E3 		mov	r3, #3840
 1729 0064 0820A0E3 		mov	r2, #8
 1730 0068 0F10A0E3 		mov	r1, #15
 1731 006c 1C00A0E3 		mov	r0, #28
 1732 0070 800F41E3 		movt	r0, 8064
 1733 0074 FEFFFFEB 		bl	spibsc_io_reg_write_32
 1734              	.LVL194:
 1735 0078 EFFFFFEA 		b	.L108
 1736              	.L114:
1282:../generate/drivers/r_spibsc/src/lld/r_spibsc_lld_rza2m.c ****     }
 1737              		.loc 1 1282 0
 1738 007c 0F3CA0E3 		mov	r3, #3840
 1739 0080 0820A0E3 		mov	r2, #8
 1740 0084 0710A0E3 		mov	r1, #7
 1741 0088 1C00A0E3 		mov	r0, #28
 1742 008c 800F41E3 		movt	r0, 8064
 1743 0090 FEFFFFEB 		bl	spibsc_io_reg_write_32
 1744              	.LVL195:
 1745 0094 E8FFFFEA 		b	.L108
 1746              	.L115:
1287:../generate/drivers/r_spibsc/src/lld/r_spibsc_lld_rza2m.c ****     }
 1747              		.loc 1 1287 0
 1748 0098 0F3CA0E3 		mov	r3, #3840
 1749 009c 0820A0E3 		mov	r2, #8
 1750 00a0 0010A0E3 		mov	r1, #0
 1751 00a4 1C00A0E3 		mov	r0, #28
 1752 00a8 800F41E3 		movt	r0, 8064
 1753 00ac FEFFFFEB 		bl	spibsc_io_reg_write_32
 1754              	.LVL196:
 1755 00b0 E1FFFFEA 		b	.L108
 1756              	.L116:
1293:../generate/drivers/r_spibsc/src/lld/r_spibsc_lld_rza2m.c ****     }
 1757              		.loc 1 1293 0
 1758 00b4 013CA0E3 		mov	r3, #256
 1759 00b8 0820A0E3 		mov	r2, #8
 1760 00bc 0110A0E3 		mov	r1, #1
 1761 00c0 5C00A0E3 		mov	r0, #92
 1762 00c4 800F41E3 		movt	r0, 8064
 1763 00c8 FEFFFFEB 		bl	spibsc_io_reg_write_32
 1764              	.LVL197:
 1765 00cc 7080BDE8 		pop	{r4, r5, r6, pc}
 1766              		.cfi_endproc
 1767              	.LFE33:
 1769              		.section	.text.r_spibsc_xip_set_option_data,"ax",%progbits
 1770              		.align	2
 1771              		.syntax unified
 1772              		.arm
 1773              		.fpu neon
 1775              	r_spibsc_xip_set_option_data:
 1776              	.LFB34:
1302:../generate/drivers/r_spibsc/src/lld/r_spibsc_lld_rza2m.c **** /*******************************************************************************
1303:../generate/drivers/r_spibsc/src/lld/r_spibsc_lld_rza2m.c **** End of function r_spibsc_xip_set_address
1304:../generate/drivers/r_spibsc/src/lld/r_spibsc_lld_rza2m.c **** *******************************************************************************/
1305:../generate/drivers/r_spibsc/src/lld/r_spibsc_lld_rza2m.c **** 
1306:../generate/drivers/r_spibsc/src/lld/r_spibsc_lld_rza2m.c **** 
1307:../generate/drivers/r_spibsc/src/lld/r_spibsc_lld_rza2m.c **** /*******************************************************************************
1308:../generate/drivers/r_spibsc/src/lld/r_spibsc_lld_rza2m.c **** * Function Name: r_spibsc_xip_set_option_data
1309:../generate/drivers/r_spibsc/src/lld/r_spibsc_lld_rza2m.c **** * Description  : Option Data Setting (External address space read mode (XIP) )
1310:../generate/drivers/r_spibsc/src/lld/r_spibsc_lld_rza2m.c **** * Arguments    : uint8_t opd3           : Option Data 3
1311:../generate/drivers/r_spibsc/src/lld/r_spibsc_lld_rza2m.c **** *              : uint8_t opd2           : Option Data 2
1312:../generate/drivers/r_spibsc/src/lld/r_spibsc_lld_rza2m.c **** *              : uint8_t opd1           : Option Data 1
1313:../generate/drivers/r_spibsc/src/lld/r_spibsc_lld_rza2m.c **** *              : uint8_t opd0           : Option Data 0
1314:../generate/drivers/r_spibsc/src/lld/r_spibsc_lld_rza2m.c **** *              : uint8_t width          : Option Data bus width
1315:../generate/drivers/r_spibsc/src/lld/r_spibsc_lld_rza2m.c **** *              :                        :   b'00 : 1bit
1316:../generate/drivers/r_spibsc/src/lld/r_spibsc_lld_rza2m.c **** *              :                        :   b'10 : 4bit
1317:../generate/drivers/r_spibsc/src/lld/r_spibsc_lld_rza2m.c **** *              : uint8_t option_data_output_enable  : Option Data output enable
1318:../generate/drivers/r_spibsc/src/lld/r_spibsc_lld_rza2m.c **** *              :                        :              b'0000 : Option Data Output disabled
1319:../generate/drivers/r_spibsc/src/lld/r_spibsc_lld_rza2m.c **** *              :                        :              b'1000 : OPD3 output enabled
1320:../generate/drivers/r_spibsc/src/lld/r_spibsc_lld_rza2m.c **** *              :                        :              b'1100 : OPD3, OPD2 output enabled
1321:../generate/drivers/r_spibsc/src/lld/r_spibsc_lld_rza2m.c **** *              :                        :              b'1110 : OPD3, OPD2, OPD1 output enabled
1322:../generate/drivers/r_spibsc/src/lld/r_spibsc_lld_rza2m.c **** *              :                        :              b'1111 : OPD3, OPD2, OPD1, OPD0 output enabl
1323:../generate/drivers/r_spibsc/src/lld/r_spibsc_lld_rza2m.c **** *              : uint8_t ddr_enable     : Option Data DDR Enable
1324:../generate/drivers/r_spibsc/src/lld/r_spibsc_lld_rza2m.c **** *              :                        :   0 : SDR
1325:../generate/drivers/r_spibsc/src/lld/r_spibsc_lld_rza2m.c **** *              :                        :   1 : DDR
1326:../generate/drivers/r_spibsc/src/lld/r_spibsc_lld_rza2m.c **** * Return Value : none
1327:../generate/drivers/r_spibsc/src/lld/r_spibsc_lld_rza2m.c **** *******************************************************************************/
1328:../generate/drivers/r_spibsc/src/lld/r_spibsc_lld_rza2m.c **** static void r_spibsc_xip_set_option_data(uint8_t opd3, uint8_t opd2, uint8_t opd1, uint8_t opd0,
1329:../generate/drivers/r_spibsc/src/lld/r_spibsc_lld_rza2m.c ****                                   uint8_t width, uint8_t option_data_output_enable, uint8_t ddr_ena
1330:../generate/drivers/r_spibsc/src/lld/r_spibsc_lld_rza2m.c **** {
 1777              		.loc 1 1330 0
 1778              		.cfi_startproc
 1779              		@ args = 12, pretend = 0, frame = 0
 1780              		@ frame_needed = 0, uses_anonymous_args = 0
 1781              	.LVL198:
 1782 0000 F0412DE9 		push	{r4, r5, r6, r7, r8, lr}
 1783              		.cfi_def_cfa_offset 24
 1784              		.cfi_offset 4, -24
 1785              		.cfi_offset 5, -20
 1786              		.cfi_offset 6, -16
 1787              		.cfi_offset 7, -12
 1788              		.cfi_offset 8, -8
 1789              		.cfi_offset 14, -4
 1790 0004 0180A0E1 		mov	r8, r1
 1791 0008 0270A0E1 		mov	r7, r2
 1792 000c 0360A0E1 		mov	r6, r3
 1793 0010 1C50DDE5 		ldrb	r5, [sp, #28]	@ zero_extendqisi2
1331:../generate/drivers/r_spibsc/src/lld/r_spibsc_lld_rza2m.c **** 
1332:../generate/drivers/r_spibsc/src/lld/r_spibsc_lld_rza2m.c ****     /* DROPR.OPD3[7:0] = opd3 */
1333:../generate/drivers/r_spibsc/src/lld/r_spibsc_lld_rza2m.c ****     spibsc_io_reg_write_32(&SPIBSC.DROPR.LONG, opd3, SPIBSC_DROPR_OPD3_SHIFT, SPIBSC_DROPR_OPD3);  
 1794              		.loc 1 1333 0
 1795 0014 1840A0E3 		mov	r4, #24
 1796 0018 804F41E3 		movt	r4, 8064
 1797 001c FF34A0E3 		mov	r3, #-16777216
 1798              	.LVL199:
 1799 0020 1820A0E3 		mov	r2, #24
 1800              	.LVL200:
 1801 0024 0010A0E1 		mov	r1, r0
 1802              	.LVL201:
 1803 0028 0400A0E1 		mov	r0, r4
 1804              	.LVL202:
 1805 002c FEFFFFEB 		bl	spibsc_io_reg_write_32
 1806              	.LVL203:
1334:../generate/drivers/r_spibsc/src/lld/r_spibsc_lld_rza2m.c **** 
1335:../generate/drivers/r_spibsc/src/lld/r_spibsc_lld_rza2m.c ****     /* DROPR.OPD2[7:0] = opd2 */
1336:../generate/drivers/r_spibsc/src/lld/r_spibsc_lld_rza2m.c ****     spibsc_io_reg_write_32(&SPIBSC.DROPR.LONG, opd2, SPIBSC_DROPR_OPD2_SHIFT, SPIBSC_DROPR_OPD2);  
 1807              		.loc 1 1336 0
 1808 0030 FF38A0E3 		mov	r3, #16711680
 1809 0034 1020A0E3 		mov	r2, #16
 1810 0038 0810A0E1 		mov	r1, r8
 1811 003c 0400A0E1 		mov	r0, r4
 1812 0040 FEFFFFEB 		bl	spibsc_io_reg_write_32
 1813              	.LVL204:
1337:../generate/drivers/r_spibsc/src/lld/r_spibsc_lld_rza2m.c **** 
1338:../generate/drivers/r_spibsc/src/lld/r_spibsc_lld_rza2m.c ****     /* DROPR.OPD1[7:0] = opd1 */
1339:../generate/drivers/r_spibsc/src/lld/r_spibsc_lld_rza2m.c ****     spibsc_io_reg_write_32(&SPIBSC.DROPR.LONG, opd1, SPIBSC_DROPR_OPD1_SHIFT, SPIBSC_DROPR_OPD1);  
 1814              		.loc 1 1339 0
 1815 0044 FF3CA0E3 		mov	r3, #65280
 1816 0048 0820A0E3 		mov	r2, #8
 1817 004c 0710A0E1 		mov	r1, r7
 1818 0050 0400A0E1 		mov	r0, r4
 1819 0054 FEFFFFEB 		bl	spibsc_io_reg_write_32
 1820              	.LVL205:
1340:../generate/drivers/r_spibsc/src/lld/r_spibsc_lld_rza2m.c **** 
1341:../generate/drivers/r_spibsc/src/lld/r_spibsc_lld_rza2m.c ****     /* DROPR.OPD0[7:0] = opd0 */
1342:../generate/drivers/r_spibsc/src/lld/r_spibsc_lld_rza2m.c ****     spibsc_io_reg_write_32(&SPIBSC.DROPR.LONG, opd0, SPIBSC_DROPR_OPD0_SHIFT, SPIBSC_DROPR_OPD0);  
 1821              		.loc 1 1342 0
 1822 0058 FF30A0E3 		mov	r3, #255
 1823 005c 0020A0E3 		mov	r2, #0
 1824 0060 0610A0E1 		mov	r1, r6
 1825 0064 0400A0E1 		mov	r0, r4
 1826 0068 FEFFFFEB 		bl	spibsc_io_reg_write_32
 1827              	.LVL206:
1343:../generate/drivers/r_spibsc/src/lld/r_spibsc_lld_rza2m.c **** 
1344:../generate/drivers/r_spibsc/src/lld/r_spibsc_lld_rza2m.c ****     /* DRENR.OPDB[1:0] = width */
1345:../generate/drivers/r_spibsc/src/lld/r_spibsc_lld_rza2m.c ****     spibsc_io_reg_write_32(&SPIBSC.DRENR.LONG, width & 0x3 , SPIBSC_DRENR_OPDB_SHIFT, SPIBSC_DRENR_
 1828              		.loc 1 1345 0
 1829 006c 0336A0E3 		mov	r3, #3145728
 1830 0070 1420A0E3 		mov	r2, #20
 1831 0074 1810DDE5 		ldrb	r1, [sp, #24]	@ zero_extendqisi2
 1832 0078 031001E2 		and	r1, r1, #3
 1833 007c 1C00A0E3 		mov	r0, #28
 1834 0080 800F41E3 		movt	r0, 8064
 1835 0084 FEFFFFEB 		bl	spibsc_io_reg_write_32
 1836              	.LVL207:
1346:../generate/drivers/r_spibsc/src/lld/r_spibsc_lld_rza2m.c **** 
1347:../generate/drivers/r_spibsc/src/lld/r_spibsc_lld_rza2m.c ****     if( SPIBSC_OUTPUT_OPD_3210 == option_data_output_enable)
 1837              		.loc 1 1347 0
 1838 0088 0F0055E3 		cmp	r5, #15
 1839 008c 1500000A 		beq	.L126
1348:../generate/drivers/r_spibsc/src/lld/r_spibsc_lld_rza2m.c ****     {
1349:../generate/drivers/r_spibsc/src/lld/r_spibsc_lld_rza2m.c ****         /* DRENR.OPDE[3:0] = b'1111 : OPD3, OPD2, OPD1, OPD0 output enabled */
1350:../generate/drivers/r_spibsc/src/lld/r_spibsc_lld_rza2m.c ****         spibsc_io_reg_write_32(&SPIBSC.DRENR.LONG, SPIBSC_OUTPUT_OPD_3210, SPIBSC_DRENR_OPDE_SHIFT,
1351:../generate/drivers/r_spibsc/src/lld/r_spibsc_lld_rza2m.c ****     }
1352:../generate/drivers/r_spibsc/src/lld/r_spibsc_lld_rza2m.c ****     else if( SPIBSC_OUTPUT_OPD_321 == option_data_output_enable)
 1840              		.loc 1 1352 0
 1841 0090 0E0055E3 		cmp	r5, #14
 1842 0094 1A00000A 		beq	.L127
1353:../generate/drivers/r_spibsc/src/lld/r_spibsc_lld_rza2m.c ****     {
1354:../generate/drivers/r_spibsc/src/lld/r_spibsc_lld_rza2m.c ****         /* DRENR.OPDE[3:0] = b'1110 : OPD3, OPD2, OPD1 output enabled */
1355:../generate/drivers/r_spibsc/src/lld/r_spibsc_lld_rza2m.c ****         spibsc_io_reg_write_32(&SPIBSC.DRENR.LONG, SPIBSC_OUTPUT_OPD_321, SPIBSC_DRENR_OPDE_SHIFT, 
1356:../generate/drivers/r_spibsc/src/lld/r_spibsc_lld_rza2m.c ****     }
1357:../generate/drivers/r_spibsc/src/lld/r_spibsc_lld_rza2m.c ****     else if( SPIBSC_OUTPUT_OPD_32 == option_data_output_enable)
 1843              		.loc 1 1357 0
 1844 0098 0C0055E3 		cmp	r5, #12
 1845 009c 1F00000A 		beq	.L128
1358:../generate/drivers/r_spibsc/src/lld/r_spibsc_lld_rza2m.c ****     {
1359:../generate/drivers/r_spibsc/src/lld/r_spibsc_lld_rza2m.c ****         /* DRENR.OPDE[3:0] = b'1100 : OPD3, OPD2 output enabled */
1360:../generate/drivers/r_spibsc/src/lld/r_spibsc_lld_rza2m.c ****         spibsc_io_reg_write_32(&SPIBSC.DRENR.LONG, SPIBSC_OUTPUT_OPD_32, SPIBSC_DRENR_OPDE_SHIFT, S
1361:../generate/drivers/r_spibsc/src/lld/r_spibsc_lld_rza2m.c ****     }
1362:../generate/drivers/r_spibsc/src/lld/r_spibsc_lld_rza2m.c ****     else if( SPIBSC_OUTPUT_OPD_3 == option_data_output_enable)
 1846              		.loc 1 1362 0
 1847 00a0 080055E3 		cmp	r5, #8
 1848 00a4 2400000A 		beq	.L129
1363:../generate/drivers/r_spibsc/src/lld/r_spibsc_lld_rza2m.c ****     {
1364:../generate/drivers/r_spibsc/src/lld/r_spibsc_lld_rza2m.c ****         /* DRENR.OPDE[3:0] = b'1000 : OPD3 output enabled */
1365:../generate/drivers/r_spibsc/src/lld/r_spibsc_lld_rza2m.c ****         spibsc_io_reg_write_32(&SPIBSC.DRENR.LONG, SPIBSC_OUTPUT_OPD_3, SPIBSC_DRENR_OPDE_SHIFT, SP
1366:../generate/drivers/r_spibsc/src/lld/r_spibsc_lld_rza2m.c ****     }
1367:../generate/drivers/r_spibsc/src/lld/r_spibsc_lld_rza2m.c ****     else
1368:../generate/drivers/r_spibsc/src/lld/r_spibsc_lld_rza2m.c ****     {
1369:../generate/drivers/r_spibsc/src/lld/r_spibsc_lld_rza2m.c ****         /* DRENR.OPDE[3:0] = b'0000 : Option Data Output disabled */
1370:../generate/drivers/r_spibsc/src/lld/r_spibsc_lld_rza2m.c ****         spibsc_io_reg_write_32(&SPIBSC.DRENR.LONG, 0x0, SPIBSC_DRENR_OPDE_SHIFT, SPIBSC_DRENR_OPDE)
 1849              		.loc 1 1370 0
 1850 00a8 F030A0E3 		mov	r3, #240
 1851 00ac 0420A0E3 		mov	r2, #4
 1852 00b0 0010A0E3 		mov	r1, #0
 1853 00b4 1C00A0E3 		mov	r0, #28
 1854 00b8 800F41E3 		movt	r0, 8064
 1855 00bc FEFFFFEB 		bl	spibsc_io_reg_write_32
 1856              	.LVL208:
 1857              	.L119:
1371:../generate/drivers/r_spibsc/src/lld/r_spibsc_lld_rza2m.c ****     }
1372:../generate/drivers/r_spibsc/src/lld/r_spibsc_lld_rza2m.c **** 
1373:../generate/drivers/r_spibsc/src/lld/r_spibsc_lld_rza2m.c **** 
1374:../generate/drivers/r_spibsc/src/lld/r_spibsc_lld_rza2m.c ****     if( 1 == ddr_enable)
 1858              		.loc 1 1374 0
 1859 00c0 2030DDE5 		ldrb	r3, [sp, #32]	@ zero_extendqisi2
 1860 00c4 010053E3 		cmp	r3, #1
 1861 00c8 2200000A 		beq	.L130
1375:../generate/drivers/r_spibsc/src/lld/r_spibsc_lld_rza2m.c ****     {
1376:../generate/drivers/r_spibsc/src/lld/r_spibsc_lld_rza2m.c ****         /* DRDRENR.OPDRE = 1 : OPTION DATA is DDR transfer setting */
1377:../generate/drivers/r_spibsc/src/lld/r_spibsc_lld_rza2m.c ****         spibsc_io_reg_write_32(&SPIBSC.DRDRENR.LONG, SPIBSC_DDR_TRANSFER, SPIBSC_DRDRENR_OPDRE_SHIF
1378:../generate/drivers/r_spibsc/src/lld/r_spibsc_lld_rza2m.c ****     }
1379:../generate/drivers/r_spibsc/src/lld/r_spibsc_lld_rza2m.c ****     else
1380:../generate/drivers/r_spibsc/src/lld/r_spibsc_lld_rza2m.c ****     {
1381:../generate/drivers/r_spibsc/src/lld/r_spibsc_lld_rza2m.c ****         /* DRDRENR.OPDRE = 0 : OPTION DATA is SDR transfer setting */
1382:../generate/drivers/r_spibsc/src/lld/r_spibsc_lld_rza2m.c ****         spibsc_io_reg_write_32(&SPIBSC.DRDRENR.LONG, SPIBSC_SDR_TRANSFER, SPIBSC_DRDRENR_OPDRE_SHIF
 1862              		.loc 1 1382 0
 1863 00cc 1030A0E3 		mov	r3, #16
 1864 00d0 0420A0E3 		mov	r2, #4
 1865 00d4 0010A0E3 		mov	r1, #0
 1866 00d8 5C00A0E3 		mov	r0, #92
 1867 00dc 800F41E3 		movt	r0, 8064
 1868 00e0 FEFFFFEB 		bl	spibsc_io_reg_write_32
 1869              	.LVL209:
1383:../generate/drivers/r_spibsc/src/lld/r_spibsc_lld_rza2m.c ****     }
1384:../generate/drivers/r_spibsc/src/lld/r_spibsc_lld_rza2m.c **** 
1385:../generate/drivers/r_spibsc/src/lld/r_spibsc_lld_rza2m.c **** }
 1870              		.loc 1 1385 0
 1871 00e4 F081BDE8 		pop	{r4, r5, r6, r7, r8, pc}
 1872              	.L126:
1350:../generate/drivers/r_spibsc/src/lld/r_spibsc_lld_rza2m.c ****     }
 1873              		.loc 1 1350 0
 1874 00e8 F030A0E3 		mov	r3, #240
 1875 00ec 0420A0E3 		mov	r2, #4
 1876 00f0 0F10A0E3 		mov	r1, #15
 1877 00f4 1C00A0E3 		mov	r0, #28
 1878 00f8 800F41E3 		movt	r0, 8064
 1879 00fc FEFFFFEB 		bl	spibsc_io_reg_write_32
 1880              	.LVL210:
 1881 0100 EEFFFFEA 		b	.L119
 1882              	.L127:
1355:../generate/drivers/r_spibsc/src/lld/r_spibsc_lld_rza2m.c ****     }
 1883              		.loc 1 1355 0
 1884 0104 F030A0E3 		mov	r3, #240
 1885 0108 0420A0E3 		mov	r2, #4
 1886 010c 0E10A0E3 		mov	r1, #14
 1887 0110 1C00A0E3 		mov	r0, #28
 1888 0114 800F41E3 		movt	r0, 8064
 1889 0118 FEFFFFEB 		bl	spibsc_io_reg_write_32
 1890              	.LVL211:
 1891 011c E7FFFFEA 		b	.L119
 1892              	.L128:
1360:../generate/drivers/r_spibsc/src/lld/r_spibsc_lld_rza2m.c ****     }
 1893              		.loc 1 1360 0
 1894 0120 F030A0E3 		mov	r3, #240
 1895 0124 0420A0E3 		mov	r2, #4
 1896 0128 0C10A0E3 		mov	r1, #12
 1897 012c 1C00A0E3 		mov	r0, #28
 1898 0130 800F41E3 		movt	r0, 8064
 1899 0134 FEFFFFEB 		bl	spibsc_io_reg_write_32
 1900              	.LVL212:
 1901 0138 E0FFFFEA 		b	.L119
 1902              	.L129:
1365:../generate/drivers/r_spibsc/src/lld/r_spibsc_lld_rza2m.c ****     }
 1903              		.loc 1 1365 0
 1904 013c F030A0E3 		mov	r3, #240
 1905 0140 0420A0E3 		mov	r2, #4
 1906 0144 0810A0E3 		mov	r1, #8
 1907 0148 1C00A0E3 		mov	r0, #28
 1908 014c 800F41E3 		movt	r0, 8064
 1909 0150 FEFFFFEB 		bl	spibsc_io_reg_write_32
 1910              	.LVL213:
 1911 0154 D9FFFFEA 		b	.L119
 1912              	.L130:
1377:../generate/drivers/r_spibsc/src/lld/r_spibsc_lld_rza2m.c ****     }
 1913              		.loc 1 1377 0
 1914 0158 1030A0E3 		mov	r3, #16
 1915 015c 0420A0E3 		mov	r2, #4
 1916 0160 0110A0E3 		mov	r1, #1
 1917 0164 5C00A0E3 		mov	r0, #92
 1918 0168 800F41E3 		movt	r0, 8064
 1919 016c FEFFFFEB 		bl	spibsc_io_reg_write_32
 1920              	.LVL214:
 1921 0170 F081BDE8 		pop	{r4, r5, r6, r7, r8, pc}
 1922              		.cfi_endproc
 1923              	.LFE34:
 1925              		.section	.text.r_spibsc_xip_set_dummy_cycle,"ax",%progbits
 1926              		.align	2
 1927              		.syntax unified
 1928              		.arm
 1929              		.fpu neon
 1931              	r_spibsc_xip_set_dummy_cycle:
 1932              	.LFB35:
1386:../generate/drivers/r_spibsc/src/lld/r_spibsc_lld_rza2m.c **** /*******************************************************************************
1387:../generate/drivers/r_spibsc/src/lld/r_spibsc_lld_rza2m.c **** End of function r_spibsc_xip_set_option_data
1388:../generate/drivers/r_spibsc/src/lld/r_spibsc_lld_rza2m.c **** *******************************************************************************/
1389:../generate/drivers/r_spibsc/src/lld/r_spibsc_lld_rza2m.c **** 
1390:../generate/drivers/r_spibsc/src/lld/r_spibsc_lld_rza2m.c **** 
1391:../generate/drivers/r_spibsc/src/lld/r_spibsc_lld_rza2m.c **** /*******************************************************************************
1392:../generate/drivers/r_spibsc/src/lld/r_spibsc_lld_rza2m.c **** * Function Name: r_spibsc_xip_set_dummy_cycle
1393:../generate/drivers/r_spibsc/src/lld/r_spibsc_lld_rza2m.c **** * Description  : Dummy Cycle Setting (External address space read mode (XIP) )
1394:../generate/drivers/r_spibsc/src/lld/r_spibsc_lld_rza2m.c **** * Arguments    : uint8_t dummy_cycle_num : Number of Dummy Cycles
1395:../generate/drivers/r_spibsc/src/lld/r_spibsc_lld_rza2m.c **** *              :                         : b'00000   :  1 cycle
1396:../generate/drivers/r_spibsc/src/lld/r_spibsc_lld_rza2m.c **** *              :                         : b'00001   :  2 cycle
1397:../generate/drivers/r_spibsc/src/lld/r_spibsc_lld_rza2m.c **** *              :                         : b'00010   :  3 cycle
1398:../generate/drivers/r_spibsc/src/lld/r_spibsc_lld_rza2m.c **** *              :                         : ...
1399:../generate/drivers/r_spibsc/src/lld/r_spibsc_lld_rza2m.c **** *              :                         : b'10011   : 20 cycle
1400:../generate/drivers/r_spibsc/src/lld/r_spibsc_lld_rza2m.c **** *              : uint8_t width           : Dummy Cycle bus width
1401:../generate/drivers/r_spibsc/src/lld/r_spibsc_lld_rza2m.c **** *              :                         :   b'00 : 1bit
1402:../generate/drivers/r_spibsc/src/lld/r_spibsc_lld_rza2m.c **** *              :                         :   b'10 : 4bit
1403:../generate/drivers/r_spibsc/src/lld/r_spibsc_lld_rza2m.c **** *              : uint8_t output_enable  : Dummy Cycle output enable
1404:../generate/drivers/r_spibsc/src/lld/r_spibsc_lld_rza2m.c **** *              :                        :      0 : Dummy Cycle output disabled
1405:../generate/drivers/r_spibsc/src/lld/r_spibsc_lld_rza2m.c **** *              :                        :      1 : Dummy Cycle output enabled
1406:../generate/drivers/r_spibsc/src/lld/r_spibsc_lld_rza2m.c **** * Return Value : none
1407:../generate/drivers/r_spibsc/src/lld/r_spibsc_lld_rza2m.c **** *******************************************************************************/
1408:../generate/drivers/r_spibsc/src/lld/r_spibsc_lld_rza2m.c **** static void r_spibsc_xip_set_dummy_cycle(uint8_t dummy_cycle_num, uint8_t width, uint8_t output_ena
1409:../generate/drivers/r_spibsc/src/lld/r_spibsc_lld_rza2m.c **** {
 1933              		.loc 1 1409 0
 1934              		.cfi_startproc
 1935              		@ args = 0, pretend = 0, frame = 0
 1936              		@ frame_needed = 0, uses_anonymous_args = 0
 1937              	.LVL215:
 1938 0000 10402DE9 		push	{r4, lr}
 1939              		.cfi_def_cfa_offset 8
 1940              		.cfi_offset 4, -8
 1941              		.cfi_offset 14, -4
 1942 0004 0240A0E1 		mov	r4, r2
1410:../generate/drivers/r_spibsc/src/lld/r_spibsc_lld_rza2m.c ****     /* Casting the pointer to a uint32_t type is valid because "unsigned long" is same 4byte unsign
1411:../generate/drivers/r_spibsc/src/lld/r_spibsc_lld_rza2m.c ****     spibsc_io_reg_write_32(&SPIBSC.DRDMCR.LONG, dummy_cycle_num, SPIBSC_DRDMCR_DMCYC_SHIFT, SPIBSC_
 1943              		.loc 1 1411 0
 1944 0008 1F30A0E3 		mov	r3, #31
 1945 000c 0020A0E3 		mov	r2, #0
 1946              	.LVL216:
 1947 0010 0010A0E1 		mov	r1, r0
 1948              	.LVL217:
 1949 0014 5800A0E3 		mov	r0, #88
 1950              	.LVL218:
 1951 0018 800F41E3 		movt	r0, 8064
 1952 001c FEFFFFEB 		bl	spibsc_io_reg_write_32
 1953              	.LVL219:
1412:../generate/drivers/r_spibsc/src/lld/r_spibsc_lld_rza2m.c **** 
1413:../generate/drivers/r_spibsc/src/lld/r_spibsc_lld_rza2m.c ****     /* Since the version of UM has changed from 0.5 to 1.0 and the DMDB bit has been deleted, comme
1414:../generate/drivers/r_spibsc/src/lld/r_spibsc_lld_rza2m.c **** /*    SPIBSC_IO_RegWrite_32(&SPIBSC.DRDMCR.LONG, width,           SPIBSC_DRDMCR_DMDB_SHIFT,  SPIBSC
1415:../generate/drivers/r_spibsc/src/lld/r_spibsc_lld_rza2m.c ****     UNUSED_PARAM(width);
1416:../generate/drivers/r_spibsc/src/lld/r_spibsc_lld_rza2m.c **** 
1417:../generate/drivers/r_spibsc/src/lld/r_spibsc_lld_rza2m.c ****     if( 1 == output_enable)
 1954              		.loc 1 1417 0
 1955 0020 010054E3 		cmp	r4, #1
 1956 0024 0600000A 		beq	.L135
1418:../generate/drivers/r_spibsc/src/lld/r_spibsc_lld_rza2m.c ****     {
1419:../generate/drivers/r_spibsc/src/lld/r_spibsc_lld_rza2m.c ****         /* DRENR.DME = 1 : Dummy Cycle output enabled */
1420:../generate/drivers/r_spibsc/src/lld/r_spibsc_lld_rza2m.c ****         spibsc_io_reg_write_32(&SPIBSC.DRENR.LONG, 1, SPIBSC_DRENR_DME_SHIFT, SPIBSC_DRENR_DME);
1421:../generate/drivers/r_spibsc/src/lld/r_spibsc_lld_rza2m.c ****     }
1422:../generate/drivers/r_spibsc/src/lld/r_spibsc_lld_rza2m.c ****     else
1423:../generate/drivers/r_spibsc/src/lld/r_spibsc_lld_rza2m.c ****     {
1424:../generate/drivers/r_spibsc/src/lld/r_spibsc_lld_rza2m.c ****         /* DRENR.DME = 0 : : Dummy Cycle output disabled */
1425:../generate/drivers/r_spibsc/src/lld/r_spibsc_lld_rza2m.c ****         spibsc_io_reg_write_32(&SPIBSC.DRENR.LONG, 0, SPIBSC_DRENR_DME_SHIFT, SPIBSC_DRENR_DME);
 1957              		.loc 1 1425 0
 1958 0028 0239A0E3 		mov	r3, #32768
 1959 002c 0F20A0E3 		mov	r2, #15
 1960 0030 0010A0E3 		mov	r1, #0
 1961 0034 1C00A0E3 		mov	r0, #28
 1962 0038 800F41E3 		movt	r0, 8064
 1963 003c FEFFFFEB 		bl	spibsc_io_reg_write_32
 1964              	.LVL220:
1426:../generate/drivers/r_spibsc/src/lld/r_spibsc_lld_rza2m.c ****     }
1427:../generate/drivers/r_spibsc/src/lld/r_spibsc_lld_rza2m.c **** 
1428:../generate/drivers/r_spibsc/src/lld/r_spibsc_lld_rza2m.c **** }
 1965              		.loc 1 1428 0
 1966 0040 1080BDE8 		pop	{r4, pc}
 1967              	.L135:
1420:../generate/drivers/r_spibsc/src/lld/r_spibsc_lld_rza2m.c ****     }
 1968              		.loc 1 1420 0
 1969 0044 0239A0E3 		mov	r3, #32768
 1970 0048 0F20A0E3 		mov	r2, #15
 1971 004c 0110A0E3 		mov	r1, #1
 1972 0050 1C00A0E3 		mov	r0, #28
 1973 0054 800F41E3 		movt	r0, 8064
 1974 0058 FEFFFFEB 		bl	spibsc_io_reg_write_32
 1975              	.LVL221:
 1976 005c 1080BDE8 		pop	{r4, pc}
 1977              		.cfi_endproc
 1978              	.LFE35:
 1980              		.section	.text.r_spibsc_xip_set_datatransfer,"ax",%progbits
 1981              		.align	2
 1982              		.syntax unified
 1983              		.arm
 1984              		.fpu neon
 1986              	r_spibsc_xip_set_datatransfer:
 1987              	.LFB36:
1429:../generate/drivers/r_spibsc/src/lld/r_spibsc_lld_rza2m.c **** /*******************************************************************************
1430:../generate/drivers/r_spibsc/src/lld/r_spibsc_lld_rza2m.c **** End of function r_spibsc_xip_set_dummy_cycle
1431:../generate/drivers/r_spibsc/src/lld/r_spibsc_lld_rza2m.c **** *******************************************************************************/
1432:../generate/drivers/r_spibsc/src/lld/r_spibsc_lld_rza2m.c **** 
1433:../generate/drivers/r_spibsc/src/lld/r_spibsc_lld_rza2m.c **** 
1434:../generate/drivers/r_spibsc/src/lld/r_spibsc_lld_rza2m.c **** /*******************************************************************************
1435:../generate/drivers/r_spibsc/src/lld/r_spibsc_lld_rza2m.c **** * Function Name: r_spibsc_xip_set_datatransfer
1436:../generate/drivers/r_spibsc/src/lld/r_spibsc_lld_rza2m.c **** * Description  : Data Transfer Setting (External address space read mode (XIP) )
1437:../generate/drivers/r_spibsc/src/lld/r_spibsc_lld_rza2m.c **** * Arguments    : uint8_t width          : Data bus width
1438:../generate/drivers/r_spibsc/src/lld/r_spibsc_lld_rza2m.c **** *              :                        :   b'00 : 1bit
1439:../generate/drivers/r_spibsc/src/lld/r_spibsc_lld_rza2m.c **** *              :                        :   b'01 : 2bit
1440:../generate/drivers/r_spibsc/src/lld/r_spibsc_lld_rza2m.c **** *              :                        :   b'10 : 4bit
1441:../generate/drivers/r_spibsc/src/lld/r_spibsc_lld_rza2m.c **** *              : uint8_t ddr_enable     : Data DDR Enable
1442:../generate/drivers/r_spibsc/src/lld/r_spibsc_lld_rza2m.c **** *              :                        :   0 : SDR
1443:../generate/drivers/r_spibsc/src/lld/r_spibsc_lld_rza2m.c **** *              :                        :   1 : DDR
1444:../generate/drivers/r_spibsc/src/lld/r_spibsc_lld_rza2m.c **** * Return Value : none
1445:../generate/drivers/r_spibsc/src/lld/r_spibsc_lld_rza2m.c **** *******************************************************************************/
1446:../generate/drivers/r_spibsc/src/lld/r_spibsc_lld_rza2m.c **** static void r_spibsc_xip_set_datatransfer(uint8_t width, uint8_t ddr_enable)
1447:../generate/drivers/r_spibsc/src/lld/r_spibsc_lld_rza2m.c **** {
 1988              		.loc 1 1447 0
 1989              		.cfi_startproc
 1990              		@ args = 0, pretend = 0, frame = 0
 1991              		@ frame_needed = 0, uses_anonymous_args = 0
 1992              	.LVL222:
 1993 0000 10402DE9 		push	{r4, lr}
 1994              		.cfi_def_cfa_offset 8
 1995              		.cfi_offset 4, -8
 1996              		.cfi_offset 14, -4
 1997 0004 0140A0E1 		mov	r4, r1
1448:../generate/drivers/r_spibsc/src/lld/r_spibsc_lld_rza2m.c **** 
1449:../generate/drivers/r_spibsc/src/lld/r_spibsc_lld_rza2m.c ****     /* Casting the pointer to a uint32_t type is valid because "unsigned long" is same 4byte unsign
1450:../generate/drivers/r_spibsc/src/lld/r_spibsc_lld_rza2m.c ****     spibsc_io_reg_write_32(&SPIBSC.DRENR.LONG, width, SPIBSC_DRENR_DRDB_SHIFT, SPIBSC_DRENR_DRDB);
 1998              		.loc 1 1450 0
 1999 0008 0338A0E3 		mov	r3, #196608
 2000 000c 1020A0E3 		mov	r2, #16
 2001 0010 0010A0E1 		mov	r1, r0
 2002              	.LVL223:
 2003 0014 1C00A0E3 		mov	r0, #28
 2004              	.LVL224:
 2005 0018 800F41E3 		movt	r0, 8064
 2006 001c FEFFFFEB 		bl	spibsc_io_reg_write_32
 2007              	.LVL225:
1451:../generate/drivers/r_spibsc/src/lld/r_spibsc_lld_rza2m.c **** 
1452:../generate/drivers/r_spibsc/src/lld/r_spibsc_lld_rza2m.c ****     if( 1 == ddr_enable)
 2008              		.loc 1 1452 0
 2009 0020 010054E3 		cmp	r4, #1
 2010 0024 0600000A 		beq	.L140
1453:../generate/drivers/r_spibsc/src/lld/r_spibsc_lld_rza2m.c ****     {
1454:../generate/drivers/r_spibsc/src/lld/r_spibsc_lld_rza2m.c ****         /* DRDRENR.DRDRE = 1 : DATA is DDR transfer setting */
1455:../generate/drivers/r_spibsc/src/lld/r_spibsc_lld_rza2m.c ****         spibsc_io_reg_write_32(&SPIBSC.DRDRENR.LONG, SPIBSC_DDR_TRANSFER, SPIBSC_DRDRENR_DRDRE_SHIF
1456:../generate/drivers/r_spibsc/src/lld/r_spibsc_lld_rza2m.c ****     }
1457:../generate/drivers/r_spibsc/src/lld/r_spibsc_lld_rza2m.c ****     else
1458:../generate/drivers/r_spibsc/src/lld/r_spibsc_lld_rza2m.c ****     {
1459:../generate/drivers/r_spibsc/src/lld/r_spibsc_lld_rza2m.c ****         /* DRDRENR.DRDRE = 0 : DATA is SDR transfer setting */
1460:../generate/drivers/r_spibsc/src/lld/r_spibsc_lld_rza2m.c ****         spibsc_io_reg_write_32(&SPIBSC.DRDRENR.LONG, SPIBSC_SDR_TRANSFER, SPIBSC_DRDRENR_DRDRE_SHIF
 2011              		.loc 1 1460 0
 2012 0028 0130A0E3 		mov	r3, #1
 2013 002c 0020A0E3 		mov	r2, #0
 2014 0030 0210A0E1 		mov	r1, r2
 2015 0034 5C00A0E3 		mov	r0, #92
 2016 0038 800F41E3 		movt	r0, 8064
 2017 003c FEFFFFEB 		bl	spibsc_io_reg_write_32
 2018              	.LVL226:
1461:../generate/drivers/r_spibsc/src/lld/r_spibsc_lld_rza2m.c ****     }
1462:../generate/drivers/r_spibsc/src/lld/r_spibsc_lld_rza2m.c **** 
1463:../generate/drivers/r_spibsc/src/lld/r_spibsc_lld_rza2m.c **** }
 2019              		.loc 1 1463 0
 2020 0040 1080BDE8 		pop	{r4, pc}
 2021              	.L140:
1455:../generate/drivers/r_spibsc/src/lld/r_spibsc_lld_rza2m.c ****     }
 2022              		.loc 1 1455 0
 2023 0044 0130A0E3 		mov	r3, #1
 2024 0048 0020A0E3 		mov	r2, #0
 2025 004c 0310A0E1 		mov	r1, r3
 2026 0050 5C00A0E3 		mov	r0, #92
 2027 0054 800F41E3 		movt	r0, 8064
 2028 0058 FEFFFFEB 		bl	spibsc_io_reg_write_32
 2029              	.LVL227:
 2030 005c 1080BDE8 		pop	{r4, pc}
 2031              		.cfi_endproc
 2032              	.LFE36:
 2034              		.section	.text.r_spibsc_change_manual_mode,"ax",%progbits
 2035              		.align	2
 2036              		.syntax unified
 2037              		.arm
 2038              		.fpu neon
 2040              	r_spibsc_change_manual_mode:
 2041              	.LFB37:
1464:../generate/drivers/r_spibsc/src/lld/r_spibsc_lld_rza2m.c **** /*******************************************************************************
1465:../generate/drivers/r_spibsc/src/lld/r_spibsc_lld_rza2m.c **** End of function r_spibsc_xip_set_datatransfer
1466:../generate/drivers/r_spibsc/src/lld/r_spibsc_lld_rza2m.c **** *******************************************************************************/
1467:../generate/drivers/r_spibsc/src/lld/r_spibsc_lld_rza2m.c **** 
1468:../generate/drivers/r_spibsc/src/lld/r_spibsc_lld_rza2m.c **** /*******************************************************************************
1469:../generate/drivers/r_spibsc/src/lld/r_spibsc_lld_rza2m.c **** * Function Name: r_spibsc_change_manual_mode
1470:../generate/drivers/r_spibsc/src/lld/r_spibsc_lld_rza2m.c **** * Description  : Switch to Manual mode
1471:../generate/drivers/r_spibsc/src/lld/r_spibsc_lld_rza2m.c **** * Arguments    : none
1472:../generate/drivers/r_spibsc/src/lld/r_spibsc_lld_rza2m.c **** * Return Value : none
1473:../generate/drivers/r_spibsc/src/lld/r_spibsc_lld_rza2m.c **** *******************************************************************************/
1474:../generate/drivers/r_spibsc/src/lld/r_spibsc_lld_rza2m.c **** static void r_spibsc_change_manual_mode(uint8_t sdr_ddr)
1475:../generate/drivers/r_spibsc/src/lld/r_spibsc_lld_rza2m.c **** {
 2042              		.loc 1 1475 0
 2043              		.cfi_startproc
 2044              		@ args = 0, pretend = 0, frame = 0
 2045              		@ frame_needed = 0, uses_anonymous_args = 0
 2046              	.LVL228:
 2047 0000 10402DE9 		push	{r4, lr}
 2048              		.cfi_def_cfa_offset 8
 2049              		.cfi_offset 4, -8
 2050              		.cfi_offset 14, -4
 2051 0004 0040A0E1 		mov	r4, r0
1476:../generate/drivers/r_spibsc/src/lld/r_spibsc_lld_rza2m.c ****     /* CMNCR.MD = 1 () */
1477:../generate/drivers/r_spibsc/src/lld/r_spibsc_lld_rza2m.c ****     spibsc_io_reg_write_32(&SPIBSC.CMNCR.LONG, 0x1, SPIBSC_CMNCR_MD_SHIFT, SPIBSC_CMNCR_MD);
 2052              		.loc 1 1477 0
 2053 0008 0231A0E3 		mov	r3, #-2147483648
 2054 000c 1F20A0E3 		mov	r2, #31
 2055 0010 0110A0E3 		mov	r1, #1
 2056 0014 7E05A0E3 		mov	r0, #528482304
 2057              	.LVL229:
 2058 0018 FEFFFFEB 		bl	spibsc_io_reg_write_32
 2059              	.LVL230:
1478:../generate/drivers/r_spibsc/src/lld/r_spibsc_lld_rza2m.c **** 
1479:../generate/drivers/r_spibsc/src/lld/r_spibsc_lld_rza2m.c **** 
1480:../generate/drivers/r_spibsc/src/lld/r_spibsc_lld_rza2m.c ****     if (SPIBSC_DDR_TRANSFER == sdr_ddr)
 2060              		.loc 1 1480 0
 2061 001c 010054E3 		cmp	r4, #1
 2062 0020 1200000A 		beq	.L145
1481:../generate/drivers/r_spibsc/src/lld/r_spibsc_lld_rza2m.c ****     {
1482:../generate/drivers/r_spibsc/src/lld/r_spibsc_lld_rza2m.c ****         /* for SPI-Flash / DDR */
1483:../generate/drivers/r_spibsc/src/lld/r_spibsc_lld_rza2m.c ****         /* Casting the pointer to a uint32_t type is valid because "unsigned long" is same 4byte un
1484:../generate/drivers/r_spibsc/src/lld/r_spibsc_lld_rza2m.c ****         spibsc_io_reg_write_32(&SPIBSC.PHYCNT.LONG, 0x1, SPIBSC_PHYCNT_PHYMEM_SHIFT, SPIBSC_PHYCNT_
1485:../generate/drivers/r_spibsc/src/lld/r_spibsc_lld_rza2m.c ****         spibsc_io_reg_write_32(&SPIBSC.PHYOFFSET1.LONG, 0x2, SPIBSC_PHYOFFSET1_DDRTMG_SHIFT, SPIBSC
1486:../generate/drivers/r_spibsc/src/lld/r_spibsc_lld_rza2m.c ****         spibsc_io_reg_write_32(&SPIBSC.PHYOFFSET2.LONG, 0x4, SPIBSC_PHYOFFSET2_OCTTMG_SHIFT, SPIBSC
1487:../generate/drivers/r_spibsc/src/lld/r_spibsc_lld_rza2m.c ****     }
1488:../generate/drivers/r_spibsc/src/lld/r_spibsc_lld_rza2m.c ****     else
1489:../generate/drivers/r_spibsc/src/lld/r_spibsc_lld_rza2m.c ****     {
1490:../generate/drivers/r_spibsc/src/lld/r_spibsc_lld_rza2m.c ****         /* for SPI-Flash / SDR */
1491:../generate/drivers/r_spibsc/src/lld/r_spibsc_lld_rza2m.c ****         spibsc_io_reg_write_32(&SPIBSC.PHYCNT.LONG, 0x0, SPIBSC_PHYCNT_PHYMEM_SHIFT, SPIBSC_PHYCNT_
 2063              		.loc 1 1491 0
 2064 0024 0330A0E3 		mov	r3, #3
 2065 0028 0020A0E3 		mov	r2, #0
 2066 002c 0210A0E1 		mov	r1, r2
 2067 0030 7C00A0E3 		mov	r0, #124
 2068 0034 800F41E3 		movt	r0, 8064
 2069 0038 FEFFFFEB 		bl	spibsc_io_reg_write_32
 2070              	.LVL231:
1492:../generate/drivers/r_spibsc/src/lld/r_spibsc_lld_rza2m.c ****         spibsc_io_reg_write_32(&SPIBSC.PHYOFFSET1.LONG, 0x3, SPIBSC_PHYOFFSET1_DDRTMG_SHIFT, SPIBSC
 2071              		.loc 1 1492 0
 2072 003c 0332A0E3 		mov	r3, #805306368
 2073 0040 1C20A0E3 		mov	r2, #28
 2074 0044 0310A0E3 		mov	r1, #3
 2075 0048 8000A0E3 		mov	r0, #128
 2076 004c 800F41E3 		movt	r0, 8064
 2077 0050 FEFFFFEB 		bl	spibsc_io_reg_write_32
 2078              	.LVL232:
1493:../generate/drivers/r_spibsc/src/lld/r_spibsc_lld_rza2m.c ****         spibsc_io_reg_write_32(&SPIBSC.PHYOFFSET2.LONG, 0x4, SPIBSC_PHYOFFSET2_OCTTMG_SHIFT, SPIBSC
 2079              		.loc 1 1493 0
 2080 0054 073CA0E3 		mov	r3, #1792
 2081 0058 0820A0E3 		mov	r2, #8
 2082 005c 0410A0E3 		mov	r1, #4
 2083 0060 8400A0E3 		mov	r0, #132
 2084 0064 800F41E3 		movt	r0, 8064
 2085 0068 FEFFFFEB 		bl	spibsc_io_reg_write_32
 2086              	.LVL233:
1494:../generate/drivers/r_spibsc/src/lld/r_spibsc_lld_rza2m.c ****     }
1495:../generate/drivers/r_spibsc/src/lld/r_spibsc_lld_rza2m.c **** }
 2087              		.loc 1 1495 0
 2088 006c 1080BDE8 		pop	{r4, pc}
 2089              	.L145:
1484:../generate/drivers/r_spibsc/src/lld/r_spibsc_lld_rza2m.c ****         spibsc_io_reg_write_32(&SPIBSC.PHYOFFSET1.LONG, 0x2, SPIBSC_PHYOFFSET1_DDRTMG_SHIFT, SPIBSC
 2090              		.loc 1 1484 0
 2091 0070 0330A0E3 		mov	r3, #3
 2092 0074 0020A0E3 		mov	r2, #0
 2093 0078 0110A0E3 		mov	r1, #1
 2094 007c 7C00A0E3 		mov	r0, #124
 2095 0080 800F41E3 		movt	r0, 8064
 2096 0084 FEFFFFEB 		bl	spibsc_io_reg_write_32
 2097              	.LVL234:
1485:../generate/drivers/r_spibsc/src/lld/r_spibsc_lld_rza2m.c ****         spibsc_io_reg_write_32(&SPIBSC.PHYOFFSET2.LONG, 0x4, SPIBSC_PHYOFFSET2_OCTTMG_SHIFT, SPIBSC
 2098              		.loc 1 1485 0
 2099 0088 0332A0E3 		mov	r3, #805306368
 2100 008c 1C20A0E3 		mov	r2, #28
 2101 0090 0210A0E3 		mov	r1, #2
 2102 0094 8000A0E3 		mov	r0, #128
 2103 0098 800F41E3 		movt	r0, 8064
 2104 009c FEFFFFEB 		bl	spibsc_io_reg_write_32
 2105              	.LVL235:
1486:../generate/drivers/r_spibsc/src/lld/r_spibsc_lld_rza2m.c ****     }
 2106              		.loc 1 1486 0
 2107 00a0 073CA0E3 		mov	r3, #1792
 2108 00a4 0820A0E3 		mov	r2, #8
 2109 00a8 0410A0E3 		mov	r1, #4
 2110 00ac 8400A0E3 		mov	r0, #132
 2111 00b0 800F41E3 		movt	r0, 8064
 2112 00b4 FEFFFFEB 		bl	spibsc_io_reg_write_32
 2113              	.LVL236:
 2114 00b8 1080BDE8 		pop	{r4, pc}
 2115              		.cfi_endproc
 2116              	.LFE37:
 2118              		.section	.text.r_spibsc_change_xip_mode,"ax",%progbits
 2119              		.align	2
 2120              		.syntax unified
 2121              		.arm
 2122              		.fpu neon
 2124              	r_spibsc_change_xip_mode:
 2125              	.LFB38:
1496:../generate/drivers/r_spibsc/src/lld/r_spibsc_lld_rza2m.c **** 
1497:../generate/drivers/r_spibsc/src/lld/r_spibsc_lld_rza2m.c **** /*******************************************************************************
1498:../generate/drivers/r_spibsc/src/lld/r_spibsc_lld_rza2m.c **** End of function r_spibsc_change_manual_mode
1499:../generate/drivers/r_spibsc/src/lld/r_spibsc_lld_rza2m.c **** *******************************************************************************/
1500:../generate/drivers/r_spibsc/src/lld/r_spibsc_lld_rza2m.c **** 
1501:../generate/drivers/r_spibsc/src/lld/r_spibsc_lld_rza2m.c **** static void r_spibsc_change_xip_mode(uint8_t sdr_ddr)
1502:../generate/drivers/r_spibsc/src/lld/r_spibsc_lld_rza2m.c **** {
 2126              		.loc 1 1502 0
 2127              		.cfi_startproc
 2128              		@ args = 0, pretend = 0, frame = 0
 2129              		@ frame_needed = 0, uses_anonymous_args = 0
 2130              	.LVL237:
 2131 0000 10402DE9 		push	{r4, lr}
 2132              		.cfi_def_cfa_offset 8
 2133              		.cfi_offset 4, -8
 2134              		.cfi_offset 14, -4
 2135 0004 0040A0E1 		mov	r4, r0
1503:../generate/drivers/r_spibsc/src/lld/r_spibsc_lld_rza2m.c ****     spibsc_io_reg_write_32(&SPIBSC.CMNCR.LONG, 0x0, SPIBSC_CMNCR_MD_SHIFT, SPIBSC_CMNCR_MD);
 2136              		.loc 1 1503 0
 2137 0008 0231A0E3 		mov	r3, #-2147483648
 2138 000c 1F20A0E3 		mov	r2, #31
 2139 0010 0010A0E3 		mov	r1, #0
 2140 0014 7E05A0E3 		mov	r0, #528482304
 2141              	.LVL238:
 2142 0018 FEFFFFEB 		bl	spibsc_io_reg_write_32
 2143              	.LVL239:
1504:../generate/drivers/r_spibsc/src/lld/r_spibsc_lld_rza2m.c **** 
1505:../generate/drivers/r_spibsc/src/lld/r_spibsc_lld_rza2m.c **** 
1506:../generate/drivers/r_spibsc/src/lld/r_spibsc_lld_rza2m.c ****     if (SPIBSC_DDR_TRANSFER == sdr_ddr)
 2144              		.loc 1 1506 0
 2145 001c 010054E3 		cmp	r4, #1
 2146 0020 1200000A 		beq	.L150
1507:../generate/drivers/r_spibsc/src/lld/r_spibsc_lld_rza2m.c ****     {
1508:../generate/drivers/r_spibsc/src/lld/r_spibsc_lld_rza2m.c ****         /* for SPI-Flash / DDR */
1509:../generate/drivers/r_spibsc/src/lld/r_spibsc_lld_rza2m.c ****         /* Casting the pointer to a uint32_t type is valid because "unsigned long" is same 4byte un
1510:../generate/drivers/r_spibsc/src/lld/r_spibsc_lld_rza2m.c ****         spibsc_io_reg_write_32(&SPIBSC.PHYCNT.LONG, 0x1, SPIBSC_PHYCNT_PHYMEM_SHIFT, SPIBSC_PHYCNT_
1511:../generate/drivers/r_spibsc/src/lld/r_spibsc_lld_rza2m.c ****         spibsc_io_reg_write_32(&SPIBSC.PHYOFFSET1.LONG, 0x2, SPIBSC_PHYOFFSET1_DDRTMG_SHIFT, SPIBSC
1512:../generate/drivers/r_spibsc/src/lld/r_spibsc_lld_rza2m.c ****         spibsc_io_reg_write_32(&SPIBSC.PHYOFFSET2.LONG, 0x4, SPIBSC_PHYOFFSET2_OCTTMG_SHIFT, SPIBSC
1513:../generate/drivers/r_spibsc/src/lld/r_spibsc_lld_rza2m.c ****     }
1514:../generate/drivers/r_spibsc/src/lld/r_spibsc_lld_rza2m.c ****     else
1515:../generate/drivers/r_spibsc/src/lld/r_spibsc_lld_rza2m.c ****     {
1516:../generate/drivers/r_spibsc/src/lld/r_spibsc_lld_rza2m.c ****         /* for SPI-Flash / SDR */
1517:../generate/drivers/r_spibsc/src/lld/r_spibsc_lld_rza2m.c ****         spibsc_io_reg_write_32(&SPIBSC.PHYCNT.LONG, 0x0, SPIBSC_PHYCNT_PHYMEM_SHIFT, SPIBSC_PHYCNT_
 2147              		.loc 1 1517 0
 2148 0024 0330A0E3 		mov	r3, #3
 2149 0028 0020A0E3 		mov	r2, #0
 2150 002c 0210A0E1 		mov	r1, r2
 2151 0030 7C00A0E3 		mov	r0, #124
 2152 0034 800F41E3 		movt	r0, 8064
 2153 0038 FEFFFFEB 		bl	spibsc_io_reg_write_32
 2154              	.LVL240:
1518:../generate/drivers/r_spibsc/src/lld/r_spibsc_lld_rza2m.c ****         spibsc_io_reg_write_32(&SPIBSC.PHYOFFSET1.LONG, 0x3, SPIBSC_PHYOFFSET1_DDRTMG_SHIFT, SPIBSC
 2155              		.loc 1 1518 0
 2156 003c 0332A0E3 		mov	r3, #805306368
 2157 0040 1C20A0E3 		mov	r2, #28
 2158 0044 0310A0E3 		mov	r1, #3
 2159 0048 8000A0E3 		mov	r0, #128
 2160 004c 800F41E3 		movt	r0, 8064
 2161 0050 FEFFFFEB 		bl	spibsc_io_reg_write_32
 2162              	.LVL241:
1519:../generate/drivers/r_spibsc/src/lld/r_spibsc_lld_rza2m.c ****         spibsc_io_reg_write_32(&SPIBSC.PHYOFFSET2.LONG, 0x4, SPIBSC_PHYOFFSET2_OCTTMG_SHIFT, SPIBSC
 2163              		.loc 1 1519 0
 2164 0054 073CA0E3 		mov	r3, #1792
 2165 0058 0820A0E3 		mov	r2, #8
 2166 005c 0410A0E3 		mov	r1, #4
 2167 0060 8400A0E3 		mov	r0, #132
 2168 0064 800F41E3 		movt	r0, 8064
 2169 0068 FEFFFFEB 		bl	spibsc_io_reg_write_32
 2170              	.LVL242:
1520:../generate/drivers/r_spibsc/src/lld/r_spibsc_lld_rza2m.c ****     }
1521:../generate/drivers/r_spibsc/src/lld/r_spibsc_lld_rza2m.c **** }
 2171              		.loc 1 1521 0
 2172 006c 1080BDE8 		pop	{r4, pc}
 2173              	.L150:
1510:../generate/drivers/r_spibsc/src/lld/r_spibsc_lld_rza2m.c ****         spibsc_io_reg_write_32(&SPIBSC.PHYOFFSET1.LONG, 0x2, SPIBSC_PHYOFFSET1_DDRTMG_SHIFT, SPIBSC
 2174              		.loc 1 1510 0
 2175 0070 0330A0E3 		mov	r3, #3
 2176 0074 0020A0E3 		mov	r2, #0
 2177 0078 0110A0E3 		mov	r1, #1
 2178 007c 7C00A0E3 		mov	r0, #124
 2179 0080 800F41E3 		movt	r0, 8064
 2180 0084 FEFFFFEB 		bl	spibsc_io_reg_write_32
 2181              	.LVL243:
1511:../generate/drivers/r_spibsc/src/lld/r_spibsc_lld_rza2m.c ****         spibsc_io_reg_write_32(&SPIBSC.PHYOFFSET2.LONG, 0x4, SPIBSC_PHYOFFSET2_OCTTMG_SHIFT, SPIBSC
 2182              		.loc 1 1511 0
 2183 0088 0332A0E3 		mov	r3, #805306368
 2184 008c 1C20A0E3 		mov	r2, #28
 2185 0090 0210A0E3 		mov	r1, #2
 2186 0094 8000A0E3 		mov	r0, #128
 2187 0098 800F41E3 		movt	r0, 8064
 2188 009c FEFFFFEB 		bl	spibsc_io_reg_write_32
 2189              	.LVL244:
1512:../generate/drivers/r_spibsc/src/lld/r_spibsc_lld_rza2m.c ****     }
 2190              		.loc 1 1512 0
 2191 00a0 073CA0E3 		mov	r3, #1792
 2192 00a4 0820A0E3 		mov	r2, #8
 2193 00a8 0410A0E3 		mov	r1, #4
 2194 00ac 8400A0E3 		mov	r0, #132
 2195 00b0 800F41E3 		movt	r0, 8064
 2196 00b4 FEFFFFEB 		bl	spibsc_io_reg_write_32
 2197              	.LVL245:
 2198 00b8 1080BDE8 		pop	{r4, pc}
 2199              		.cfi_endproc
 2200              	.LFE38:
 2202              		.section	.text.r_spibsc_flush_read_cache,"ax",%progbits
 2203              		.align	2
 2204              		.syntax unified
 2205              		.arm
 2206              		.fpu neon
 2208              	r_spibsc_flush_read_cache:
 2209              	.LFB39:
1522:../generate/drivers/r_spibsc/src/lld/r_spibsc_lld_rza2m.c **** /*******************************************************************************
1523:../generate/drivers/r_spibsc/src/lld/r_spibsc_lld_rza2m.c **** End of function r_spibsc_change_xip_mode
1524:../generate/drivers/r_spibsc/src/lld/r_spibsc_lld_rza2m.c **** *******************************************************************************/
1525:../generate/drivers/r_spibsc/src/lld/r_spibsc_lld_rza2m.c **** 
1526:../generate/drivers/r_spibsc/src/lld/r_spibsc_lld_rza2m.c **** 
1527:../generate/drivers/r_spibsc/src/lld/r_spibsc_lld_rza2m.c **** 
1528:../generate/drivers/r_spibsc/src/lld/r_spibsc_lld_rza2m.c **** /*******************************************************************************
1529:../generate/drivers/r_spibsc/src/lld/r_spibsc_lld_rza2m.c **** * Function Name: r_spibsc_flush_read_cache
1530:../generate/drivers/r_spibsc/src/lld/r_spibsc_lld_rza2m.c **** * Description  : Switch to Manual mode
1531:../generate/drivers/r_spibsc/src/lld/r_spibsc_lld_rza2m.c **** * Arguments    : none
1532:../generate/drivers/r_spibsc/src/lld/r_spibsc_lld_rza2m.c **** * Return Value : none
1533:../generate/drivers/r_spibsc/src/lld/r_spibsc_lld_rza2m.c **** *******************************************************************************/
1534:../generate/drivers/r_spibsc/src/lld/r_spibsc_lld_rza2m.c **** static void r_spibsc_flush_read_cache(void)
1535:../generate/drivers/r_spibsc/src/lld/r_spibsc_lld_rza2m.c **** {
 2210              		.loc 1 1535 0
 2211              		.cfi_startproc
 2212              		@ args = 0, pretend = 0, frame = 0
 2213              		@ frame_needed = 0, uses_anonymous_args = 0
 2214 0000 10402DE9 		push	{r4, lr}
 2215              		.cfi_def_cfa_offset 8
 2216              		.cfi_offset 4, -8
 2217              		.cfi_offset 14, -4
1536:../generate/drivers/r_spibsc/src/lld/r_spibsc_lld_rza2m.c **** 
1537:../generate/drivers/r_spibsc/src/lld/r_spibsc_lld_rza2m.c ****     /* DRCR.RCF = 1*/
1538:../generate/drivers/r_spibsc/src/lld/r_spibsc_lld_rza2m.c ****     spibsc_io_reg_write_32(&SPIBSC.DRCR.LONG, 0x1, SPIBSC_DRCR_RCF_SHIFT, SPIBSC_DRCR_RCF);
 2218              		.loc 1 1538 0
 2219 0004 0C40A0E3 		mov	r4, #12
 2220 0008 804F41E3 		movt	r4, 8064
 2221 000c 023CA0E3 		mov	r3, #512
 2222 0010 0920A0E3 		mov	r2, #9
 2223 0014 0110A0E3 		mov	r1, #1
 2224 0018 0400A0E1 		mov	r0, r4
 2225 001c FEFFFFEB 		bl	spibsc_io_reg_write_32
 2226              	.LVL246:
1539:../generate/drivers/r_spibsc/src/lld/r_spibsc_lld_rza2m.c **** 
1540:../generate/drivers/r_spibsc/src/lld/r_spibsc_lld_rza2m.c ****     /* dummy read */
1541:../generate/drivers/r_spibsc/src/lld/r_spibsc_lld_rza2m.c ****     spibsc_io_reg_read_32(&SPIBSC.DRCR.LONG, IOREG_NONSHIFT_ACCESS, IOREG_NONMASK_ACCESS);
 2227              		.loc 1 1541 0
 2228 0020 0020E0E3 		mvn	r2, #0
 2229 0024 0010A0E3 		mov	r1, #0
 2230 0028 0400A0E1 		mov	r0, r4
 2231 002c FEFFFFEB 		bl	spibsc_io_reg_read_32
 2232              	.LVL247:
1542:../generate/drivers/r_spibsc/src/lld/r_spibsc_lld_rza2m.c **** }
 2233              		.loc 1 1542 0
 2234 0030 1080BDE8 		pop	{r4, pc}
 2235              		.cfi_endproc
 2236              	.LFE39:
 2238              		.section	.text.r_spibsc_xip_stop_access,"ax",%progbits
 2239              		.align	2
 2240              		.syntax unified
 2241              		.arm
 2242              		.fpu neon
 2244              	r_spibsc_xip_stop_access:
 2245              	.LFB40:
1543:../generate/drivers/r_spibsc/src/lld/r_spibsc_lld_rza2m.c **** /*******************************************************************************
1544:../generate/drivers/r_spibsc/src/lld/r_spibsc_lld_rza2m.c **** End of function r_spibsc_flush_read_cache
1545:../generate/drivers/r_spibsc/src/lld/r_spibsc_lld_rza2m.c **** *******************************************************************************/
1546:../generate/drivers/r_spibsc/src/lld/r_spibsc_lld_rza2m.c **** 
1547:../generate/drivers/r_spibsc/src/lld/r_spibsc_lld_rza2m.c **** /*******************************************************************************
1548:../generate/drivers/r_spibsc/src/lld/r_spibsc_lld_rza2m.c **** * Function Name: r_spibsc_xip_stop_access
1549:../generate/drivers/r_spibsc/src/lld/r_spibsc_lld_rza2m.c **** * Description  : 
1550:../generate/drivers/r_spibsc/src/lld/r_spibsc_lld_rza2m.c **** * Arguments    : none
1551:../generate/drivers/r_spibsc/src/lld/r_spibsc_lld_rza2m.c **** * Return Value : none
1552:../generate/drivers/r_spibsc/src/lld/r_spibsc_lld_rza2m.c **** *******************************************************************************/
1553:../generate/drivers/r_spibsc/src/lld/r_spibsc_lld_rza2m.c **** static void r_spibsc_xip_stop_access(void)
1554:../generate/drivers/r_spibsc/src/lld/r_spibsc_lld_rza2m.c **** {
 2246              		.loc 1 1554 0
 2247              		.cfi_startproc
 2248              		@ args = 0, pretend = 0, frame = 0
 2249              		@ frame_needed = 0, uses_anonymous_args = 0
 2250 0000 10402DE9 		push	{r4, lr}
 2251              		.cfi_def_cfa_offset 8
 2252              		.cfi_offset 4, -8
 2253              		.cfi_offset 14, -4
1555:../generate/drivers/r_spibsc/src/lld/r_spibsc_lld_rza2m.c **** 
1556:../generate/drivers/r_spibsc/src/lld/r_spibsc_lld_rza2m.c ****     /* DRCR.SSLE = 1 and  DRCR.RBE = 1  */
1557:../generate/drivers/r_spibsc/src/lld/r_spibsc_lld_rza2m.c ****     if( ( 1 == spibsc_io_reg_read_32(&SPIBSC.DRCR.LONG, SPIBSC_DRCR_SSLE_SHIFT, SPIBSC_DRCR_SSLE  )
 2254              		.loc 1 1557 0
 2255 0004 0120A0E3 		mov	r2, #1
 2256 0008 0010A0E3 		mov	r1, #0
 2257 000c 0C00A0E3 		mov	r0, #12
 2258 0010 800F41E3 		movt	r0, 8064
 2259 0014 FEFFFFEB 		bl	spibsc_io_reg_read_32
 2260              	.LVL248:
 2261 0018 010050E3 		cmp	r0, #1
 2262 001c 0100000A 		beq	.L156
 2263              	.L154:
1558:../generate/drivers/r_spibsc/src/lld/r_spibsc_lld_rza2m.c ****         ( 1 == spibsc_io_reg_read_32(&SPIBSC.DRCR.LONG, SPIBSC_DRCR_RBE_SHIFT, SPIBSC_DRCR_RBE    )
1559:../generate/drivers/r_spibsc/src/lld/r_spibsc_lld_rza2m.c ****     {
1560:../generate/drivers/r_spibsc/src/lld/r_spibsc_lld_rza2m.c ****         /* SSLN = 1 */
1561:../generate/drivers/r_spibsc/src/lld/r_spibsc_lld_rza2m.c ****         spibsc_io_reg_write_32(&SPIBSC.DRCR.LONG, 0x1, SPIBSC_DRCR_SSLN_SHIFT, SPIBSC_DRCR_SSLN);
1562:../generate/drivers/r_spibsc/src/lld/r_spibsc_lld_rza2m.c ****     }
1563:../generate/drivers/r_spibsc/src/lld/r_spibsc_lld_rza2m.c **** 
1564:../generate/drivers/r_spibsc/src/lld/r_spibsc_lld_rza2m.c ****     r_spibsc_wait_tend();
 2264              		.loc 1 1564 0
 2265 0020 FEFFFFEB 		bl	r_spibsc_wait_tend
 2266              	.LVL249:
1565:../generate/drivers/r_spibsc/src/lld/r_spibsc_lld_rza2m.c **** 
1566:../generate/drivers/r_spibsc/src/lld/r_spibsc_lld_rza2m.c **** }
 2267              		.loc 1 1566 0
 2268 0024 1080BDE8 		pop	{r4, pc}
 2269              	.L156:
1558:../generate/drivers/r_spibsc/src/lld/r_spibsc_lld_rza2m.c ****         ( 1 == spibsc_io_reg_read_32(&SPIBSC.DRCR.LONG, SPIBSC_DRCR_RBE_SHIFT, SPIBSC_DRCR_RBE    )
 2270              		.loc 1 1558 0 discriminator 1
 2271 0028 012CA0E3 		mov	r2, #256
 2272 002c 0810A0E3 		mov	r1, #8
 2273 0030 0C00A0E3 		mov	r0, #12
 2274 0034 800F41E3 		movt	r0, 8064
 2275 0038 FEFFFFEB 		bl	spibsc_io_reg_read_32
 2276              	.LVL250:
1557:../generate/drivers/r_spibsc/src/lld/r_spibsc_lld_rza2m.c ****         ( 1 == spibsc_io_reg_read_32(&SPIBSC.DRCR.LONG, SPIBSC_DRCR_RBE_SHIFT, SPIBSC_DRCR_RBE    )
 2277              		.loc 1 1557 0 discriminator 1
 2278 003c 010050E3 		cmp	r0, #1
 2279 0040 F6FFFF1A 		bne	.L154
1561:../generate/drivers/r_spibsc/src/lld/r_spibsc_lld_rza2m.c ****     }
 2280              		.loc 1 1561 0
 2281 0044 0134A0E3 		mov	r3, #16777216
 2282 0048 1820A0E3 		mov	r2, #24
 2283 004c 0110A0E3 		mov	r1, #1
 2284 0050 0C00A0E3 		mov	r0, #12
 2285 0054 800F41E3 		movt	r0, 8064
 2286 0058 FEFFFFEB 		bl	spibsc_io_reg_write_32
 2287              	.LVL251:
 2288 005c EFFFFFEA 		b	.L154
 2289              		.cfi_endproc
 2290              	.LFE40:
 2292              		.section	.text.r_spibsc_qspi_io_set_output_level,"ax",%progbits
 2293              		.align	2
 2294              		.syntax unified
 2295              		.arm
 2296              		.fpu neon
 2298              	r_spibsc_qspi_io_set_output_level:
 2299              	.LFB41:
1567:../generate/drivers/r_spibsc/src/lld/r_spibsc_lld_rza2m.c **** /*******************************************************************************
1568:../generate/drivers/r_spibsc/src/lld/r_spibsc_lld_rza2m.c **** End of function r_spibsc_xip_stop_access
1569:../generate/drivers/r_spibsc/src/lld/r_spibsc_lld_rza2m.c **** *******************************************************************************/
1570:../generate/drivers/r_spibsc/src/lld/r_spibsc_lld_rza2m.c **** 
1571:../generate/drivers/r_spibsc/src/lld/r_spibsc_lld_rza2m.c **** 
1572:../generate/drivers/r_spibsc/src/lld/r_spibsc_lld_rza2m.c **** /******************************************************************************
1573:../generate/drivers/r_spibsc/src/lld/r_spibsc_lld_rza2m.c **** * Function Name: r_spibsc_qspi_io_set_output_level
1574:../generate/drivers/r_spibsc/src/lld/r_spibsc_lld_rza2m.c **** * Description  : spibsc _qspi_io_set_output_level
1575:../generate/drivers/r_spibsc/src/lld/r_spibsc_lld_rza2m.c **** * Arguments    : cmncr_moiio3 : Set the output level of QSPIn_IO3 at SSL negation
1576:../generate/drivers/r_spibsc/src/lld/r_spibsc_lld_rza2m.c **** * Arguments    : cmncr_moiio2 : Set the output level of QSPIn_IO2 at SSL negation
1577:../generate/drivers/r_spibsc/src/lld/r_spibsc_lld_rza2m.c **** * Arguments    : cmncr_moiio1 : Set the output level of QSPIn_IO1 at SSL negation
1578:../generate/drivers/r_spibsc/src/lld/r_spibsc_lld_rza2m.c **** * Arguments    : cmncr_moiio0 : Set the output level of QSPIn_IO0 at SSL negation
1579:../generate/drivers/r_spibsc/src/lld/r_spibsc_lld_rza2m.c **** * Arguments    : cmncr_io3fv  : Set the output level of QSPIn_IO3 at QSPIn_IO3 fixed value when 1 b
1580:../generate/drivers/r_spibsc/src/lld/r_spibsc_lld_rza2m.c **** * Arguments    : cmncr_io2fv  : Set the output level of QSPIn_IO2 at QSPIn_IO2 fixed value when 1 b
1581:../generate/drivers/r_spibsc/src/lld/r_spibsc_lld_rza2m.c **** * Arguments    : cmncr_io0fv  : Set the output level of QSPIn_IO0 at QSPIn_IO0 fixed value when 1 b
1582:../generate/drivers/r_spibsc/src/lld/r_spibsc_lld_rza2m.c **** * output level(B'00: 0, B'01: 1, B'10: previous value, B'11: Hi-Z)
1583:../generate/drivers/r_spibsc/src/lld/r_spibsc_lld_rza2m.c **** * Return Value : none
1584:../generate/drivers/r_spibsc/src/lld/r_spibsc_lld_rza2m.c **** ******************************************************************************/
1585:../generate/drivers/r_spibsc/src/lld/r_spibsc_lld_rza2m.c **** static void r_spibsc_qspi_io_set_output_level(
1586:../generate/drivers/r_spibsc/src/lld/r_spibsc_lld_rza2m.c ****     uint8_t cmncr_moiio3,
1587:../generate/drivers/r_spibsc/src/lld/r_spibsc_lld_rza2m.c ****     uint8_t cmncr_moiio2,
1588:../generate/drivers/r_spibsc/src/lld/r_spibsc_lld_rza2m.c ****     uint8_t cmncr_moiio1,
1589:../generate/drivers/r_spibsc/src/lld/r_spibsc_lld_rza2m.c ****     uint8_t cmncr_moiio0,
1590:../generate/drivers/r_spibsc/src/lld/r_spibsc_lld_rza2m.c ****     uint8_t cmncr_io3fv,
1591:../generate/drivers/r_spibsc/src/lld/r_spibsc_lld_rza2m.c ****     uint8_t cmncr_io2fv,
1592:../generate/drivers/r_spibsc/src/lld/r_spibsc_lld_rza2m.c ****     uint8_t cmncr_io0fv
1593:../generate/drivers/r_spibsc/src/lld/r_spibsc_lld_rza2m.c ****     )
1594:../generate/drivers/r_spibsc/src/lld/r_spibsc_lld_rza2m.c **** {
 2300              		.loc 1 1594 0
 2301              		.cfi_startproc
 2302              		@ args = 12, pretend = 0, frame = 0
 2303              		@ frame_needed = 0, uses_anonymous_args = 0
 2304              	.LVL252:
 2305 0000 70402DE9 		push	{r4, r5, r6, lr}
 2306              		.cfi_def_cfa_offset 16
 2307              		.cfi_offset 4, -16
 2308              		.cfi_offset 5, -12
 2309              		.cfi_offset 6, -8
 2310              		.cfi_offset 14, -4
 2311 0004 0160A0E1 		mov	r6, r1
 2312 0008 0250A0E1 		mov	r5, r2
 2313 000c 0340A0E1 		mov	r4, r3
1595:../generate/drivers/r_spibsc/src/lld/r_spibsc_lld_rza2m.c **** 
1596:../generate/drivers/r_spibsc/src/lld/r_spibsc_lld_rza2m.c ****     /* ---- CMNCR ---- */
1597:../generate/drivers/r_spibsc/src/lld/r_spibsc_lld_rza2m.c **** 
1598:../generate/drivers/r_spibsc/src/lld/r_spibsc_lld_rza2m.c ****     /* CMNCR.MOIIO3[1:0] = cmncr_moiio3 : QSPIn_IO3 pin status at the time of an idle */
1599:../generate/drivers/r_spibsc/src/lld/r_spibsc_lld_rza2m.c ****     spibsc_io_reg_write_32(&SPIBSC.CMNCR.LONG, cmncr_moiio3, SPIBSC_CMNCR_MOIIO3_SHIFT, SPIBSC_CMNC
 2314              		.loc 1 1599 0
 2315 0010 0335A0E3 		mov	r3, #12582912
 2316              	.LVL253:
 2317 0014 1620A0E3 		mov	r2, #22
 2318              	.LVL254:
 2319 0018 0010A0E1 		mov	r1, r0
 2320              	.LVL255:
 2321 001c 7E05A0E3 		mov	r0, #528482304
 2322              	.LVL256:
 2323 0020 FEFFFFEB 		bl	spibsc_io_reg_write_32
 2324              	.LVL257:
1600:../generate/drivers/r_spibsc/src/lld/r_spibsc_lld_rza2m.c **** 
1601:../generate/drivers/r_spibsc/src/lld/r_spibsc_lld_rza2m.c ****     /* CMNCR.MOIIO2[1:0] = cmncr_moiio2 : QSPIn_IO2 pin status at the time of an idle */
1602:../generate/drivers/r_spibsc/src/lld/r_spibsc_lld_rza2m.c ****     spibsc_io_reg_write_32(&SPIBSC.CMNCR.LONG, cmncr_moiio2, SPIBSC_CMNCR_MOIIO2_SHIFT, SPIBSC_CMNC
 2325              		.loc 1 1602 0
 2326 0024 0336A0E3 		mov	r3, #3145728
 2327 0028 1420A0E3 		mov	r2, #20
 2328 002c 0610A0E1 		mov	r1, r6
 2329 0030 7E05A0E3 		mov	r0, #528482304
 2330 0034 FEFFFFEB 		bl	spibsc_io_reg_write_32
 2331              	.LVL258:
1603:../generate/drivers/r_spibsc/src/lld/r_spibsc_lld_rza2m.c **** 
1604:../generate/drivers/r_spibsc/src/lld/r_spibsc_lld_rza2m.c ****     /* CMNCR.MOIIO1[1:0] = cmncr_moiio1 : QSPIn_IO1 pin status at the time of an idle */
1605:../generate/drivers/r_spibsc/src/lld/r_spibsc_lld_rza2m.c ****     spibsc_io_reg_write_32(&SPIBSC.CMNCR.LONG, cmncr_moiio1, SPIBSC_CMNCR_MOIIO1_SHIFT, SPIBSC_CMNC
 2332              		.loc 1 1605 0
 2333 0038 0337A0E3 		mov	r3, #786432
 2334 003c 1220A0E3 		mov	r2, #18
 2335 0040 0510A0E1 		mov	r1, r5
 2336 0044 7E05A0E3 		mov	r0, #528482304
 2337 0048 FEFFFFEB 		bl	spibsc_io_reg_write_32
 2338              	.LVL259:
1606:../generate/drivers/r_spibsc/src/lld/r_spibsc_lld_rza2m.c **** 
1607:../generate/drivers/r_spibsc/src/lld/r_spibsc_lld_rza2m.c ****     /* CMNCR.MOIIO0[1:0] = cmncr_moiio0 : QSPIn_IO0 pin status at the time of an idle */
1608:../generate/drivers/r_spibsc/src/lld/r_spibsc_lld_rza2m.c ****     spibsc_io_reg_write_32(&SPIBSC.CMNCR.LONG, cmncr_moiio0, SPIBSC_CMNCR_MOIIO0_SHIFT, SPIBSC_CMNC
 2339              		.loc 1 1608 0
 2340 004c 0338A0E3 		mov	r3, #196608
 2341 0050 1020A0E3 		mov	r2, #16
 2342 0054 0410A0E1 		mov	r1, r4
 2343 0058 7E05A0E3 		mov	r0, #528482304
 2344 005c FEFFFFEB 		bl	spibsc_io_reg_write_32
 2345              	.LVL260:
1609:../generate/drivers/r_spibsc/src/lld/r_spibsc_lld_rza2m.c **** 
1610:../generate/drivers/r_spibsc/src/lld/r_spibsc_lld_rza2m.c ****     /* CMNCR.IO3FV[1:0] = cmncr_io3fv  Output value of QSPIn_IO3 pin when 1 bit is set */
1611:../generate/drivers/r_spibsc/src/lld/r_spibsc_lld_rza2m.c ****     spibsc_io_reg_write_32(&SPIBSC.CMNCR.LONG, cmncr_io3fv, SPIBSC_CMNCR_IO3FV_SHIFT , SPIBSC_CMNCR
 2346              		.loc 1 1611 0
 2347 0060 0339A0E3 		mov	r3, #49152
 2348 0064 0E20A0E3 		mov	r2, #14
 2349 0068 1010DDE5 		ldrb	r1, [sp, #16]	@ zero_extendqisi2
 2350 006c 7E05A0E3 		mov	r0, #528482304
 2351 0070 FEFFFFEB 		bl	spibsc_io_reg_write_32
 2352              	.LVL261:
1612:../generate/drivers/r_spibsc/src/lld/r_spibsc_lld_rza2m.c **** 
1613:../generate/drivers/r_spibsc/src/lld/r_spibsc_lld_rza2m.c ****     /* CMNCR.IO2FV[1:0] = cmncr_io2fv : Output value of QSPIn_IO2 pin when 1 bit is set */
1614:../generate/drivers/r_spibsc/src/lld/r_spibsc_lld_rza2m.c ****     spibsc_io_reg_write_32(&SPIBSC.CMNCR.LONG, cmncr_io2fv, SPIBSC_CMNCR_IO2FV_SHIFT , SPIBSC_CMNCR
 2353              		.loc 1 1614 0
 2354 0074 033AA0E3 		mov	r3, #12288
 2355 0078 0C20A0E3 		mov	r2, #12
 2356 007c 1410DDE5 		ldrb	r1, [sp, #20]	@ zero_extendqisi2
 2357 0080 7E05A0E3 		mov	r0, #528482304
 2358 0084 FEFFFFEB 		bl	spibsc_io_reg_write_32
 2359              	.LVL262:
1615:../generate/drivers/r_spibsc/src/lld/r_spibsc_lld_rza2m.c **** 
1616:../generate/drivers/r_spibsc/src/lld/r_spibsc_lld_rza2m.c ****     /* CMNCR.IO0FV[1:0] = cmncr_io0fv : Output value of QSPIn_IO0 pin when 1 bit is set */
1617:../generate/drivers/r_spibsc/src/lld/r_spibsc_lld_rza2m.c ****     spibsc_io_reg_write_32(&SPIBSC.CMNCR.LONG, cmncr_io0fv, SPIBSC_CMNCR_IO0FV_SHIFT , SPIBSC_CMNCR
 2360              		.loc 1 1617 0
 2361 0088 033CA0E3 		mov	r3, #768
 2362 008c 0820A0E3 		mov	r2, #8
 2363 0090 1810DDE5 		ldrb	r1, [sp, #24]	@ zero_extendqisi2
 2364 0094 7E05A0E3 		mov	r0, #528482304
 2365 0098 FEFFFFEB 		bl	spibsc_io_reg_write_32
 2366              	.LVL263:
1618:../generate/drivers/r_spibsc/src/lld/r_spibsc_lld_rza2m.c **** 
1619:../generate/drivers/r_spibsc/src/lld/r_spibsc_lld_rza2m.c **** 
1620:../generate/drivers/r_spibsc/src/lld/r_spibsc_lld_rza2m.c **** }
 2367              		.loc 1 1620 0
 2368 009c 7080BDE8 		pop	{r4, r5, r6, pc}
 2369              		.cfi_endproc
 2370              	.LFE41:
 2372              		.section	.text.r_spibsc_get_ok_area_center,"ax",%progbits
 2373              		.align	2
 2374              		.syntax unified
 2375              		.arm
 2376              		.fpu neon
 2378              	r_spibsc_get_ok_area_center:
 2379              	.LFB42:
1621:../generate/drivers/r_spibsc/src/lld/r_spibsc_lld_rza2m.c **** /*******************************************************************************
1622:../generate/drivers/r_spibsc/src/lld/r_spibsc_lld_rza2m.c **** End of function r_spibsc_qspi_io_set_output_level
1623:../generate/drivers/r_spibsc/src/lld/r_spibsc_lld_rza2m.c **** *******************************************************************************/
1624:../generate/drivers/r_spibsc/src/lld/r_spibsc_lld_rza2m.c **** 
1625:../generate/drivers/r_spibsc/src/lld/r_spibsc_lld_rza2m.c **** 
1626:../generate/drivers/r_spibsc/src/lld/r_spibsc_lld_rza2m.c **** /*******************************************************************************
1627:../generate/drivers/r_spibsc/src/lld/r_spibsc_lld_rza2m.c **** * Function Name: r_spibsc_get_ok_area_center
1628:../generate/drivers/r_spibsc/src/lld/r_spibsc_lld_rza2m.c **** * Description  : Phy Adjust
1629:../generate/drivers/r_spibsc/src/lld/r_spibsc_lld_rza2m.c **** * Arguments    : p_ok_ng_result : Pointer of ok_ng_result
1630:../generate/drivers/r_spibsc/src/lld/r_spibsc_lld_rza2m.c **** * Return Value : index_center   : ok area center
1631:../generate/drivers/r_spibsc/src/lld/r_spibsc_lld_rza2m.c **** *******************************************************************************/
1632:../generate/drivers/r_spibsc/src/lld/r_spibsc_lld_rza2m.c **** static int_t r_spibsc_get_ok_area_center( uint8_t *p_ok_ng_result )
1633:../generate/drivers/r_spibsc/src/lld/r_spibsc_lld_rza2m.c **** {
 2380              		.loc 1 1633 0
 2381              		.cfi_startproc
 2382              		@ args = 0, pretend = 0, frame = 0
 2383              		@ frame_needed = 0, uses_anonymous_args = 0
 2384              		@ link register save eliminated.
 2385              	.LVL264:
1634:../generate/drivers/r_spibsc/src/lld/r_spibsc_lld_rza2m.c ****     int_t index;             /**< loop counter */
1635:../generate/drivers/r_spibsc/src/lld/r_spibsc_lld_rza2m.c ****     int_t ok_cnt = 0;
1636:../generate/drivers/r_spibsc/src/lld/r_spibsc_lld_rza2m.c ****     int_t index_start = -1;
1637:../generate/drivers/r_spibsc/src/lld/r_spibsc_lld_rza2m.c ****     int_t index_center = -1;
1638:../generate/drivers/r_spibsc/src/lld/r_spibsc_lld_rza2m.c **** 
1639:../generate/drivers/r_spibsc/src/lld/r_spibsc_lld_rza2m.c **** 
1640:../generate/drivers/r_spibsc/src/lld/r_spibsc_lld_rza2m.c ****     /* detect ok area index start*/
1641:../generate/drivers/r_spibsc/src/lld/r_spibsc_lld_rza2m.c ****     for ( index = 0; index < SPIBSC_PRV_PHYADJ_MAX; index++ )
 2386              		.loc 1 1641 0
 2387 0000 0030A0E3 		mov	r3, #0
 2388              	.LVL265:
 2389              	.L160:
 2390              		.loc 1 1641 0 is_stmt 0 discriminator 1
 2391 0004 0C0053E3 		cmp	r3, #12
 2392 0008 040000CA 		bgt	.L169
1642:../generate/drivers/r_spibsc/src/lld/r_spibsc_lld_rza2m.c ****     {
1643:../generate/drivers/r_spibsc/src/lld/r_spibsc_lld_rza2m.c ****         if ( SPIBSC_PRV_RESULT_OK == p_ok_ng_result[index] )
 2393              		.loc 1 1643 0 is_stmt 1
 2394 000c 0320D0E7 		ldrb	r2, [r0, r3]	@ zero_extendqisi2
 2395 0010 010052E3 		cmp	r2, #1
 2396 0014 0200000A 		beq	.L161
1641:../generate/drivers/r_spibsc/src/lld/r_spibsc_lld_rza2m.c ****     {
 2397              		.loc 1 1641 0 discriminator 2
 2398 0018 013083E2 		add	r3, r3, #1
 2399              	.LVL266:
 2400 001c F8FFFFEA 		b	.L160
 2401              	.L169:
1636:../generate/drivers/r_spibsc/src/lld/r_spibsc_lld_rza2m.c ****     int_t index_center = -1;
 2402              		.loc 1 1636 0
 2403 0020 0030E0E3 		mvn	r3, #0
 2404              	.LVL267:
 2405              	.L161:
1644:../generate/drivers/r_spibsc/src/lld/r_spibsc_lld_rza2m.c ****         {
1645:../generate/drivers/r_spibsc/src/lld/r_spibsc_lld_rza2m.c ****             index_start = index;
1646:../generate/drivers/r_spibsc/src/lld/r_spibsc_lld_rza2m.c ****             break;
1647:../generate/drivers/r_spibsc/src/lld/r_spibsc_lld_rza2m.c **** 
1648:../generate/drivers/r_spibsc/src/lld/r_spibsc_lld_rza2m.c ****         }
1649:../generate/drivers/r_spibsc/src/lld/r_spibsc_lld_rza2m.c ****         else
1650:../generate/drivers/r_spibsc/src/lld/r_spibsc_lld_rza2m.c ****         {
1651:../generate/drivers/r_spibsc/src/lld/r_spibsc_lld_rza2m.c ****              /* Do Nothing */
1652:../generate/drivers/r_spibsc/src/lld/r_spibsc_lld_rza2m.c ****         }
1653:../generate/drivers/r_spibsc/src/lld/r_spibsc_lld_rza2m.c **** 
1654:../generate/drivers/r_spibsc/src/lld/r_spibsc_lld_rza2m.c ****     }
1655:../generate/drivers/r_spibsc/src/lld/r_spibsc_lld_rza2m.c **** 
1656:../generate/drivers/r_spibsc/src/lld/r_spibsc_lld_rza2m.c ****     /* confirm exist of ok area */
1657:../generate/drivers/r_spibsc/src/lld/r_spibsc_lld_rza2m.c ****     if (-1 == index_start)
 2406              		.loc 1 1657 0
 2407 0024 010073E3 		cmn	r3, #1
 2408 0028 0D00000A 		beq	.L167
1658:../generate/drivers/r_spibsc/src/lld/r_spibsc_lld_rza2m.c ****     {
1659:../generate/drivers/r_spibsc/src/lld/r_spibsc_lld_rza2m.c ****         /* Do Nothing */
1660:../generate/drivers/r_spibsc/src/lld/r_spibsc_lld_rza2m.c ****     }
1661:../generate/drivers/r_spibsc/src/lld/r_spibsc_lld_rza2m.c ****     else
1662:../generate/drivers/r_spibsc/src/lld/r_spibsc_lld_rza2m.c ****     {
1663:../generate/drivers/r_spibsc/src/lld/r_spibsc_lld_rza2m.c ****         /* count number of ok */
1664:../generate/drivers/r_spibsc/src/lld/r_spibsc_lld_rza2m.c ****         for ( index = index_start; index < SPIBSC_PRV_PHYADJ_MAX; index++ )
 2409              		.loc 1 1664 0
 2410 002c 0320A0E1 		mov	r2, r3
1635:../generate/drivers/r_spibsc/src/lld/r_spibsc_lld_rza2m.c ****     int_t index_start = -1;
 2411              		.loc 1 1635 0
 2412 0030 0010A0E3 		mov	r1, #0
 2413              	.LVL268:
 2414              	.L164:
 2415              		.loc 1 1664 0 discriminator 1
 2416 0034 0C0052E3 		cmp	r2, #12
 2417 0038 040000CA 		bgt	.L165
1665:../generate/drivers/r_spibsc/src/lld/r_spibsc_lld_rza2m.c ****         {
1666:../generate/drivers/r_spibsc/src/lld/r_spibsc_lld_rza2m.c ****             if ( SPIBSC_PRV_RESULT_OK == p_ok_ng_result[index] )
 2418              		.loc 1 1666 0
 2419 003c 02C0D0E7 		ldrb	ip, [r0, r2]	@ zero_extendqisi2
 2420 0040 01005CE3 		cmp	ip, #1
1667:../generate/drivers/r_spibsc/src/lld/r_spibsc_lld_rza2m.c ****             {
1668:../generate/drivers/r_spibsc/src/lld/r_spibsc_lld_rza2m.c ****                 ok_cnt++;
 2421              		.loc 1 1668 0 discriminator 2
 2422 0044 01108102 		addeq	r1, r1, #1
 2423              	.LVL269:
1664:../generate/drivers/r_spibsc/src/lld/r_spibsc_lld_rza2m.c ****         {
 2424              		.loc 1 1664 0 discriminator 2
 2425 0048 01208202 		addeq	r2, r2, #1
 2426              	.LVL270:
 2427 004c F8FFFF0A 		beq	.L164
 2428              	.L165:
1669:../generate/drivers/r_spibsc/src/lld/r_spibsc_lld_rza2m.c ****             }
1670:../generate/drivers/r_spibsc/src/lld/r_spibsc_lld_rza2m.c ****             else
1671:../generate/drivers/r_spibsc/src/lld/r_spibsc_lld_rza2m.c ****             {
1672:../generate/drivers/r_spibsc/src/lld/r_spibsc_lld_rza2m.c ****                 break;
1673:../generate/drivers/r_spibsc/src/lld/r_spibsc_lld_rza2m.c ****             }
1674:../generate/drivers/r_spibsc/src/lld/r_spibsc_lld_rza2m.c **** 
1675:../generate/drivers/r_spibsc/src/lld/r_spibsc_lld_rza2m.c ****         }
1676:../generate/drivers/r_spibsc/src/lld/r_spibsc_lld_rza2m.c **** 
1677:../generate/drivers/r_spibsc/src/lld/r_spibsc_lld_rza2m.c ****         /* check ok number */
1678:../generate/drivers/r_spibsc/src/lld/r_spibsc_lld_rza2m.c ****         if (3 < ok_cnt)
 2429              		.loc 1 1678 0
 2430 0050 030051E3 		cmp	r1, #3
 2431 0054 040000DA 		ble	.L168
1679:../generate/drivers/r_spibsc/src/lld/r_spibsc_lld_rza2m.c ****         {
1680:../generate/drivers/r_spibsc/src/lld/r_spibsc_lld_rza2m.c ****             /* calculate ok area center index */
1681:../generate/drivers/r_spibsc/src/lld/r_spibsc_lld_rza2m.c ****             index_center = (ok_cnt/2) + index_start;
 2432              		.loc 1 1681 0
 2433 0058 A11F81E0 		add	r1, r1, r1, lsr #31
 2434              	.LVL271:
 2435 005c C10083E0 		add	r0, r3, r1, asr #1
 2436              	.LVL272:
 2437 0060 1EFF2FE1 		bx	lr
 2438              	.LVL273:
 2439              	.L167:
1637:../generate/drivers/r_spibsc/src/lld/r_spibsc_lld_rza2m.c **** 
 2440              		.loc 1 1637 0
 2441 0064 0000E0E3 		mvn	r0, #0
 2442              	.LVL274:
 2443 0068 1EFF2FE1 		bx	lr
 2444              	.LVL275:
 2445              	.L168:
 2446 006c 0000E0E3 		mvn	r0, #0
 2447              	.LVL276:
1682:../generate/drivers/r_spibsc/src/lld/r_spibsc_lld_rza2m.c **** 
1683:../generate/drivers/r_spibsc/src/lld/r_spibsc_lld_rza2m.c ****         }
1684:../generate/drivers/r_spibsc/src/lld/r_spibsc_lld_rza2m.c ****         else
1685:../generate/drivers/r_spibsc/src/lld/r_spibsc_lld_rza2m.c ****         {
1686:../generate/drivers/r_spibsc/src/lld/r_spibsc_lld_rza2m.c ****              /* Do Nothing */
1687:../generate/drivers/r_spibsc/src/lld/r_spibsc_lld_rza2m.c ****         }
1688:../generate/drivers/r_spibsc/src/lld/r_spibsc_lld_rza2m.c ****     }
1689:../generate/drivers/r_spibsc/src/lld/r_spibsc_lld_rza2m.c **** 
1690:../generate/drivers/r_spibsc/src/lld/r_spibsc_lld_rza2m.c **** 
1691:../generate/drivers/r_spibsc/src/lld/r_spibsc_lld_rza2m.c ****     return index_center;
1692:../generate/drivers/r_spibsc/src/lld/r_spibsc_lld_rza2m.c **** }
 2448              		.loc 1 1692 0
 2449 0070 1EFF2FE1 		bx	lr
 2450              		.cfi_endproc
 2451              	.LFE42:
 2453              		.section	.text.r_spibsc_spi_cmd_issue_read,"ax",%progbits
 2454              		.align	2
 2455              		.syntax unified
 2456              		.arm
 2457              		.fpu neon
 2459              	r_spibsc_spi_cmd_issue_read:
 2460              	.LFB47:
1693:../generate/drivers/r_spibsc/src/lld/r_spibsc_lld_rza2m.c **** /******************************************************************************
1694:../generate/drivers/r_spibsc/src/lld/r_spibsc_lld_rza2m.c ****  * End of function r_spibsc_get_ok_area_center
1695:../generate/drivers/r_spibsc/src/lld/r_spibsc_lld_rza2m.c ****  ******************************************************************************/
1696:../generate/drivers/r_spibsc/src/lld/r_spibsc_lld_rza2m.c **** 
1697:../generate/drivers/r_spibsc/src/lld/r_spibsc_lld_rza2m.c **** 
1698:../generate/drivers/r_spibsc/src/lld/r_spibsc_lld_rza2m.c **** /*******************************************************************************
1699:../generate/drivers/r_spibsc/src/lld/r_spibsc_lld_rza2m.c **** * Function Name: R_SPIBSC_AdjustPhy
1700:../generate/drivers/r_spibsc/src/lld/r_spibsc_lld_rza2m.c **** * Description  : Phy Adjust
1701:../generate/drivers/r_spibsc/src/lld/r_spibsc_lld_rza2m.c **** * Arguments    : none
1702:../generate/drivers/r_spibsc/src/lld/r_spibsc_lld_rza2m.c **** * Return Value : spibsc_err_t
1703:../generate/drivers/r_spibsc/src/lld/r_spibsc_lld_rza2m.c **** *******************************************************************************/
1704:../generate/drivers/r_spibsc/src/lld/r_spibsc_lld_rza2m.c **** e_spibsc_err_t R_SPIBSC_AdjustPhy( void )
1705:../generate/drivers/r_spibsc/src/lld/r_spibsc_lld_rza2m.c **** {
1706:../generate/drivers/r_spibsc/src/lld/r_spibsc_lld_rza2m.c ****     e_spibsc_err_t ret;
1707:../generate/drivers/r_spibsc/src/lld/r_spibsc_lld_rza2m.c ****     int_t index;             /**< loop counter */
1708:../generate/drivers/r_spibsc/src/lld/r_spibsc_lld_rza2m.c ****     int_t index_center = -1;
1709:../generate/drivers/r_spibsc/src/lld/r_spibsc_lld_rza2m.c ****     uint32_t read_data;
1710:../generate/drivers/r_spibsc/src/lld/r_spibsc_lld_rza2m.c **** 
1711:../generate/drivers/r_spibsc/src/lld/r_spibsc_lld_rza2m.c **** 
1712:../generate/drivers/r_spibsc/src/lld/r_spibsc_lld_rza2m.c ****     /* PHY Reg Access Enable */
1713:../generate/drivers/r_spibsc/src/lld/r_spibsc_lld_rza2m.c ****     spibsc_io_reg_write_32(&SPIBSC.PHYADJ2.LONG, 0xA5390000, IOREG_NONSHIFT_ACCESS, IOREG_NONMASK_A
1714:../generate/drivers/r_spibsc/src/lld/r_spibsc_lld_rza2m.c ****     spibsc_io_reg_write_32(&SPIBSC.PHYADJ1.LONG, 0x80000000, IOREG_NONSHIFT_ACCESS, IOREG_NONMASK_A
1715:../generate/drivers/r_spibsc/src/lld/r_spibsc_lld_rza2m.c **** 
1716:../generate/drivers/r_spibsc/src/lld/r_spibsc_lld_rza2m.c ****     /* Set PHY Timing Adjust Reg. */
1717:../generate/drivers/r_spibsc/src/lld/r_spibsc_lld_rza2m.c ****     spibsc_io_reg_write_32(&SPIBSC.PHYADJ2.LONG, 0x00009191, IOREG_NONSHIFT_ACCESS, IOREG_NONMASK_A
1718:../generate/drivers/r_spibsc/src/lld/r_spibsc_lld_rza2m.c ****     spibsc_io_reg_write_32(&SPIBSC.PHYADJ1.LONG, 0x80000022, IOREG_NONSHIFT_ACCESS, IOREG_NONMASK_A
1719:../generate/drivers/r_spibsc/src/lld/r_spibsc_lld_rza2m.c ****     spibsc_io_reg_write_32(&SPIBSC.PHYADJ2.LONG, 0x00009191, IOREG_NONSHIFT_ACCESS, IOREG_NONMASK_A
1720:../generate/drivers/r_spibsc/src/lld/r_spibsc_lld_rza2m.c ****     spibsc_io_reg_write_32(&SPIBSC.PHYADJ1.LONG, 0x80000024, IOREG_NONSHIFT_ACCESS, IOREG_NONMASK_A
1721:../generate/drivers/r_spibsc/src/lld/r_spibsc_lld_rza2m.c **** 
1722:../generate/drivers/r_spibsc/src/lld/r_spibsc_lld_rza2m.c ****     /* detect ok/ng area */
1723:../generate/drivers/r_spibsc/src/lld/r_spibsc_lld_rza2m.c ****     for ( index = 0; index < SPIBSC_PRV_PHYADJ_MAX; index++ )
1724:../generate/drivers/r_spibsc/src/lld/r_spibsc_lld_rza2m.c ****     {
1725:../generate/drivers/r_spibsc/src/lld/r_spibsc_lld_rza2m.c ****         
1726:../generate/drivers/r_spibsc/src/lld/r_spibsc_lld_rza2m.c ****         /* ==== Waiting Tend ==== */
1727:../generate/drivers/r_spibsc/src/lld/r_spibsc_lld_rza2m.c ****         r_spibsc_wait_tend();
1728:../generate/drivers/r_spibsc/src/lld/r_spibsc_lld_rza2m.c **** 
1729:../generate/drivers/r_spibsc/src/lld/r_spibsc_lld_rza2m.c ****         /* PHY Timing Adjust */
1730:../generate/drivers/r_spibsc/src/lld/r_spibsc_lld_rza2m.c ****         spibsc_io_reg_write_32(&SPIBSC.PHYCNT.LONG,  gs_spibsc_phy_adj[index].zz, SPIBSC_PHYCNT_CKS
1731:../generate/drivers/r_spibsc/src/lld/r_spibsc_lld_rza2m.c ****         spibsc_io_reg_write_32(&SPIBSC.PHYADJ2.LONG, gs_spibsc_phy_adj[index].xy, IOREG_NONSHIFT_AC
1732:../generate/drivers/r_spibsc/src/lld/r_spibsc_lld_rza2m.c ****         spibsc_io_reg_write_32(&SPIBSC.PHYADJ1.LONG, 0x80000032, IOREG_NONSHIFT_ACCESS, IOREG_NONMA
1733:../generate/drivers/r_spibsc/src/lld/r_spibsc_lld_rza2m.c ****         spibsc_io_reg_read_32(&SPIBSC.PHYADJ1.LONG, IOREG_NONSHIFT_ACCESS, IOREG_NONMASK_ACCESS);  
1734:../generate/drivers/r_spibsc/src/lld/r_spibsc_lld_rza2m.c **** 
1735:../generate/drivers/r_spibsc/src/lld/r_spibsc_lld_rza2m.c ****         /* ==== Read serial flash data ==== */
1736:../generate/drivers/r_spibsc/src/lld/r_spibsc_lld_rza2m.c ****         R_SPIBSC_SPICMDIssue(SFLASH_CMD_INDEX_4DTRD4B_EEH,  (0x0FFFFFFFUL & ((uint32_t)&g_spibsc_te
1737:../generate/drivers/r_spibsc/src/lld/r_spibsc_lld_rza2m.c ****     	
1738:../generate/drivers/r_spibsc/src/lld/r_spibsc_lld_rza2m.c ****         /* check read */
1739:../generate/drivers/r_spibsc/src/lld/r_spibsc_lld_rza2m.c ****     	if ( SPIBSC_TEST_PATTERN_EXPECTED_VALUE == read_data )
1740:../generate/drivers/r_spibsc/src/lld/r_spibsc_lld_rza2m.c ****         {
1741:../generate/drivers/r_spibsc/src/lld/r_spibsc_lld_rza2m.c ****             gs_ok_ng_result[index] = SPIBSC_PRV_RESULT_OK;        /* OK */
1742:../generate/drivers/r_spibsc/src/lld/r_spibsc_lld_rza2m.c ****         }
1743:../generate/drivers/r_spibsc/src/lld/r_spibsc_lld_rza2m.c ****         else
1744:../generate/drivers/r_spibsc/src/lld/r_spibsc_lld_rza2m.c ****         {
1745:../generate/drivers/r_spibsc/src/lld/r_spibsc_lld_rza2m.c ****             gs_ok_ng_result[index] = SPIBSC_PRV_RESULT_NG;        /* NG */
1746:../generate/drivers/r_spibsc/src/lld/r_spibsc_lld_rza2m.c ****         }
1747:../generate/drivers/r_spibsc/src/lld/r_spibsc_lld_rza2m.c ****     }
1748:../generate/drivers/r_spibsc/src/lld/r_spibsc_lld_rza2m.c **** 
1749:../generate/drivers/r_spibsc/src/lld/r_spibsc_lld_rza2m.c ****     /* get ok area center */
1750:../generate/drivers/r_spibsc/src/lld/r_spibsc_lld_rza2m.c ****     index_center = r_spibsc_get_ok_area_center( gs_ok_ng_result );
1751:../generate/drivers/r_spibsc/src/lld/r_spibsc_lld_rza2m.c **** 
1752:../generate/drivers/r_spibsc/src/lld/r_spibsc_lld_rza2m.c ****     if ( 0 < index_center )
1753:../generate/drivers/r_spibsc/src/lld/r_spibsc_lld_rza2m.c ****     {
1754:../generate/drivers/r_spibsc/src/lld/r_spibsc_lld_rza2m.c ****         /* ==== Waiting Tend ==== */
1755:../generate/drivers/r_spibsc/src/lld/r_spibsc_lld_rza2m.c ****         r_spibsc_wait_tend();
1756:../generate/drivers/r_spibsc/src/lld/r_spibsc_lld_rza2m.c **** 
1757:../generate/drivers/r_spibsc/src/lld/r_spibsc_lld_rza2m.c ****         /* Set Final PHY Timing */
1758:../generate/drivers/r_spibsc/src/lld/r_spibsc_lld_rza2m.c ****         spibsc_io_reg_write_32(&SPIBSC.PHYCNT.LONG,  gs_spibsc_phy_adj[index_center].zz, SPIBSC_PHY
1759:../generate/drivers/r_spibsc/src/lld/r_spibsc_lld_rza2m.c ****         spibsc_io_reg_write_32(&SPIBSC.PHYADJ2.LONG, gs_spibsc_phy_adj[index_center].xy, IOREG_NONS
1760:../generate/drivers/r_spibsc/src/lld/r_spibsc_lld_rza2m.c ****         spibsc_io_reg_write_32(&SPIBSC.PHYADJ1.LONG, 0x80000032, IOREG_NONSHIFT_ACCESS, IOREG_NONMA
1761:../generate/drivers/r_spibsc/src/lld/r_spibsc_lld_rza2m.c **** 
1762:../generate/drivers/r_spibsc/src/lld/r_spibsc_lld_rza2m.c ****         ret = SPIBSC_SUCCESS;
1763:../generate/drivers/r_spibsc/src/lld/r_spibsc_lld_rza2m.c ****     }
1764:../generate/drivers/r_spibsc/src/lld/r_spibsc_lld_rza2m.c ****     else
1765:../generate/drivers/r_spibsc/src/lld/r_spibsc_lld_rza2m.c ****     {
1766:../generate/drivers/r_spibsc/src/lld/r_spibsc_lld_rza2m.c ****         ret = SPIBSC_ERR_INVALID;
1767:../generate/drivers/r_spibsc/src/lld/r_spibsc_lld_rza2m.c ****     }
1768:../generate/drivers/r_spibsc/src/lld/r_spibsc_lld_rza2m.c **** 
1769:../generate/drivers/r_spibsc/src/lld/r_spibsc_lld_rza2m.c ****     return ret;
1770:../generate/drivers/r_spibsc/src/lld/r_spibsc_lld_rza2m.c **** }
1771:../generate/drivers/r_spibsc/src/lld/r_spibsc_lld_rza2m.c **** /******************************************************************************
1772:../generate/drivers/r_spibsc/src/lld/r_spibsc_lld_rza2m.c ****  * End of function R_SPIBSC_AdjustPhy
1773:../generate/drivers/r_spibsc/src/lld/r_spibsc_lld_rza2m.c ****  ******************************************************************************/
1774:../generate/drivers/r_spibsc/src/lld/r_spibsc_lld_rza2m.c **** 
1775:../generate/drivers/r_spibsc/src/lld/r_spibsc_lld_rza2m.c **** 
1776:../generate/drivers/r_spibsc/src/lld/r_spibsc_lld_rza2m.c **** /******************************************************************************
1777:../generate/drivers/r_spibsc/src/lld/r_spibsc_lld_rza2m.c **** * Function Name: R_SPIBSC_Init
1778:../generate/drivers/r_spibsc/src/lld/r_spibsc_lld_rza2m.c **** * Description  : 
1779:../generate/drivers/r_spibsc/src/lld/r_spibsc_lld_rza2m.c **** * Arguments    : 
1780:../generate/drivers/r_spibsc/src/lld/r_spibsc_lld_rza2m.c **** * Return Value : spibsc_err_t
1781:../generate/drivers/r_spibsc/src/lld/r_spibsc_lld_rza2m.c **** ******************************************************************************/
1782:../generate/drivers/r_spibsc/src/lld/r_spibsc_lld_rza2m.c **** e_spibsc_err_t  R_SPIBSC_Init( const st_spibsc_config_t  *p_spibsc_config_tbl )
1783:../generate/drivers/r_spibsc/src/lld/r_spibsc_lld_rza2m.c **** {
1784:../generate/drivers/r_spibsc/src/lld/r_spibsc_lld_rza2m.c ****     /* POCSEL0,POC0 set voltage*/
1785:../generate/drivers/r_spibsc/src/lld/r_spibsc_lld_rza2m.c ****     r_spibsc_port_voltage_setting(p_spibsc_config_tbl->flash_port_voltage);
1786:../generate/drivers/r_spibsc/src/lld/r_spibsc_lld_rza2m.c **** 
1787:../generate/drivers/r_spibsc/src/lld/r_spibsc_lld_rza2m.c ****     /* PSPIBSC set current */
1788:../generate/drivers/r_spibsc/src/lld/r_spibsc_lld_rza2m.c ****     r_spibsc_port_current_setting(p_spibsc_config_tbl->flash_port_voltage);
1789:../generate/drivers/r_spibsc/src/lld/r_spibsc_lld_rza2m.c **** 
1790:../generate/drivers/r_spibsc/src/lld/r_spibsc_lld_rza2m.c ****     if (SPIBSC_FLASH_SPI == p_spibsc_config_tbl->flash_type )
1791:../generate/drivers/r_spibsc/src/lld/r_spibsc_lld_rza2m.c ****     {
1792:../generate/drivers/r_spibsc/src/lld/r_spibsc_lld_rza2m.c ****         r_spibsc_common_spiflash_init(p_spibsc_config_tbl);
1793:../generate/drivers/r_spibsc/src/lld/r_spibsc_lld_rza2m.c ****     }
1794:../generate/drivers/r_spibsc/src/lld/r_spibsc_lld_rza2m.c **** 
1795:../generate/drivers/r_spibsc/src/lld/r_spibsc_lld_rza2m.c **** 
1796:../generate/drivers/r_spibsc/src/lld/r_spibsc_lld_rza2m.c ****     return (SPIBSC_SUCCESS);
1797:../generate/drivers/r_spibsc/src/lld/r_spibsc_lld_rza2m.c **** }
1798:../generate/drivers/r_spibsc/src/lld/r_spibsc_lld_rza2m.c **** /******************************************************************************
1799:../generate/drivers/r_spibsc/src/lld/r_spibsc_lld_rza2m.c ****  * End of function R_SPIBSC_Init
1800:../generate/drivers/r_spibsc/src/lld/r_spibsc_lld_rza2m.c ****  ******************************************************************************/
1801:../generate/drivers/r_spibsc/src/lld/r_spibsc_lld_rza2m.c **** 
1802:../generate/drivers/r_spibsc/src/lld/r_spibsc_lld_rza2m.c **** /******************************************************************************
1803:../generate/drivers/r_spibsc/src/lld/r_spibsc_lld_rza2m.c **** * Function Name: R_SPIBSC_ChangeMode
1804:../generate/drivers/r_spibsc/src/lld/r_spibsc_lld_rza2m.c **** * Description  : 
1805:../generate/drivers/r_spibsc/src/lld/r_spibsc_lld_rza2m.c **** * Arguments    : uint8_t mode
1806:../generate/drivers/r_spibsc/src/lld/r_spibsc_lld_rza2m.c **** *              : uint8_t table_no
1807:../generate/drivers/r_spibsc/src/lld/r_spibsc_lld_rza2m.c **** * Return Value : void
1808:../generate/drivers/r_spibsc/src/lld/r_spibsc_lld_rza2m.c **** ******************************************************************************/
1809:../generate/drivers/r_spibsc/src/lld/r_spibsc_lld_rza2m.c **** void R_SPIBSC_ChangeMode(uint8_t mode, uint8_t sdr_ddr, uint8_t table_no)
1810:../generate/drivers/r_spibsc/src/lld/r_spibsc_lld_rza2m.c **** {
1811:../generate/drivers/r_spibsc/src/lld/r_spibsc_lld_rza2m.c **** 
1812:../generate/drivers/r_spibsc/src/lld/r_spibsc_lld_rza2m.c ****     const st_spibsc_xip_config_t *p_xip_cmd_tbl = NULL;
1813:../generate/drivers/r_spibsc/src/lld/r_spibsc_lld_rza2m.c **** 
1814:../generate/drivers/r_spibsc/src/lld/r_spibsc_lld_rza2m.c ****     p_xip_cmd_tbl = &gs_xip_read_table[table_no];
1815:../generate/drivers/r_spibsc/src/lld/r_spibsc_lld_rza2m.c **** 
1816:../generate/drivers/r_spibsc/src/lld/r_spibsc_lld_rza2m.c ****     /* ==== Stop Access, Wait TEND=1 ==== */
1817:../generate/drivers/r_spibsc/src/lld/r_spibsc_lld_rza2m.c ****     r_spibsc_xip_stop_access();
1818:../generate/drivers/r_spibsc/src/lld/r_spibsc_lld_rza2m.c **** 
1819:../generate/drivers/r_spibsc/src/lld/r_spibsc_lld_rza2m.c ****     if ( SPIBSC_MODE_MANUAL == mode)
1820:../generate/drivers/r_spibsc/src/lld/r_spibsc_lld_rza2m.c ****     {
1821:../generate/drivers/r_spibsc/src/lld/r_spibsc_lld_rza2m.c ****         r_spibsc_change_manual_mode(sdr_ddr);  /* 1:DDR, 0:SDR */
1822:../generate/drivers/r_spibsc/src/lld/r_spibsc_lld_rza2m.c ****     }
1823:../generate/drivers/r_spibsc/src/lld/r_spibsc_lld_rza2m.c ****     else
1824:../generate/drivers/r_spibsc/src/lld/r_spibsc_lld_rza2m.c ****     {
1825:../generate/drivers/r_spibsc/src/lld/r_spibsc_lld_rza2m.c **** 
1826:../generate/drivers/r_spibsc/src/lld/r_spibsc_lld_rza2m.c **** 
1827:../generate/drivers/r_spibsc/src/lld/r_spibsc_lld_rza2m.c ****         /* ==== Set QSPIn_IOn output level ==== */
1828:../generate/drivers/r_spibsc/src/lld/r_spibsc_lld_rza2m.c ****         r_spibsc_qspi_io_set_output_level(
1829:../generate/drivers/r_spibsc/src/lld/r_spibsc_lld_rza2m.c ****             p_xip_cmd_tbl->cmncr_moiio3,
1830:../generate/drivers/r_spibsc/src/lld/r_spibsc_lld_rza2m.c ****             p_xip_cmd_tbl->cmncr_moiio2,
1831:../generate/drivers/r_spibsc/src/lld/r_spibsc_lld_rza2m.c ****             p_xip_cmd_tbl->cmncr_moiio1,
1832:../generate/drivers/r_spibsc/src/lld/r_spibsc_lld_rza2m.c ****             p_xip_cmd_tbl->cmncr_moiio0,
1833:../generate/drivers/r_spibsc/src/lld/r_spibsc_lld_rza2m.c ****             p_xip_cmd_tbl->cmncr_io3fv,
1834:../generate/drivers/r_spibsc/src/lld/r_spibsc_lld_rza2m.c ****             p_xip_cmd_tbl->cmncr_io2fv,
1835:../generate/drivers/r_spibsc/src/lld/r_spibsc_lld_rza2m.c ****             p_xip_cmd_tbl->cmncr_io0fv
1836:../generate/drivers/r_spibsc/src/lld/r_spibsc_lld_rza2m.c ****         );
1837:../generate/drivers/r_spibsc/src/lld/r_spibsc_lld_rza2m.c ****         r_spibsc_change_xip_mode(sdr_ddr);  /* 1:DDR, 0:SDR */
1838:../generate/drivers/r_spibsc/src/lld/r_spibsc_lld_rza2m.c **** 
1839:../generate/drivers/r_spibsc/src/lld/r_spibsc_lld_rza2m.c ****         r_spibsc_xip_set_command(p_xip_cmd_tbl->cmd, p_xip_cmd_tbl->cmd_width, p_xip_cmd_tbl->cmd_o
1840:../generate/drivers/r_spibsc/src/lld/r_spibsc_lld_rza2m.c ****         r_spibsc_xip_set_optional_command(p_xip_cmd_tbl->ocmd, p_xip_cmd_tbl->ocmd_width, p_xip_cmd
1841:../generate/drivers/r_spibsc/src/lld/r_spibsc_lld_rza2m.c ****         r_spibsc_xip_set_address(p_xip_cmd_tbl->addr_width, p_xip_cmd_tbl->addr_output_enable, p_xi
1842:../generate/drivers/r_spibsc/src/lld/r_spibsc_lld_rza2m.c **** 
1843:../generate/drivers/r_spibsc/src/lld/r_spibsc_lld_rza2m.c ****         r_spibsc_xip_set_option_data( p_xip_cmd_tbl->opd3, p_xip_cmd_tbl->opd2, p_xip_cmd_tbl->opd1
1844:../generate/drivers/r_spibsc/src/lld/r_spibsc_lld_rza2m.c ****                                       p_xip_cmd_tbl->opdata_width,  p_xip_cmd_tbl->opdata_output_en
1845:../generate/drivers/r_spibsc/src/lld/r_spibsc_lld_rza2m.c **** 
1846:../generate/drivers/r_spibsc/src/lld/r_spibsc_lld_rza2m.c ****         r_spibsc_xip_set_dummy_cycle(p_xip_cmd_tbl->dummy_cycle_count, p_xip_cmd_tbl->reserve3, p_x
1847:../generate/drivers/r_spibsc/src/lld/r_spibsc_lld_rza2m.c ****         r_spibsc_xip_set_datatransfer(p_xip_cmd_tbl->data_width, p_xip_cmd_tbl->data_ddr_enable);
1848:../generate/drivers/r_spibsc/src/lld/r_spibsc_lld_rza2m.c **** 
1849:../generate/drivers/r_spibsc/src/lld/r_spibsc_lld_rza2m.c ****     }
1850:../generate/drivers/r_spibsc/src/lld/r_spibsc_lld_rza2m.c **** 
1851:../generate/drivers/r_spibsc/src/lld/r_spibsc_lld_rza2m.c **** }
1852:../generate/drivers/r_spibsc/src/lld/r_spibsc_lld_rza2m.c **** /******************************************************************************
1853:../generate/drivers/r_spibsc/src/lld/r_spibsc_lld_rza2m.c ****  * End of function R_SPIBSC_ChangeMode
1854:../generate/drivers/r_spibsc/src/lld/r_spibsc_lld_rza2m.c ****  ******************************************************************************/
1855:../generate/drivers/r_spibsc/src/lld/r_spibsc_lld_rza2m.c **** 
1856:../generate/drivers/r_spibsc/src/lld/r_spibsc_lld_rza2m.c **** 
1857:../generate/drivers/r_spibsc/src/lld/r_spibsc_lld_rza2m.c **** /******************************************************************************
1858:../generate/drivers/r_spibsc/src/lld/r_spibsc_lld_rza2m.c **** * Function Name: R_SPIBSC_SPICMDIssue
1859:../generate/drivers/r_spibsc/src/lld/r_spibsc_lld_rza2m.c **** * Description  :
1860:../generate/drivers/r_spibsc/src/lld/r_spibsc_lld_rza2m.c **** * Arguments    : uint8_t  table_no
1861:../generate/drivers/r_spibsc/src/lld/r_spibsc_lld_rza2m.c **** *              : uint32_t addr
1862:../generate/drivers/r_spibsc/src/lld/r_spibsc_lld_rza2m.c **** *              : uint8_t  *p_write_buff
1863:../generate/drivers/r_spibsc/src/lld/r_spibsc_lld_rza2m.c **** *              : int32_t  write_size
1864:../generate/drivers/r_spibsc/src/lld/r_spibsc_lld_rza2m.c **** *              : uint8_t  *p_read_buff
1865:../generate/drivers/r_spibsc/src/lld/r_spibsc_lld_rza2m.c **** *              : int32_t  read_size
1866:../generate/drivers/r_spibsc/src/lld/r_spibsc_lld_rza2m.c **** * Return Value : e_spibsc_err_t
1867:../generate/drivers/r_spibsc/src/lld/r_spibsc_lld_rza2m.c **** ******************************************************************************/
1868:../generate/drivers/r_spibsc/src/lld/r_spibsc_lld_rza2m.c **** e_spibsc_err_t R_SPIBSC_SPICMDIssue( uint8_t table_no, uint32_t addr, uint8_t *p_write_buff, int32_
1869:../generate/drivers/r_spibsc/src/lld/r_spibsc_lld_rza2m.c ****                                     uint8_t *p_read_buff, int32_t read_size)
1870:../generate/drivers/r_spibsc/src/lld/r_spibsc_lld_rza2m.c **** 
1871:../generate/drivers/r_spibsc/src/lld/r_spibsc_lld_rza2m.c **** {
1872:../generate/drivers/r_spibsc/src/lld/r_spibsc_lld_rza2m.c **** 
1873:../generate/drivers/r_spibsc/src/lld/r_spibsc_lld_rza2m.c ****     const st_spibsc_manual_mode_command_config_t *p_spi_cmd_tbl = NULL;
1874:../generate/drivers/r_spibsc/src/lld/r_spibsc_lld_rza2m.c **** 
1875:../generate/drivers/r_spibsc/src/lld/r_spibsc_lld_rza2m.c ****     e_spibsc_err_t ret = SPIBSC_SUCCESS;
1876:../generate/drivers/r_spibsc/src/lld/r_spibsc_lld_rza2m.c **** 
1877:../generate/drivers/r_spibsc/src/lld/r_spibsc_lld_rza2m.c ****     /* Setting pointer to table for manual mode */
1878:../generate/drivers/r_spibsc/src/lld/r_spibsc_lld_rza2m.c ****     p_spi_cmd_tbl = &gs_command_table[table_no];
1879:../generate/drivers/r_spibsc/src/lld/r_spibsc_lld_rza2m.c **** 
1880:../generate/drivers/r_spibsc/src/lld/r_spibsc_lld_rza2m.c ****     /* ==== Set QSPIn_IOn output level ==== */
1881:../generate/drivers/r_spibsc/src/lld/r_spibsc_lld_rza2m.c ****     r_spibsc_qspi_io_set_output_level(
1882:../generate/drivers/r_spibsc/src/lld/r_spibsc_lld_rza2m.c ****         p_spi_cmd_tbl->cmncr_moiio3,
1883:../generate/drivers/r_spibsc/src/lld/r_spibsc_lld_rza2m.c ****         p_spi_cmd_tbl->cmncr_moiio2,
1884:../generate/drivers/r_spibsc/src/lld/r_spibsc_lld_rza2m.c ****         p_spi_cmd_tbl->cmncr_moiio1,
1885:../generate/drivers/r_spibsc/src/lld/r_spibsc_lld_rza2m.c ****         p_spi_cmd_tbl->cmncr_moiio0,
1886:../generate/drivers/r_spibsc/src/lld/r_spibsc_lld_rza2m.c ****         p_spi_cmd_tbl->cmncr_io3fv,
1887:../generate/drivers/r_spibsc/src/lld/r_spibsc_lld_rza2m.c ****         p_spi_cmd_tbl->cmncr_io2fv,
1888:../generate/drivers/r_spibsc/src/lld/r_spibsc_lld_rza2m.c ****         p_spi_cmd_tbl->cmncr_io0fv
1889:../generate/drivers/r_spibsc/src/lld/r_spibsc_lld_rza2m.c ****     );
1890:../generate/drivers/r_spibsc/src/lld/r_spibsc_lld_rza2m.c **** 
1891:../generate/drivers/r_spibsc/src/lld/r_spibsc_lld_rza2m.c ****     /* ==== Command ==== */
1892:../generate/drivers/r_spibsc/src/lld/r_spibsc_lld_rza2m.c ****     r_spibsc_manual_set_command(p_spi_cmd_tbl->cmd, p_spi_cmd_tbl->cmd_width, p_spi_cmd_tbl->cmd_ou
1893:../generate/drivers/r_spibsc/src/lld/r_spibsc_lld_rza2m.c **** 
1894:../generate/drivers/r_spibsc/src/lld/r_spibsc_lld_rza2m.c ****     /* ==== Optional Command ==== */
1895:../generate/drivers/r_spibsc/src/lld/r_spibsc_lld_rza2m.c ****     r_spibsc_manual_set_optional_command(p_spi_cmd_tbl->ocmd, p_spi_cmd_tbl->ocmd_width, p_spi_cmd_
1896:../generate/drivers/r_spibsc/src/lld/r_spibsc_lld_rza2m.c **** 
1897:../generate/drivers/r_spibsc/src/lld/r_spibsc_lld_rza2m.c ****     /* ==== Address ==== */
1898:../generate/drivers/r_spibsc/src/lld/r_spibsc_lld_rza2m.c ****     r_spibsc_manual_set_address(addr, p_spi_cmd_tbl->addr_width, p_spi_cmd_tbl->addr_output_enable,
1899:../generate/drivers/r_spibsc/src/lld/r_spibsc_lld_rza2m.c **** 
1900:../generate/drivers/r_spibsc/src/lld/r_spibsc_lld_rza2m.c ****     /* ==== Option Data ==== */
1901:../generate/drivers/r_spibsc/src/lld/r_spibsc_lld_rza2m.c ****     r_spibsc_manual_set_option_data( p_spi_cmd_tbl->opd3, p_spi_cmd_tbl->opd2, p_spi_cmd_tbl->opd1,
1902:../generate/drivers/r_spibsc/src/lld/r_spibsc_lld_rza2m.c ****                                      p_spi_cmd_tbl->opdata_width, p_spi_cmd_tbl->opdata_output_enab
1903:../generate/drivers/r_spibsc/src/lld/r_spibsc_lld_rza2m.c **** 
1904:../generate/drivers/r_spibsc/src/lld/r_spibsc_lld_rza2m.c ****     /* ==== Dummy Cycle ==== */
1905:../generate/drivers/r_spibsc/src/lld/r_spibsc_lld_rza2m.c ****     r_spibsc_manual_set_dummy_cycle(p_spi_cmd_tbl->dummy_cycle_count, p_spi_cmd_tbl->reserve3, p_sp
1906:../generate/drivers/r_spibsc/src/lld/r_spibsc_lld_rza2m.c **** 
1907:../generate/drivers/r_spibsc/src/lld/r_spibsc_lld_rza2m.c **** 
1908:../generate/drivers/r_spibsc/src/lld/r_spibsc_lld_rza2m.c **** 
1909:../generate/drivers/r_spibsc/src/lld/r_spibsc_lld_rza2m.c ****     /* command only */
1910:../generate/drivers/r_spibsc/src/lld/r_spibsc_lld_rza2m.c ****     if ( (0 == read_size) && (0 == write_size) )
1911:../generate/drivers/r_spibsc/src/lld/r_spibsc_lld_rza2m.c ****     {
1912:../generate/drivers/r_spibsc/src/lld/r_spibsc_lld_rza2m.c **** 
1913:../generate/drivers/r_spibsc/src/lld/r_spibsc_lld_rza2m.c ****         /* ==== Transfer Data ==== */
1914:../generate/drivers/r_spibsc/src/lld/r_spibsc_lld_rza2m.c ****         r_spibsc_manual_set_datatransfer( 0, /* no transterf */
1915:../generate/drivers/r_spibsc/src/lld/r_spibsc_lld_rza2m.c ****                                           p_spi_cmd_tbl->transfer_data_width,
1916:../generate/drivers/r_spibsc/src/lld/r_spibsc_lld_rza2m.c ****                                           0, /* write disable */
1917:../generate/drivers/r_spibsc/src/lld/r_spibsc_lld_rza2m.c ****                                           0, /* read  disable */
1918:../generate/drivers/r_spibsc/src/lld/r_spibsc_lld_rza2m.c ****                                           p_spi_cmd_tbl->transfer_data_sdr_ddr);
1919:../generate/drivers/r_spibsc/src/lld/r_spibsc_lld_rza2m.c **** 
1920:../generate/drivers/r_spibsc/src/lld/r_spibsc_lld_rza2m.c ****         /* ====  Start Transfer ==== */
1921:../generate/drivers/r_spibsc/src/lld/r_spibsc_lld_rza2m.c ****         r_spibsc_manual_start_transfer();
1922:../generate/drivers/r_spibsc/src/lld/r_spibsc_lld_rza2m.c **** 
1923:../generate/drivers/r_spibsc/src/lld/r_spibsc_lld_rza2m.c ****         /* ==== Waiting Tend ==== */
1924:../generate/drivers/r_spibsc/src/lld/r_spibsc_lld_rza2m.c ****         r_spibsc_wait_tend();
1925:../generate/drivers/r_spibsc/src/lld/r_spibsc_lld_rza2m.c ****     }
1926:../generate/drivers/r_spibsc/src/lld/r_spibsc_lld_rza2m.c **** 
1927:../generate/drivers/r_spibsc/src/lld/r_spibsc_lld_rza2m.c ****     /* read command */
1928:../generate/drivers/r_spibsc/src/lld/r_spibsc_lld_rza2m.c ****     else if ( (0 != read_size) && (0 == write_size) )
1929:../generate/drivers/r_spibsc/src/lld/r_spibsc_lld_rza2m.c ****     {
1930:../generate/drivers/r_spibsc/src/lld/r_spibsc_lld_rza2m.c ****         ret = r_spibsc_spi_cmd_issue_read( table_no, addr, p_read_buff, read_size );
1931:../generate/drivers/r_spibsc/src/lld/r_spibsc_lld_rza2m.c **** 
1932:../generate/drivers/r_spibsc/src/lld/r_spibsc_lld_rza2m.c ****     }
1933:../generate/drivers/r_spibsc/src/lld/r_spibsc_lld_rza2m.c **** 
1934:../generate/drivers/r_spibsc/src/lld/r_spibsc_lld_rza2m.c ****     /* write command */
1935:../generate/drivers/r_spibsc/src/lld/r_spibsc_lld_rza2m.c ****     else if( (0 != write_size) && (0 == read_size) )
1936:../generate/drivers/r_spibsc/src/lld/r_spibsc_lld_rza2m.c ****     {
1937:../generate/drivers/r_spibsc/src/lld/r_spibsc_lld_rza2m.c ****         r_spibsc_spi_cmd_issue_write( table_no, addr, p_write_buff, write_size );
1938:../generate/drivers/r_spibsc/src/lld/r_spibsc_lld_rza2m.c **** 
1939:../generate/drivers/r_spibsc/src/lld/r_spibsc_lld_rza2m.c ****     }
1940:../generate/drivers/r_spibsc/src/lld/r_spibsc_lld_rza2m.c **** 
1941:../generate/drivers/r_spibsc/src/lld/r_spibsc_lld_rza2m.c ****     return (ret);
1942:../generate/drivers/r_spibsc/src/lld/r_spibsc_lld_rza2m.c **** }
1943:../generate/drivers/r_spibsc/src/lld/r_spibsc_lld_rza2m.c **** /******************************************************************************
1944:../generate/drivers/r_spibsc/src/lld/r_spibsc_lld_rza2m.c ****  * End of function R_SPIBSC_SPICMDIssue
1945:../generate/drivers/r_spibsc/src/lld/r_spibsc_lld_rza2m.c ****  ******************************************************************************/
1946:../generate/drivers/r_spibsc/src/lld/r_spibsc_lld_rza2m.c **** 
1947:../generate/drivers/r_spibsc/src/lld/r_spibsc_lld_rza2m.c **** 
1948:../generate/drivers/r_spibsc/src/lld/r_spibsc_lld_rza2m.c **** /******************************************************************************
1949:../generate/drivers/r_spibsc/src/lld/r_spibsc_lld_rza2m.c **** * Function Name: r_spibsc_spi_cmd_issue_read
1950:../generate/drivers/r_spibsc/src/lld/r_spibsc_lld_rza2m.c **** * Description  :
1951:../generate/drivers/r_spibsc/src/lld/r_spibsc_lld_rza2m.c **** * Arguments    : uint8_t  table_no
1952:../generate/drivers/r_spibsc/src/lld/r_spibsc_lld_rza2m.c **** *              : uint32_t addr
1953:../generate/drivers/r_spibsc/src/lld/r_spibsc_lld_rza2m.c **** *              : uint8_t  *p_read_buff
1954:../generate/drivers/r_spibsc/src/lld/r_spibsc_lld_rza2m.c **** *              : int32_t  read_size
1955:../generate/drivers/r_spibsc/src/lld/r_spibsc_lld_rza2m.c **** * Return Value : e_spibsc_err_t
1956:../generate/drivers/r_spibsc/src/lld/r_spibsc_lld_rza2m.c **** ******************************************************************************/
1957:../generate/drivers/r_spibsc/src/lld/r_spibsc_lld_rza2m.c **** static e_spibsc_err_t r_spibsc_spi_cmd_issue_read( uint8_t table_no, uint32_t addr, uint8_t *p_read
1958:../generate/drivers/r_spibsc/src/lld/r_spibsc_lld_rza2m.c **** 
1959:../generate/drivers/r_spibsc/src/lld/r_spibsc_lld_rza2m.c **** {
 2461              		.loc 1 1959 0
 2462              		.cfi_startproc
 2463              		@ args = 0, pretend = 0, frame = 16
 2464              		@ frame_needed = 0, uses_anonymous_args = 0
 2465              	.LVL277:
 2466 0000 F04F2DE9 		push	{r4, r5, r6, r7, r8, r9, r10, fp, lr}
 2467              		.cfi_def_cfa_offset 36
 2468              		.cfi_offset 4, -36
 2469              		.cfi_offset 5, -32
 2470              		.cfi_offset 6, -28
 2471              		.cfi_offset 7, -24
 2472              		.cfi_offset 8, -20
 2473              		.cfi_offset 9, -16
 2474              		.cfi_offset 10, -12
 2475              		.cfi_offset 11, -8
 2476              		.cfi_offset 14, -4
 2477 0004 1CD04DE2 		sub	sp, sp, #28
 2478              		.cfi_def_cfa_offset 64
 2479 0008 0190A0E1 		mov	r9, r1
 2480 000c 0260A0E1 		mov	r6, r2
 2481 0010 0350A0E1 		mov	r5, r3
 2482              	.LVL278:
1960:../generate/drivers/r_spibsc/src/lld/r_spibsc_lld_rza2m.c **** 
1961:../generate/drivers/r_spibsc/src/lld/r_spibsc_lld_rza2m.c ****     const st_spibsc_manual_mode_command_config_t *p_spi_cmd_tbl = NULL;
1962:../generate/drivers/r_spibsc/src/lld/r_spibsc_lld_rza2m.c **** 
1963:../generate/drivers/r_spibsc/src/lld/r_spibsc_lld_rza2m.c ****     uint8_t transfer_unit = 0x8;  /* 8bit transfer */
1964:../generate/drivers/r_spibsc/src/lld/r_spibsc_lld_rza2m.c ****     uint8_t read_size_3_flag = 0; /* read_size 3 flag */
1965:../generate/drivers/r_spibsc/src/lld/r_spibsc_lld_rza2m.c ****     uint32_t addr_out_enable = 0; /* address output enable */
1966:../generate/drivers/r_spibsc/src/lld/r_spibsc_lld_rza2m.c ****     int32_t n;
1967:../generate/drivers/r_spibsc/src/lld/r_spibsc_lld_rza2m.c ****     int32_t read_buf_set_size;
1968:../generate/drivers/r_spibsc/src/lld/r_spibsc_lld_rza2m.c ****     int32_t unit = 0;
1969:../generate/drivers/r_spibsc/src/lld/r_spibsc_lld_rza2m.c ****     uint32_t reg_l = 0;
 2483              		.loc 1 1969 0
 2484 0014 0040A0E3 		mov	r4, #0
 2485 0018 14408DE5 		str	r4, [sp, #20]
 2486              	.LVL279:
1970:../generate/drivers/r_spibsc/src/lld/r_spibsc_lld_rza2m.c ****     uint8_t  *p_buf_b = NULL;
1971:../generate/drivers/r_spibsc/src/lld/r_spibsc_lld_rza2m.c ****     uint8_t  *p_reg_b = NULL;
1972:../generate/drivers/r_spibsc/src/lld/r_spibsc_lld_rza2m.c **** 
1973:../generate/drivers/r_spibsc/src/lld/r_spibsc_lld_rza2m.c ****     /* Setting pointer to table for manual mode */
1974:../generate/drivers/r_spibsc/src/lld/r_spibsc_lld_rza2m.c ****     p_spi_cmd_tbl = &gs_command_table[table_no];
 2487              		.loc 1 1974 0
 2488 001c 00B0A0E1 		mov	fp, r0
 2489              	.LVL280:
1975:../generate/drivers/r_spibsc/src/lld/r_spibsc_lld_rza2m.c **** 
1976:../generate/drivers/r_spibsc/src/lld/r_spibsc_lld_rza2m.c ****     /* ==== Get SPIBSC_SMENR.ADE ==== */
1977:../generate/drivers/r_spibsc/src/lld/r_spibsc_lld_rza2m.c ****     addr_out_enable = spibsc_io_reg_read_32(&SPIBSC.SMENR.LONG, SPIBSC_SMENR_ADE_SHIFT, SPIBSC_SMEN
 2490              		.loc 1 1977 0
 2491 0020 0F2CA0E3 		mov	r2, #3840
 2492              	.LVL281:
 2493 0024 0810A0E3 		mov	r1, #8
 2494              	.LVL282:
 2495 0028 3000A0E3 		mov	r0, #48
 2496              	.LVL283:
 2497 002c 800F41E3 		movt	r0, 8064
 2498 0030 FEFFFFEB 		bl	spibsc_io_reg_read_32
 2499              	.LVL284:
 2500 0034 00A0A0E1 		mov	r10, r0
 2501              	.LVL285:
1964:../generate/drivers/r_spibsc/src/lld/r_spibsc_lld_rza2m.c ****     uint32_t addr_out_enable = 0; /* address output enable */
 2502              		.loc 1 1964 0
 2503 0038 0C408DE5 		str	r4, [sp, #12]
1978:../generate/drivers/r_spibsc/src/lld/r_spibsc_lld_rza2m.c **** 
1979:../generate/drivers/r_spibsc/src/lld/r_spibsc_lld_rza2m.c ****     /* Pointer setting of read buffer */
1980:../generate/drivers/r_spibsc/src/lld/r_spibsc_lld_rza2m.c ****     p_buf_b = p_read_buff;
1981:../generate/drivers/r_spibsc/src/lld/r_spibsc_lld_rza2m.c ****     
1982:../generate/drivers/r_spibsc/src/lld/r_spibsc_lld_rza2m.c ****     /* The remaining number of bytes? */
1983:../generate/drivers/r_spibsc/src/lld/r_spibsc_lld_rza2m.c ****     while ( 0 < read_size )
 2504              		.loc 1 1983 0
 2505 003c 320000EA 		b	.L171
 2506              	.LVL286:
 2507              	.L184:
1984:../generate/drivers/r_spibsc/src/lld/r_spibsc_lld_rza2m.c ****     {
1985:../generate/drivers/r_spibsc/src/lld/r_spibsc_lld_rza2m.c **** 
1986:../generate/drivers/r_spibsc/src/lld/r_spibsc_lld_rza2m.c ****         /* Rounding processing when the register read byte is 3. */
1987:../generate/drivers/r_spibsc/src/lld/r_spibsc_lld_rza2m.c ****         if ( SPIBSC_OUTPUT_DISABLE == addr_out_enable )
1988:../generate/drivers/r_spibsc/src/lld/r_spibsc_lld_rza2m.c ****         {
1989:../generate/drivers/r_spibsc/src/lld/r_spibsc_lld_rza2m.c ****             /* register access */
1990:../generate/drivers/r_spibsc/src/lld/r_spibsc_lld_rza2m.c ****             if ( 5 <= read_size )
1991:../generate/drivers/r_spibsc/src/lld/r_spibsc_lld_rza2m.c ****             {
1992:../generate/drivers/r_spibsc/src/lld/r_spibsc_lld_rza2m.c ****                 return (SPIBSC_ERR_INVALID);
1993:../generate/drivers/r_spibsc/src/lld/r_spibsc_lld_rza2m.c ****             }
1994:../generate/drivers/r_spibsc/src/lld/r_spibsc_lld_rza2m.c ****             else if ( 3 == read_size )
1995:../generate/drivers/r_spibsc/src/lld/r_spibsc_lld_rza2m.c ****             {
1996:../generate/drivers/r_spibsc/src/lld/r_spibsc_lld_rza2m.c ****                 read_size = 4;
1997:../generate/drivers/r_spibsc/src/lld/r_spibsc_lld_rza2m.c ****                 read_size_3_flag = 1;
 2508              		.loc 1 1997 0
 2509 0040 0130A0E3 		mov	r3, #1
 2510 0044 0C308DE5 		str	r3, [sp, #12]
 2511              	.LVL287:
1996:../generate/drivers/r_spibsc/src/lld/r_spibsc_lld_rza2m.c ****                 read_size_3_flag = 1;
 2512              		.loc 1 1996 0
 2513 0048 0450A0E3 		mov	r5, #4
 2514              	.LVL288:
 2515 004c 380000EA 		b	.L174
 2516              	.LVL289:
 2517              	.L185:
1998:../generate/drivers/r_spibsc/src/lld/r_spibsc_lld_rza2m.c ****             }
1999:../generate/drivers/r_spibsc/src/lld/r_spibsc_lld_rza2m.c ****             else
2000:../generate/drivers/r_spibsc/src/lld/r_spibsc_lld_rza2m.c ****             {
2001:../generate/drivers/r_spibsc/src/lld/r_spibsc_lld_rza2m.c ****                 /* Do Nothing */
2002:../generate/drivers/r_spibsc/src/lld/r_spibsc_lld_rza2m.c ****             }
2003:../generate/drivers/r_spibsc/src/lld/r_spibsc_lld_rza2m.c ****         }
2004:../generate/drivers/r_spibsc/src/lld/r_spibsc_lld_rza2m.c ****         else
2005:../generate/drivers/r_spibsc/src/lld/r_spibsc_lld_rza2m.c ****         {
2006:../generate/drivers/r_spibsc/src/lld/r_spibsc_lld_rza2m.c ****             /* memory access */
2007:../generate/drivers/r_spibsc/src/lld/r_spibsc_lld_rza2m.c ****             /* Do Nothing */
2008:../generate/drivers/r_spibsc/src/lld/r_spibsc_lld_rza2m.c ****         }
2009:../generate/drivers/r_spibsc/src/lld/r_spibsc_lld_rza2m.c ****         
2010:../generate/drivers/r_spibsc/src/lld/r_spibsc_lld_rza2m.c ****         /* Calculate the transfer bit width from the remaining number of read bytes. */
2011:../generate/drivers/r_spibsc/src/lld/r_spibsc_lld_rza2m.c ****         if ( 4 <= read_size )
2012:../generate/drivers/r_spibsc/src/lld/r_spibsc_lld_rza2m.c ****         {
2013:../generate/drivers/r_spibsc/src/lld/r_spibsc_lld_rza2m.c ****             transfer_unit = SPIBSC_MANUAL_32BIT_TRANSFERRED;
2014:../generate/drivers/r_spibsc/src/lld/r_spibsc_lld_rza2m.c ****             unit = 4;
2015:../generate/drivers/r_spibsc/src/lld/r_spibsc_lld_rza2m.c ****             
2016:../generate/drivers/r_spibsc/src/lld/r_spibsc_lld_rza2m.c ****             /* When the number of register read bytes is 3, */
2017:../generate/drivers/r_spibsc/src/lld/r_spibsc_lld_rza2m.c ****             /* after setting 4 bytes of data transfer byte, */
2018:../generate/drivers/r_spibsc/src/lld/r_spibsc_lld_rza2m.c ****             /* value of read_size is returned to 3.         */
2019:../generate/drivers/r_spibsc/src/lld/r_spibsc_lld_rza2m.c ****             if ( 1 == read_size_3_flag )
2020:../generate/drivers/r_spibsc/src/lld/r_spibsc_lld_rza2m.c ****             {
2021:../generate/drivers/r_spibsc/src/lld/r_spibsc_lld_rza2m.c ****                 read_size_3_flag = 0;
2022:../generate/drivers/r_spibsc/src/lld/r_spibsc_lld_rza2m.c ****                 read_size = 3;
2023:../generate/drivers/r_spibsc/src/lld/r_spibsc_lld_rza2m.c ****             }
2024:../generate/drivers/r_spibsc/src/lld/r_spibsc_lld_rza2m.c ****             else
2025:../generate/drivers/r_spibsc/src/lld/r_spibsc_lld_rza2m.c ****             {
2026:../generate/drivers/r_spibsc/src/lld/r_spibsc_lld_rza2m.c ****             /* Do Nothing */
2027:../generate/drivers/r_spibsc/src/lld/r_spibsc_lld_rza2m.c ****             }
2028:../generate/drivers/r_spibsc/src/lld/r_spibsc_lld_rza2m.c ****         }
2029:../generate/drivers/r_spibsc/src/lld/r_spibsc_lld_rza2m.c ****         else
2030:../generate/drivers/r_spibsc/src/lld/r_spibsc_lld_rza2m.c ****         {
2031:../generate/drivers/r_spibsc/src/lld/r_spibsc_lld_rza2m.c ****             transfer_unit = SPIBSC_MANUAL_8BIT_TRANSFERRED;
2032:../generate/drivers/r_spibsc/src/lld/r_spibsc_lld_rza2m.c ****             unit = 1;
 2518              		.loc 1 2032 0
 2519 0050 0170A0E3 		mov	r7, #1
2031:../generate/drivers/r_spibsc/src/lld/r_spibsc_lld_rza2m.c ****             unit = 1;
 2520              		.loc 1 2031 0
 2521 0054 0880A0E3 		mov	r8, #8
 2522              	.LVL290:
 2523              	.L175:
2033:../generate/drivers/r_spibsc/src/lld/r_spibsc_lld_rza2m.c ****         }
2034:../generate/drivers/r_spibsc/src/lld/r_spibsc_lld_rza2m.c **** 
2035:../generate/drivers/r_spibsc/src/lld/r_spibsc_lld_rza2m.c ****         /* ==== Address ==== */
2036:../generate/drivers/r_spibsc/src/lld/r_spibsc_lld_rza2m.c ****         r_spibsc_manual_set_address(addr, p_spi_cmd_tbl->addr_width, p_spi_cmd_tbl->addr_output_ena
 2524              		.loc 1 2036 0
 2525 0058 003000E3 		movw	r3, #:lower16:.LANCHOR0
 2526 005c 003040E3 		movt	r3, #:upper16:.LANCHOR0
 2527 0060 3240A0E3 		mov	r4, #50
 2528 0064 943B24E0 		mla	r4, r4, fp, r3
 2529 0068 1C30D4E5 		ldrb	r3, [r4, #28]	@ zero_extendqisi2
 2530 006c 1B20D4E5 		ldrb	r2, [r4, #27]	@ zero_extendqisi2
 2531 0070 1A10D4E5 		ldrb	r1, [r4, #26]	@ zero_extendqisi2
 2532 0074 0900A0E1 		mov	r0, r9
 2533 0078 FEFFFFEB 		bl	r_spibsc_manual_set_address
 2534              	.LVL291:
2037:../generate/drivers/r_spibsc/src/lld/r_spibsc_lld_rza2m.c **** 
2038:../generate/drivers/r_spibsc/src/lld/r_spibsc_lld_rza2m.c ****         /* ==== Transfer Data ==== */
2039:../generate/drivers/r_spibsc/src/lld/r_spibsc_lld_rza2m.c ****         r_spibsc_manual_set_datatransfer( transfer_unit,
 2535              		.loc 1 2039 0
 2536 007c 2710D4E5 		ldrb	r1, [r4, #39]	@ zero_extendqisi2
 2537 0080 2830D4E5 		ldrb	r3, [r4, #40]	@ zero_extendqisi2
 2538 0084 00308DE5 		str	r3, [sp]
 2539 0088 0130A0E3 		mov	r3, #1
 2540 008c 0020A0E3 		mov	r2, #0
 2541 0090 0800A0E1 		mov	r0, r8
 2542 0094 FEFFFFEB 		bl	r_spibsc_manual_set_datatransfer
 2543              	.LVL292:
2040:../generate/drivers/r_spibsc/src/lld/r_spibsc_lld_rza2m.c ****                                           p_spi_cmd_tbl->transfer_data_width,
2041:../generate/drivers/r_spibsc/src/lld/r_spibsc_lld_rza2m.c ****                                           0, /* write disable */
2042:../generate/drivers/r_spibsc/src/lld/r_spibsc_lld_rza2m.c ****                                           1, /* read  enable  */
2043:../generate/drivers/r_spibsc/src/lld/r_spibsc_lld_rza2m.c ****                                           p_spi_cmd_tbl->transfer_data_sdr_ddr);
2044:../generate/drivers/r_spibsc/src/lld/r_spibsc_lld_rza2m.c **** 
2045:../generate/drivers/r_spibsc/src/lld/r_spibsc_lld_rza2m.c ****         /* ====  Start Transfer ==== */
2046:../generate/drivers/r_spibsc/src/lld/r_spibsc_lld_rza2m.c ****         r_spibsc_manual_start_transfer();
 2544              		.loc 1 2046 0
 2545 0098 FEFFFFEB 		bl	r_spibsc_manual_start_transfer
 2546              	.LVL293:
2047:../generate/drivers/r_spibsc/src/lld/r_spibsc_lld_rza2m.c **** 
2048:../generate/drivers/r_spibsc/src/lld/r_spibsc_lld_rza2m.c ****         /* ==== Waiting Tend ==== */
2049:../generate/drivers/r_spibsc/src/lld/r_spibsc_lld_rza2m.c ****         r_spibsc_wait_tend();
 2547              		.loc 1 2049 0
 2548 009c FEFFFFEB 		bl	r_spibsc_wait_tend
 2549              	.LVL294:
2050:../generate/drivers/r_spibsc/src/lld/r_spibsc_lld_rza2m.c **** 
2051:../generate/drivers/r_spibsc/src/lld/r_spibsc_lld_rza2m.c ****         /* Calculation of read buffer setting byte count */
2052:../generate/drivers/r_spibsc/src/lld/r_spibsc_lld_rza2m.c ****         if ( unit > read_size )
 2550              		.loc 1 2052 0
 2551 00a0 070055E1 		cmp	r5, r7
 2552 00a4 0F0000AA 		bge	.L187
2053:../generate/drivers/r_spibsc/src/lld/r_spibsc_lld_rza2m.c ****         {
2054:../generate/drivers/r_spibsc/src/lld/r_spibsc_lld_rza2m.c ****             read_buf_set_size = read_size;
 2553              		.loc 1 2054 0
 2554 00a8 0540A0E1 		mov	r4, r5
 2555              	.L176:
 2556              	.LVL295:
2055:../generate/drivers/r_spibsc/src/lld/r_spibsc_lld_rza2m.c ****         }
2056:../generate/drivers/r_spibsc/src/lld/r_spibsc_lld_rza2m.c ****         else
2057:../generate/drivers/r_spibsc/src/lld/r_spibsc_lld_rza2m.c ****         {
2058:../generate/drivers/r_spibsc/src/lld/r_spibsc_lld_rza2m.c ****             read_buf_set_size = unit;
2059:../generate/drivers/r_spibsc/src/lld/r_spibsc_lld_rza2m.c ****         }
2060:../generate/drivers/r_spibsc/src/lld/r_spibsc_lld_rza2m.c **** 
2061:../generate/drivers/r_spibsc/src/lld/r_spibsc_lld_rza2m.c ****         /* The read register is read according to the transfer bit width and stored in the read buf
2062:../generate/drivers/r_spibsc/src/lld/r_spibsc_lld_rza2m.c ****         switch( transfer_unit )
 2557              		.loc 1 2062 0
 2558 00ac 080058E3 		cmp	r8, #8
 2559 00b0 2500000A 		beq	.L178
 2560 00b4 0F0058E3 		cmp	r8, #15
 2561 00b8 1100001A 		bne	.L177
2063:../generate/drivers/r_spibsc/src/lld/r_spibsc_lld_rza2m.c ****         {
2064:../generate/drivers/r_spibsc/src/lld/r_spibsc_lld_rza2m.c ****             case SPIBSC_MANUAL_32BIT_TRANSFERRED:
2065:../generate/drivers/r_spibsc/src/lld/r_spibsc_lld_rza2m.c ****             {
2066:../generate/drivers/r_spibsc/src/lld/r_spibsc_lld_rza2m.c ****                 reg_l = r_spibsc_manual_read_data0_32();
 2562              		.loc 1 2066 0
 2563 00bc FEFFFFEB 		bl	r_spibsc_manual_read_data0_32
 2564              	.LVL296:
 2565 00c0 18208DE2 		add	r2, sp, #24
 2566 00c4 040022E5 		str	r0, [r2, #-4]!
 2567              	.LVL297:
2067:../generate/drivers/r_spibsc/src/lld/r_spibsc_lld_rza2m.c ****                 p_reg_b = (uint8_t*)&reg_l;
2068:../generate/drivers/r_spibsc/src/lld/r_spibsc_lld_rza2m.c ****                 
2069:../generate/drivers/r_spibsc/src/lld/r_spibsc_lld_rza2m.c ****                 /* Divided into bytes and copied */
2070:../generate/drivers/r_spibsc/src/lld/r_spibsc_lld_rza2m.c ****                 for ( n = 0; n < read_buf_set_size; n++)
 2568              		.loc 1 2070 0
 2569 00c8 0030A0E3 		mov	r3, #0
 2570 00cc 0A0000EA 		b	.L180
 2571              	.LVL298:
 2572              	.L186:
2014:../generate/drivers/r_spibsc/src/lld/r_spibsc_lld_rza2m.c ****             
 2573              		.loc 1 2014 0
 2574 00d0 0470A0E3 		mov	r7, #4
2021:../generate/drivers/r_spibsc/src/lld/r_spibsc_lld_rza2m.c ****                 read_size = 3;
 2575              		.loc 1 2021 0
 2576 00d4 0030A0E3 		mov	r3, #0
 2577 00d8 0C308DE5 		str	r3, [sp, #12]
2013:../generate/drivers/r_spibsc/src/lld/r_spibsc_lld_rza2m.c ****             unit = 4;
 2578              		.loc 1 2013 0
 2579 00dc 0F80A0E3 		mov	r8, #15
2022:../generate/drivers/r_spibsc/src/lld/r_spibsc_lld_rza2m.c ****             }
 2580              		.loc 1 2022 0
 2581 00e0 0350A0E3 		mov	r5, #3
 2582 00e4 DBFFFFEA 		b	.L175
 2583              	.LVL299:
 2584              	.L187:
2058:../generate/drivers/r_spibsc/src/lld/r_spibsc_lld_rza2m.c ****         }
 2585              		.loc 1 2058 0
 2586 00e8 0740A0E1 		mov	r4, r7
 2587 00ec EEFFFFEA 		b	.L176
 2588              	.LVL300:
 2589              	.L181:
2071:../generate/drivers/r_spibsc/src/lld/r_spibsc_lld_rza2m.c ****                 {
2072:../generate/drivers/r_spibsc/src/lld/r_spibsc_lld_rza2m.c ****                     *p_buf_b = *p_reg_b;
 2590              		.loc 1 2072 0 discriminator 3
 2591 00f0 0110D2E4 		ldrb	r1, [r2], #1	@ zero_extendqisi2
 2592              	.LVL301:
 2593 00f4 0110C6E4 		strb	r1, [r6], #1
 2594              	.LVL302:
2070:../generate/drivers/r_spibsc/src/lld/r_spibsc_lld_rza2m.c ****                 {
 2595              		.loc 1 2070 0 discriminator 3
 2596 00f8 013083E2 		add	r3, r3, #1
 2597              	.LVL303:
 2598              	.L180:
2070:../generate/drivers/r_spibsc/src/lld/r_spibsc_lld_rza2m.c ****                 {
 2599              		.loc 1 2070 0 is_stmt 0 discriminator 1
 2600 00fc 040053E1 		cmp	r3, r4
 2601 0100 FAFFFFBA 		blt	.L181
 2602              	.LVL304:
 2603              	.L177:
2073:../generate/drivers/r_spibsc/src/lld/r_spibsc_lld_rza2m.c ****                     p_buf_b++;
2074:../generate/drivers/r_spibsc/src/lld/r_spibsc_lld_rza2m.c ****                     p_reg_b++;
2075:../generate/drivers/r_spibsc/src/lld/r_spibsc_lld_rza2m.c ****                 }
2076:../generate/drivers/r_spibsc/src/lld/r_spibsc_lld_rza2m.c ****                 break;
2077:../generate/drivers/r_spibsc/src/lld/r_spibsc_lld_rza2m.c ****             }
2078:../generate/drivers/r_spibsc/src/lld/r_spibsc_lld_rza2m.c ****             case SPIBSC_MANUAL_8BIT_TRANSFERRED:
2079:../generate/drivers/r_spibsc/src/lld/r_spibsc_lld_rza2m.c ****             {
2080:../generate/drivers/r_spibsc/src/lld/r_spibsc_lld_rza2m.c ****                 /* Divided into bytes and copied */
2081:../generate/drivers/r_spibsc/src/lld/r_spibsc_lld_rza2m.c ****                 *p_buf_b = r_spibsc_manual_read_data0_8();
2082:../generate/drivers/r_spibsc/src/lld/r_spibsc_lld_rza2m.c ****                 p_buf_b++;
2083:../generate/drivers/r_spibsc/src/lld/r_spibsc_lld_rza2m.c **** 
2084:../generate/drivers/r_spibsc/src/lld/r_spibsc_lld_rza2m.c ****                 break;
2085:../generate/drivers/r_spibsc/src/lld/r_spibsc_lld_rza2m.c ****             }
2086:../generate/drivers/r_spibsc/src/lld/r_spibsc_lld_rza2m.c ****             default:
2087:../generate/drivers/r_spibsc/src/lld/r_spibsc_lld_rza2m.c ****             {
2088:../generate/drivers/r_spibsc/src/lld/r_spibsc_lld_rza2m.c ****                 /* Do Nothing */
2089:../generate/drivers/r_spibsc/src/lld/r_spibsc_lld_rza2m.c ****                 break;
2090:../generate/drivers/r_spibsc/src/lld/r_spibsc_lld_rza2m.c ****             }
2091:../generate/drivers/r_spibsc/src/lld/r_spibsc_lld_rza2m.c ****         }
2092:../generate/drivers/r_spibsc/src/lld/r_spibsc_lld_rza2m.c **** 
2093:../generate/drivers/r_spibsc/src/lld/r_spibsc_lld_rza2m.c ****         read_size -= unit;
 2604              		.loc 1 2093 0 is_stmt 1
 2605 0104 075045E0 		sub	r5, r5, r7
 2606              	.LVL305:
2094:../generate/drivers/r_spibsc/src/lld/r_spibsc_lld_rza2m.c ****         addr += (uint32_t)unit;
 2607              		.loc 1 2094 0
 2608 0108 079089E0 		add	r9, r9, r7
 2609              	.LVL306:
 2610              	.L171:
1983:../generate/drivers/r_spibsc/src/lld/r_spibsc_lld_rza2m.c ****     {
 2611              		.loc 1 1983 0
 2612 010c 000055E3 		cmp	r5, #0
 2613 0110 100000DA 		ble	.L189
1987:../generate/drivers/r_spibsc/src/lld/r_spibsc_lld_rza2m.c ****         {
 2614              		.loc 1 1987 0
 2615 0114 00005AE3 		cmp	r10, #0
 2616 0118 0300001A 		bne	.L172
1990:../generate/drivers/r_spibsc/src/lld/r_spibsc_lld_rza2m.c ****             {
 2617              		.loc 1 1990 0
 2618 011c 040055E3 		cmp	r5, #4
 2619 0120 0F0000CA 		bgt	.L183
1994:../generate/drivers/r_spibsc/src/lld/r_spibsc_lld_rza2m.c ****             {
 2620              		.loc 1 1994 0
 2621 0124 030055E3 		cmp	r5, #3
 2622 0128 C4FFFF0A 		beq	.L184
 2623              	.L172:
2011:../generate/drivers/r_spibsc/src/lld/r_spibsc_lld_rza2m.c ****         {
 2624              		.loc 1 2011 0
 2625 012c 030055E3 		cmp	r5, #3
 2626 0130 C6FFFFDA 		ble	.L185
 2627              	.LVL307:
 2628              	.L174:
2019:../generate/drivers/r_spibsc/src/lld/r_spibsc_lld_rza2m.c ****             {
 2629              		.loc 1 2019 0
 2630 0134 0C309DE5 		ldr	r3, [sp, #12]
 2631 0138 010053E3 		cmp	r3, #1
 2632 013c E3FFFF0A 		beq	.L186
2014:../generate/drivers/r_spibsc/src/lld/r_spibsc_lld_rza2m.c ****             
 2633              		.loc 1 2014 0
 2634 0140 0470A0E3 		mov	r7, #4
2013:../generate/drivers/r_spibsc/src/lld/r_spibsc_lld_rza2m.c ****             unit = 4;
 2635              		.loc 1 2013 0
 2636 0144 0F80A0E3 		mov	r8, #15
 2637 0148 C2FFFFEA 		b	.L175
 2638              	.LVL308:
 2639              	.L178:
2081:../generate/drivers/r_spibsc/src/lld/r_spibsc_lld_rza2m.c ****                 p_buf_b++;
 2640              		.loc 1 2081 0
 2641 014c FEFFFFEB 		bl	r_spibsc_manual_read_data0_8
 2642              	.LVL309:
 2643 0150 0100C6E4 		strb	r0, [r6], #1
 2644              	.LVL310:
2084:../generate/drivers/r_spibsc/src/lld/r_spibsc_lld_rza2m.c ****             }
 2645              		.loc 1 2084 0
 2646 0154 EAFFFFEA 		b	.L177
 2647              	.LVL311:
 2648              	.L189:
2095:../generate/drivers/r_spibsc/src/lld/r_spibsc_lld_rza2m.c **** 
2096:../generate/drivers/r_spibsc/src/lld/r_spibsc_lld_rza2m.c ****     }
2097:../generate/drivers/r_spibsc/src/lld/r_spibsc_lld_rza2m.c **** 
2098:../generate/drivers/r_spibsc/src/lld/r_spibsc_lld_rza2m.c ****     return (SPIBSC_SUCCESS);
 2649              		.loc 1 2098 0
 2650 0158 0000A0E3 		mov	r0, #0
 2651              	.L173:
2099:../generate/drivers/r_spibsc/src/lld/r_spibsc_lld_rza2m.c **** }
 2652              		.loc 1 2099 0
 2653 015c 1CD08DE2 		add	sp, sp, #28
 2654              		.cfi_remember_state
 2655              		.cfi_def_cfa_offset 36
 2656              		@ sp needed
 2657 0160 F08FBDE8 		pop	{r4, r5, r6, r7, r8, r9, r10, fp, pc}
 2658              	.LVL312:
 2659              	.L183:
 2660              		.cfi_restore_state
1992:../generate/drivers/r_spibsc/src/lld/r_spibsc_lld_rza2m.c ****             }
 2661              		.loc 1 1992 0
 2662 0164 0000E0E3 		mvn	r0, #0
 2663 0168 FBFFFFEA 		b	.L173
 2664              		.cfi_endproc
 2665              	.LFE47:
 2667              		.section	.text.r_spibsc_spi_cmd_issue_write,"ax",%progbits
 2668              		.align	2
 2669              		.syntax unified
 2670              		.arm
 2671              		.fpu neon
 2673              	r_spibsc_spi_cmd_issue_write:
 2674              	.LFB48:
2100:../generate/drivers/r_spibsc/src/lld/r_spibsc_lld_rza2m.c **** /******************************************************************************
2101:../generate/drivers/r_spibsc/src/lld/r_spibsc_lld_rza2m.c ****  * End of function r_spibsc_spi_cmd_issue_read
2102:../generate/drivers/r_spibsc/src/lld/r_spibsc_lld_rza2m.c ****  ******************************************************************************/
2103:../generate/drivers/r_spibsc/src/lld/r_spibsc_lld_rza2m.c **** 
2104:../generate/drivers/r_spibsc/src/lld/r_spibsc_lld_rza2m.c **** 
2105:../generate/drivers/r_spibsc/src/lld/r_spibsc_lld_rza2m.c **** /******************************************************************************
2106:../generate/drivers/r_spibsc/src/lld/r_spibsc_lld_rza2m.c **** * Function Name: r_spibsc_spi_cmd_issue_write
2107:../generate/drivers/r_spibsc/src/lld/r_spibsc_lld_rza2m.c **** * Description  :
2108:../generate/drivers/r_spibsc/src/lld/r_spibsc_lld_rza2m.c **** * Arguments    : uint8_t  table_no
2109:../generate/drivers/r_spibsc/src/lld/r_spibsc_lld_rza2m.c **** *              : uint32_t addr
2110:../generate/drivers/r_spibsc/src/lld/r_spibsc_lld_rza2m.c **** *              : uint8_t  *p_write_buff
2111:../generate/drivers/r_spibsc/src/lld/r_spibsc_lld_rza2m.c **** *              : int32_t  write_size
2112:../generate/drivers/r_spibsc/src/lld/r_spibsc_lld_rza2m.c **** * Return Value : e_spibsc_err_t
2113:../generate/drivers/r_spibsc/src/lld/r_spibsc_lld_rza2m.c **** ******************************************************************************/
2114:../generate/drivers/r_spibsc/src/lld/r_spibsc_lld_rza2m.c **** static e_spibsc_err_t r_spibsc_spi_cmd_issue_write( uint8_t table_no, uint32_t addr, uint8_t *p_wri
2115:../generate/drivers/r_spibsc/src/lld/r_spibsc_lld_rza2m.c **** 
2116:../generate/drivers/r_spibsc/src/lld/r_spibsc_lld_rza2m.c **** {
 2675              		.loc 1 2116 0
 2676              		.cfi_startproc
 2677              		@ args = 0, pretend = 0, frame = 0
 2678              		@ frame_needed = 0, uses_anonymous_args = 0
 2679              	.LVL313:
 2680 0000 F04F2DE9 		push	{r4, r5, r6, r7, r8, r9, r10, fp, lr}
 2681              		.cfi_def_cfa_offset 36
 2682              		.cfi_offset 4, -36
 2683              		.cfi_offset 5, -32
 2684              		.cfi_offset 6, -28
 2685              		.cfi_offset 7, -24
 2686              		.cfi_offset 8, -20
 2687              		.cfi_offset 9, -16
 2688              		.cfi_offset 10, -12
 2689              		.cfi_offset 11, -8
 2690              		.cfi_offset 14, -4
 2691 0004 14D04DE2 		sub	sp, sp, #20
 2692              		.cfi_def_cfa_offset 56
 2693 0008 0180A0E1 		mov	r8, r1
 2694 000c 0290A0E1 		mov	r9, r2
 2695 0010 0340A0E1 		mov	r4, r3
 2696              	.LVL314:
2117:../generate/drivers/r_spibsc/src/lld/r_spibsc_lld_rza2m.c **** 
2118:../generate/drivers/r_spibsc/src/lld/r_spibsc_lld_rza2m.c ****     const st_spibsc_manual_mode_command_config_t *p_spi_cmd_tbl = NULL;
2119:../generate/drivers/r_spibsc/src/lld/r_spibsc_lld_rza2m.c **** 
2120:../generate/drivers/r_spibsc/src/lld/r_spibsc_lld_rza2m.c ****     uint8_t transfer_unit = 0x8; /* 8bit transfer    */
2121:../generate/drivers/r_spibsc/src/lld/r_spibsc_lld_rza2m.c ****     int32_t transfer_num  = 0;   /* transufer number */
2122:../generate/drivers/r_spibsc/src/lld/r_spibsc_lld_rza2m.c ****     int32_t unit = 0;            /* taransfer byte   */
2123:../generate/drivers/r_spibsc/src/lld/r_spibsc_lld_rza2m.c ****     uint32_t *p_buf_l = NULL;
2124:../generate/drivers/r_spibsc/src/lld/r_spibsc_lld_rza2m.c ****     uint8_t  *p_buf_b = NULL;
2125:../generate/drivers/r_spibsc/src/lld/r_spibsc_lld_rza2m.c **** 
2126:../generate/drivers/r_spibsc/src/lld/r_spibsc_lld_rza2m.c ****     /* Setting pointer to table for manual mode */
2127:../generate/drivers/r_spibsc/src/lld/r_spibsc_lld_rza2m.c ****     p_spi_cmd_tbl = &gs_command_table[table_no];
 2697              		.loc 1 2127 0
 2698 0014 00A0A0E1 		mov	r10, r0
 2699              	.LVL315:
2128:../generate/drivers/r_spibsc/src/lld/r_spibsc_lld_rza2m.c **** 
2129:../generate/drivers/r_spibsc/src/lld/r_spibsc_lld_rza2m.c ****     /* ==== [command] - [dummy cycle]  : SSL assert keep setting */
2130:../generate/drivers/r_spibsc/src/lld/r_spibsc_lld_rza2m.c **** 
2131:../generate/drivers/r_spibsc/src/lld/r_spibsc_lld_rza2m.c ****     /* SSL assert keep */
2132:../generate/drivers/r_spibsc/src/lld/r_spibsc_lld_rza2m.c ****     r_spibsc_manual_assert_ssl();
 2700              		.loc 1 2132 0
 2701 0018 FEFFFFEB 		bl	r_spibsc_manual_assert_ssl
 2702              	.LVL316:
2121:../generate/drivers/r_spibsc/src/lld/r_spibsc_lld_rza2m.c ****     int32_t unit = 0;            /* taransfer byte   */
 2703              		.loc 1 2121 0
 2704 001c 0070A0E3 		mov	r7, #0
2133:../generate/drivers/r_spibsc/src/lld/r_spibsc_lld_rza2m.c **** 
2134:../generate/drivers/r_spibsc/src/lld/r_spibsc_lld_rza2m.c ****     /* Pointer setting of write buffer */
2135:../generate/drivers/r_spibsc/src/lld/r_spibsc_lld_rza2m.c ****     p_buf_b = p_write_buff;
2136:../generate/drivers/r_spibsc/src/lld/r_spibsc_lld_rza2m.c **** 
2137:../generate/drivers/r_spibsc/src/lld/r_spibsc_lld_rza2m.c ****     /* The remaining number of bytes? */
2138:../generate/drivers/r_spibsc/src/lld/r_spibsc_lld_rza2m.c ****     while ( 0 < write_size )
 2705              		.loc 1 2138 0
 2706 0020 260000EA 		b	.L191
 2707              	.LVL317:
 2708              	.L199:
2139:../generate/drivers/r_spibsc/src/lld/r_spibsc_lld_rza2m.c ****     {
2140:../generate/drivers/r_spibsc/src/lld/r_spibsc_lld_rza2m.c **** 
2141:../generate/drivers/r_spibsc/src/lld/r_spibsc_lld_rza2m.c ****         /* Calculate the transfer bit width from the remaining number of write bytes. */
2142:../generate/drivers/r_spibsc/src/lld/r_spibsc_lld_rza2m.c ****         if ( 4 <= write_size )
2143:../generate/drivers/r_spibsc/src/lld/r_spibsc_lld_rza2m.c ****         {
2144:../generate/drivers/r_spibsc/src/lld/r_spibsc_lld_rza2m.c ****             transfer_unit = SPIBSC_MANUAL_32BIT_TRANSFERRED;
2145:../generate/drivers/r_spibsc/src/lld/r_spibsc_lld_rza2m.c ****             unit = 4;
2146:../generate/drivers/r_spibsc/src/lld/r_spibsc_lld_rza2m.c ****         }
2147:../generate/drivers/r_spibsc/src/lld/r_spibsc_lld_rza2m.c ****         else
2148:../generate/drivers/r_spibsc/src/lld/r_spibsc_lld_rza2m.c ****         {
2149:../generate/drivers/r_spibsc/src/lld/r_spibsc_lld_rza2m.c ****             transfer_unit = SPIBSC_MANUAL_8BIT_TRANSFERRED;
2150:../generate/drivers/r_spibsc/src/lld/r_spibsc_lld_rza2m.c ****             unit = 1;
 2709              		.loc 1 2150 0
 2710 0024 0150A0E3 		mov	r5, #1
2149:../generate/drivers/r_spibsc/src/lld/r_spibsc_lld_rza2m.c ****             unit = 1;
 2711              		.loc 1 2149 0
 2712 0028 0860A0E3 		mov	r6, #8
 2713 002c 290000EA 		b	.L192
 2714              	.LVL318:
 2715              	.L202:
2151:../generate/drivers/r_spibsc/src/lld/r_spibsc_lld_rza2m.c ****         }
2152:../generate/drivers/r_spibsc/src/lld/r_spibsc_lld_rza2m.c **** 
2153:../generate/drivers/r_spibsc/src/lld/r_spibsc_lld_rza2m.c ****         /* Transfer is second time? */
2154:../generate/drivers/r_spibsc/src/lld/r_spibsc_lld_rza2m.c ****         if( 1 == transfer_num )
2155:../generate/drivers/r_spibsc/src/lld/r_spibsc_lld_rza2m.c ****         {
2156:../generate/drivers/r_spibsc/src/lld/r_spibsc_lld_rza2m.c ****             /* From the second time onward, do not transfer from command to dummy cycle. */
2157:../generate/drivers/r_spibsc/src/lld/r_spibsc_lld_rza2m.c **** 
2158:../generate/drivers/r_spibsc/src/lld/r_spibsc_lld_rza2m.c ****             /* ==== Command ==== */
2159:../generate/drivers/r_spibsc/src/lld/r_spibsc_lld_rza2m.c ****             r_spibsc_manual_set_command(0x00, 0, 0);
 2716              		.loc 1 2159 0
 2717 0030 0020A0E3 		mov	r2, #0
 2718 0034 0210A0E1 		mov	r1, r2
 2719 0038 0200A0E1 		mov	r0, r2
 2720 003c FEFFFFEB 		bl	r_spibsc_manual_set_command
 2721              	.LVL319:
2160:../generate/drivers/r_spibsc/src/lld/r_spibsc_lld_rza2m.c **** 
2161:../generate/drivers/r_spibsc/src/lld/r_spibsc_lld_rza2m.c ****             /* ==== Optional Command ==== */
2162:../generate/drivers/r_spibsc/src/lld/r_spibsc_lld_rza2m.c ****             r_spibsc_manual_set_optional_command(0x00, 0, 0);
 2722              		.loc 1 2162 0
 2723 0040 0020A0E3 		mov	r2, #0
 2724 0044 0210A0E1 		mov	r1, r2
 2725 0048 0200A0E1 		mov	r0, r2
 2726 004c FEFFFFEB 		bl	r_spibsc_manual_set_optional_command
 2727              	.LVL320:
2163:../generate/drivers/r_spibsc/src/lld/r_spibsc_lld_rza2m.c **** 
2164:../generate/drivers/r_spibsc/src/lld/r_spibsc_lld_rza2m.c ****             /* ==== Address ==== */
2165:../generate/drivers/r_spibsc/src/lld/r_spibsc_lld_rza2m.c ****             r_spibsc_manual_set_address(addr, 0, 0, 0);
 2728              		.loc 1 2165 0
 2729 0050 0030A0E3 		mov	r3, #0
 2730 0054 0320A0E1 		mov	r2, r3
 2731 0058 0310A0E1 		mov	r1, r3
 2732 005c 0800A0E1 		mov	r0, r8
 2733 0060 FEFFFFEB 		bl	r_spibsc_manual_set_address
 2734              	.LVL321:
2166:../generate/drivers/r_spibsc/src/lld/r_spibsc_lld_rza2m.c **** 
2167:../generate/drivers/r_spibsc/src/lld/r_spibsc_lld_rza2m.c ****             /* ==== Option Data ==== */
2168:../generate/drivers/r_spibsc/src/lld/r_spibsc_lld_rza2m.c ****             r_spibsc_manual_set_option_data( 0x00, 0x00, 0x00, 0x00,
 2735              		.loc 1 2168 0
 2736 0064 00B0A0E3 		mov	fp, #0
 2737 0068 08B08DE5 		str	fp, [sp, #8]
 2738 006c 04B08DE5 		str	fp, [sp, #4]
 2739 0070 00B08DE5 		str	fp, [sp]
 2740 0074 0B30A0E1 		mov	r3, fp
 2741 0078 0B20A0E1 		mov	r2, fp
 2742 007c 0B10A0E1 		mov	r1, fp
 2743 0080 0B00A0E1 		mov	r0, fp
 2744 0084 FEFFFFEB 		bl	r_spibsc_manual_set_option_data
 2745              	.LVL322:
2169:../generate/drivers/r_spibsc/src/lld/r_spibsc_lld_rza2m.c ****                                              0,  0,  0);
2170:../generate/drivers/r_spibsc/src/lld/r_spibsc_lld_rza2m.c **** 
2171:../generate/drivers/r_spibsc/src/lld/r_spibsc_lld_rza2m.c ****             /* ==== Dummy Cycle ==== */
2172:../generate/drivers/r_spibsc/src/lld/r_spibsc_lld_rza2m.c ****             r_spibsc_manual_set_dummy_cycle(0x00, 0,  0);
 2746              		.loc 1 2172 0
 2747 0088 0B20A0E1 		mov	r2, fp
 2748 008c 0B10A0E1 		mov	r1, fp
 2749 0090 0B00A0E1 		mov	r0, fp
 2750 0094 FEFFFFEB 		bl	r_spibsc_manual_set_dummy_cycle
 2751              	.LVL323:
 2752 0098 100000EA 		b	.L193
 2753              	.L203:
2173:../generate/drivers/r_spibsc/src/lld/r_spibsc_lld_rza2m.c **** 
2174:../generate/drivers/r_spibsc/src/lld/r_spibsc_lld_rza2m.c ****         }
2175:../generate/drivers/r_spibsc/src/lld/r_spibsc_lld_rza2m.c **** 
2176:../generate/drivers/r_spibsc/src/lld/r_spibsc_lld_rza2m.c ****         /* ==== Transfer Data ==== */
2177:../generate/drivers/r_spibsc/src/lld/r_spibsc_lld_rza2m.c ****         r_spibsc_manual_set_datatransfer( transfer_unit,
2178:../generate/drivers/r_spibsc/src/lld/r_spibsc_lld_rza2m.c ****                                           p_spi_cmd_tbl->transfer_data_width,
2179:../generate/drivers/r_spibsc/src/lld/r_spibsc_lld_rza2m.c ****                                           1, /* write enable  */
2180:../generate/drivers/r_spibsc/src/lld/r_spibsc_lld_rza2m.c ****                                           0, /* read  disable */
2181:../generate/drivers/r_spibsc/src/lld/r_spibsc_lld_rza2m.c ****                                           p_spi_cmd_tbl->transfer_data_sdr_ddr);
2182:../generate/drivers/r_spibsc/src/lld/r_spibsc_lld_rza2m.c **** 
2183:../generate/drivers/r_spibsc/src/lld/r_spibsc_lld_rza2m.c ****         /* last transfer? */
2184:../generate/drivers/r_spibsc/src/lld/r_spibsc_lld_rza2m.c ****         if ( unit >= write_size )
2185:../generate/drivers/r_spibsc/src/lld/r_spibsc_lld_rza2m.c ****         {
2186:../generate/drivers/r_spibsc/src/lld/r_spibsc_lld_rza2m.c ****             /* fist data - last data - 1   : SSL assert keep setting  */
2187:../generate/drivers/r_spibsc/src/lld/r_spibsc_lld_rza2m.c ****             /* last data                   : SSL negate keep setting  */
2188:../generate/drivers/r_spibsc/src/lld/r_spibsc_lld_rza2m.c ****             r_spibsc_manual_negate_ssl();
 2754              		.loc 1 2188 0
 2755 009c FEFFFFEB 		bl	r_spibsc_manual_negate_ssl
 2756              	.LVL324:
 2757 00a0 1B0000EA 		b	.L194
 2758              	.L196:
2189:../generate/drivers/r_spibsc/src/lld/r_spibsc_lld_rza2m.c **** 
2190:../generate/drivers/r_spibsc/src/lld/r_spibsc_lld_rza2m.c ****         }
2191:../generate/drivers/r_spibsc/src/lld/r_spibsc_lld_rza2m.c ****         else
2192:../generate/drivers/r_spibsc/src/lld/r_spibsc_lld_rza2m.c ****         {
2193:../generate/drivers/r_spibsc/src/lld/r_spibsc_lld_rza2m.c ****             /* Do Nothing */
2194:../generate/drivers/r_spibsc/src/lld/r_spibsc_lld_rza2m.c ****         }
2195:../generate/drivers/r_spibsc/src/lld/r_spibsc_lld_rza2m.c **** 
2196:../generate/drivers/r_spibsc/src/lld/r_spibsc_lld_rza2m.c ****         /* Set the write buffer data to the write register according to the transfer bit width. */
2197:../generate/drivers/r_spibsc/src/lld/r_spibsc_lld_rza2m.c ****         switch( transfer_unit )
2198:../generate/drivers/r_spibsc/src/lld/r_spibsc_lld_rza2m.c ****         {
2199:../generate/drivers/r_spibsc/src/lld/r_spibsc_lld_rza2m.c ****             case SPIBSC_MANUAL_32BIT_TRANSFERRED:
2200:../generate/drivers/r_spibsc/src/lld/r_spibsc_lld_rza2m.c ****             {
2201:../generate/drivers/r_spibsc/src/lld/r_spibsc_lld_rza2m.c ****                 p_buf_l = (uint32_t*)p_buf_b;
2202:../generate/drivers/r_spibsc/src/lld/r_spibsc_lld_rza2m.c ****                 r_spibsc_manual_write_data0_32(*p_buf_l);
2203:../generate/drivers/r_spibsc/src/lld/r_spibsc_lld_rza2m.c ****                 p_buf_b += unit;
2204:../generate/drivers/r_spibsc/src/lld/r_spibsc_lld_rza2m.c **** 
2205:../generate/drivers/r_spibsc/src/lld/r_spibsc_lld_rza2m.c ****                 break;
2206:../generate/drivers/r_spibsc/src/lld/r_spibsc_lld_rza2m.c ****             }
2207:../generate/drivers/r_spibsc/src/lld/r_spibsc_lld_rza2m.c ****             case SPIBSC_MANUAL_8BIT_TRANSFERRED:
2208:../generate/drivers/r_spibsc/src/lld/r_spibsc_lld_rza2m.c ****             {
2209:../generate/drivers/r_spibsc/src/lld/r_spibsc_lld_rza2m.c ****                 r_spibsc_manual_write_data0_8(*p_buf_b);
 2759              		.loc 1 2209 0
 2760 00a4 0500D9E6 		ldrb	r0, [r9], r5	@ zero_extendqisi2
 2761              	.LVL325:
 2762 00a8 FEFFFFEB 		bl	r_spibsc_manual_write_data0_8
 2763              	.LVL326:
 2764              	.L195:
2210:../generate/drivers/r_spibsc/src/lld/r_spibsc_lld_rza2m.c ****                 p_buf_b += unit;
2211:../generate/drivers/r_spibsc/src/lld/r_spibsc_lld_rza2m.c **** 
2212:../generate/drivers/r_spibsc/src/lld/r_spibsc_lld_rza2m.c ****                 break;
2213:../generate/drivers/r_spibsc/src/lld/r_spibsc_lld_rza2m.c ****             }
2214:../generate/drivers/r_spibsc/src/lld/r_spibsc_lld_rza2m.c ****             default:
2215:../generate/drivers/r_spibsc/src/lld/r_spibsc_lld_rza2m.c ****             {
2216:../generate/drivers/r_spibsc/src/lld/r_spibsc_lld_rza2m.c ****                 /* Do Nothing */
2217:../generate/drivers/r_spibsc/src/lld/r_spibsc_lld_rza2m.c ****                 break;
2218:../generate/drivers/r_spibsc/src/lld/r_spibsc_lld_rza2m.c ****             }
2219:../generate/drivers/r_spibsc/src/lld/r_spibsc_lld_rza2m.c ****         }
2220:../generate/drivers/r_spibsc/src/lld/r_spibsc_lld_rza2m.c **** 
2221:../generate/drivers/r_spibsc/src/lld/r_spibsc_lld_rza2m.c ****         /* ====  Start Transfer ==== */
2222:../generate/drivers/r_spibsc/src/lld/r_spibsc_lld_rza2m.c ****         r_spibsc_manual_start_transfer();
 2765              		.loc 1 2222 0
 2766 00ac FEFFFFEB 		bl	r_spibsc_manual_start_transfer
 2767              	.LVL327:
2223:../generate/drivers/r_spibsc/src/lld/r_spibsc_lld_rza2m.c **** 
2224:../generate/drivers/r_spibsc/src/lld/r_spibsc_lld_rza2m.c ****         /* ==== Waiting Tend ==== */
2225:../generate/drivers/r_spibsc/src/lld/r_spibsc_lld_rza2m.c ****         r_spibsc_wait_tend();
 2768              		.loc 1 2225 0
 2769 00b0 FEFFFFEB 		bl	r_spibsc_wait_tend
 2770              	.LVL328:
2226:../generate/drivers/r_spibsc/src/lld/r_spibsc_lld_rza2m.c **** 
2227:../generate/drivers/r_spibsc/src/lld/r_spibsc_lld_rza2m.c ****         write_size -= unit;
 2771              		.loc 1 2227 0
 2772 00b4 054044E0 		sub	r4, r4, r5
 2773              	.LVL329:
2228:../generate/drivers/r_spibsc/src/lld/r_spibsc_lld_rza2m.c ****         addr += (uint32_t)unit;
 2774              		.loc 1 2228 0
 2775 00b8 058088E0 		add	r8, r8, r5
 2776              	.LVL330:
2229:../generate/drivers/r_spibsc/src/lld/r_spibsc_lld_rza2m.c ****         transfer_num++;
 2777              		.loc 1 2229 0
 2778 00bc 017087E2 		add	r7, r7, #1
 2779              	.LVL331:
 2780              	.L191:
2138:../generate/drivers/r_spibsc/src/lld/r_spibsc_lld_rza2m.c ****     {
 2781              		.loc 1 2138 0
 2782 00c0 000054E3 		cmp	r4, #0
 2783 00c4 190000DA 		ble	.L201
2142:../generate/drivers/r_spibsc/src/lld/r_spibsc_lld_rza2m.c ****         {
 2784              		.loc 1 2142 0
 2785 00c8 030054E3 		cmp	r4, #3
 2786 00cc D4FFFFDA 		ble	.L199
2145:../generate/drivers/r_spibsc/src/lld/r_spibsc_lld_rza2m.c ****         }
 2787              		.loc 1 2145 0
 2788 00d0 0450A0E3 		mov	r5, #4
2144:../generate/drivers/r_spibsc/src/lld/r_spibsc_lld_rza2m.c ****             unit = 4;
 2789              		.loc 1 2144 0
 2790 00d4 0F60A0E3 		mov	r6, #15
 2791              	.L192:
 2792              	.LVL332:
2154:../generate/drivers/r_spibsc/src/lld/r_spibsc_lld_rza2m.c ****         {
 2793              		.loc 1 2154 0
 2794 00d8 010057E3 		cmp	r7, #1
 2795 00dc D3FFFF0A 		beq	.L202
 2796              	.L193:
2177:../generate/drivers/r_spibsc/src/lld/r_spibsc_lld_rza2m.c ****                                           p_spi_cmd_tbl->transfer_data_width,
 2797              		.loc 1 2177 0
 2798 00e0 002000E3 		movw	r2, #:lower16:.LANCHOR0
 2799 00e4 002040E3 		movt	r2, #:upper16:.LANCHOR0
 2800 00e8 3230A0E3 		mov	r3, #50
 2801 00ec 932A23E0 		mla	r3, r3, r10, r2
 2802 00f0 2710D3E5 		ldrb	r1, [r3, #39]	@ zero_extendqisi2
 2803 00f4 2830D3E5 		ldrb	r3, [r3, #40]	@ zero_extendqisi2
 2804 00f8 00308DE5 		str	r3, [sp]
 2805 00fc 0030A0E3 		mov	r3, #0
 2806 0100 0120A0E3 		mov	r2, #1
 2807 0104 0600A0E1 		mov	r0, r6
 2808 0108 FEFFFFEB 		bl	r_spibsc_manual_set_datatransfer
 2809              	.LVL333:
2184:../generate/drivers/r_spibsc/src/lld/r_spibsc_lld_rza2m.c ****         {
 2810              		.loc 1 2184 0
 2811 010c 050054E1 		cmp	r4, r5
 2812 0110 E1FFFFDA 		ble	.L203
 2813              	.L194:
2197:../generate/drivers/r_spibsc/src/lld/r_spibsc_lld_rza2m.c ****         {
 2814              		.loc 1 2197 0
 2815 0114 080056E3 		cmp	r6, #8
 2816 0118 E1FFFF0A 		beq	.L196
 2817 011c 0F0056E3 		cmp	r6, #15
 2818 0120 E1FFFF1A 		bne	.L195
 2819              	.LVL334:
2202:../generate/drivers/r_spibsc/src/lld/r_spibsc_lld_rza2m.c ****                 p_buf_b += unit;
 2820              		.loc 1 2202 0
 2821 0124 050099E6 		ldr	r0, [r9], r5
 2822              	.LVL335:
 2823 0128 FEFFFFEB 		bl	r_spibsc_manual_write_data0_32
 2824              	.LVL336:
2205:../generate/drivers/r_spibsc/src/lld/r_spibsc_lld_rza2m.c ****             }
 2825              		.loc 1 2205 0
 2826 012c DEFFFFEA 		b	.L195
 2827              	.LVL337:
 2828              	.L201:
2230:../generate/drivers/r_spibsc/src/lld/r_spibsc_lld_rza2m.c ****     }
2231:../generate/drivers/r_spibsc/src/lld/r_spibsc_lld_rza2m.c **** 
2232:../generate/drivers/r_spibsc/src/lld/r_spibsc_lld_rza2m.c ****     return (SPIBSC_SUCCESS);
2233:../generate/drivers/r_spibsc/src/lld/r_spibsc_lld_rza2m.c **** }
 2829              		.loc 1 2233 0
 2830 0130 0000A0E3 		mov	r0, #0
 2831 0134 14D08DE2 		add	sp, sp, #20
 2832              		.cfi_def_cfa_offset 36
 2833              		@ sp needed
 2834 0138 F08FBDE8 		pop	{r4, r5, r6, r7, r8, r9, r10, fp, pc}
 2835              		.cfi_endproc
 2836              	.LFE48:
 2838              		.section	.text.R_SPIBSC_Init,"ax",%progbits
 2839              		.align	2
 2840              		.global	R_SPIBSC_Init
 2841              		.syntax unified
 2842              		.arm
 2843              		.fpu neon
 2845              	R_SPIBSC_Init:
 2846              	.LFB44:
1783:../generate/drivers/r_spibsc/src/lld/r_spibsc_lld_rza2m.c ****     /* POCSEL0,POC0 set voltage*/
 2847              		.loc 1 1783 0
 2848              		.cfi_startproc
 2849              		@ args = 0, pretend = 0, frame = 0
 2850              		@ frame_needed = 0, uses_anonymous_args = 0
 2851              	.LVL338:
 2852 0000 10402DE9 		push	{r4, lr}
 2853              		.cfi_def_cfa_offset 8
 2854              		.cfi_offset 4, -8
 2855              		.cfi_offset 14, -4
 2856 0004 0040A0E1 		mov	r4, r0
1785:../generate/drivers/r_spibsc/src/lld/r_spibsc_lld_rza2m.c **** 
 2857              		.loc 1 1785 0
 2858 0008 0200D0E5 		ldrb	r0, [r0, #2]	@ zero_extendqisi2
 2859              	.LVL339:
 2860 000c FEFFFFEB 		bl	r_spibsc_port_voltage_setting
 2861              	.LVL340:
1788:../generate/drivers/r_spibsc/src/lld/r_spibsc_lld_rza2m.c **** 
 2862              		.loc 1 1788 0
 2863 0010 0200D4E5 		ldrb	r0, [r4, #2]	@ zero_extendqisi2
 2864 0014 FEFFFFEB 		bl	r_spibsc_port_current_setting
 2865              	.LVL341:
1790:../generate/drivers/r_spibsc/src/lld/r_spibsc_lld_rza2m.c ****     {
 2866              		.loc 1 1790 0
 2867 0018 0030D4E5 		ldrb	r3, [r4]	@ zero_extendqisi2
 2868 001c 000053E3 		cmp	r3, #0
 2869 0020 0100000A 		beq	.L207
 2870              	.L205:
1797:../generate/drivers/r_spibsc/src/lld/r_spibsc_lld_rza2m.c **** /******************************************************************************
 2871              		.loc 1 1797 0
 2872 0024 0000A0E3 		mov	r0, #0
 2873 0028 1080BDE8 		pop	{r4, pc}
 2874              	.L207:
1792:../generate/drivers/r_spibsc/src/lld/r_spibsc_lld_rza2m.c ****     }
 2875              		.loc 1 1792 0
 2876 002c 0400A0E1 		mov	r0, r4
 2877 0030 FEFFFFEB 		bl	r_spibsc_common_spiflash_init
 2878              	.LVL342:
 2879 0034 FAFFFFEA 		b	.L205
 2880              		.cfi_endproc
 2881              	.LFE44:
 2883              		.section	.text.R_SPIBSC_ChangeMode,"ax",%progbits
 2884              		.align	2
 2885              		.global	R_SPIBSC_ChangeMode
 2886              		.syntax unified
 2887              		.arm
 2888              		.fpu neon
 2890              	R_SPIBSC_ChangeMode:
 2891              	.LFB45:
1810:../generate/drivers/r_spibsc/src/lld/r_spibsc_lld_rza2m.c **** 
 2892              		.loc 1 1810 0
 2893              		.cfi_startproc
 2894              		@ args = 0, pretend = 0, frame = 0
 2895              		@ frame_needed = 0, uses_anonymous_args = 0
 2896              	.LVL343:
 2897 0000 70402DE9 		push	{r4, r5, r6, lr}
 2898              		.cfi_def_cfa_offset 16
 2899              		.cfi_offset 4, -16
 2900              		.cfi_offset 5, -12
 2901              		.cfi_offset 6, -8
 2902              		.cfi_offset 14, -4
 2903 0004 10D04DE2 		sub	sp, sp, #16
 2904              		.cfi_def_cfa_offset 32
 2905 0008 0060A0E1 		mov	r6, r0
 2906 000c 0150A0E1 		mov	r5, r1
 2907 0010 0240A0E1 		mov	r4, r2
 2908              	.LVL344:
1817:../generate/drivers/r_spibsc/src/lld/r_spibsc_lld_rza2m.c **** 
 2909              		.loc 1 1817 0
 2910 0014 FEFFFFEB 		bl	r_spibsc_xip_stop_access
 2911              	.LVL345:
1819:../generate/drivers/r_spibsc/src/lld/r_spibsc_lld_rza2m.c ****     {
 2912              		.loc 1 1819 0
 2913 0018 000056E3 		cmp	r6, #0
 2914 001c 3000000A 		beq	.L212
1828:../generate/drivers/r_spibsc/src/lld/r_spibsc_lld_rza2m.c ****             p_xip_cmd_tbl->cmncr_moiio3,
 2915              		.loc 1 1828 0
 2916 0020 003000E3 		movw	r3, #:lower16:.LANCHOR1
 2917 0024 003040E3 		movt	r3, #:upper16:.LANCHOR1
 2918 0028 3220A0E3 		mov	r2, #50
 2919 002c 923424E0 		mla	r4, r2, r4, r3
 2920              	.LVL346:
 2921 0030 2E30D4E5 		ldrb	r3, [r4, #46]	@ zero_extendqisi2
 2922 0034 2D20D4E5 		ldrb	r2, [r4, #45]	@ zero_extendqisi2
 2923 0038 2C10D4E5 		ldrb	r1, [r4, #44]	@ zero_extendqisi2
 2924 003c 2B00D4E5 		ldrb	r0, [r4, #43]	@ zero_extendqisi2
 2925 0040 31C0D4E5 		ldrb	ip, [r4, #49]	@ zero_extendqisi2
 2926 0044 08C08DE5 		str	ip, [sp, #8]
 2927 0048 30C0D4E5 		ldrb	ip, [r4, #48]	@ zero_extendqisi2
 2928 004c 04C08DE5 		str	ip, [sp, #4]
 2929 0050 2FC0D4E5 		ldrb	ip, [r4, #47]	@ zero_extendqisi2
 2930 0054 00C08DE5 		str	ip, [sp]
 2931 0058 FEFFFFEB 		bl	r_spibsc_qspi_io_set_output_level
 2932              	.LVL347:
1837:../generate/drivers/r_spibsc/src/lld/r_spibsc_lld_rza2m.c **** 
 2933              		.loc 1 1837 0
 2934 005c 0500A0E1 		mov	r0, r5
 2935 0060 FEFFFFEB 		bl	r_spibsc_change_xip_mode
 2936              	.LVL348:
1839:../generate/drivers/r_spibsc/src/lld/r_spibsc_lld_rza2m.c ****         r_spibsc_xip_set_optional_command(p_xip_cmd_tbl->ocmd, p_xip_cmd_tbl->ocmd_width, p_xip_cmd
 2937              		.loc 1 1839 0
 2938 0064 1620D4E5 		ldrb	r2, [r4, #22]	@ zero_extendqisi2
 2939 0068 1510D4E5 		ldrb	r1, [r4, #21]	@ zero_extendqisi2
 2940 006c 1400D4E5 		ldrb	r0, [r4, #20]	@ zero_extendqisi2
 2941 0070 FEFFFFEB 		bl	r_spibsc_xip_set_command
 2942              	.LVL349:
1840:../generate/drivers/r_spibsc/src/lld/r_spibsc_lld_rza2m.c ****         r_spibsc_xip_set_address(p_xip_cmd_tbl->addr_width, p_xip_cmd_tbl->addr_output_enable, p_xi
 2943              		.loc 1 1840 0
 2944 0074 1920D4E5 		ldrb	r2, [r4, #25]	@ zero_extendqisi2
 2945 0078 1810D4E5 		ldrb	r1, [r4, #24]	@ zero_extendqisi2
 2946 007c 1700D4E5 		ldrb	r0, [r4, #23]	@ zero_extendqisi2
 2947 0080 FEFFFFEB 		bl	r_spibsc_xip_set_optional_command
 2948              	.LVL350:
1841:../generate/drivers/r_spibsc/src/lld/r_spibsc_lld_rza2m.c **** 
 2949              		.loc 1 1841 0
 2950 0084 1C20D4E5 		ldrb	r2, [r4, #28]	@ zero_extendqisi2
 2951 0088 1B10D4E5 		ldrb	r1, [r4, #27]	@ zero_extendqisi2
 2952 008c 1A00D4E5 		ldrb	r0, [r4, #26]	@ zero_extendqisi2
 2953 0090 FEFFFFEB 		bl	r_spibsc_xip_set_address
 2954              	.LVL351:
1843:../generate/drivers/r_spibsc/src/lld/r_spibsc_lld_rza2m.c ****                                       p_xip_cmd_tbl->opdata_width,  p_xip_cmd_tbl->opdata_output_en
 2955              		.loc 1 1843 0
 2956 0094 2530D4E5 		ldrb	r3, [r4, #37]	@ zero_extendqisi2
 2957 0098 2420D4E5 		ldrb	r2, [r4, #36]	@ zero_extendqisi2
 2958 009c 2310D4E5 		ldrb	r1, [r4, #35]	@ zero_extendqisi2
 2959 00a0 2200D4E5 		ldrb	r0, [r4, #34]	@ zero_extendqisi2
 2960 00a4 21C0D4E5 		ldrb	ip, [r4, #33]	@ zero_extendqisi2
 2961 00a8 08C08DE5 		str	ip, [sp, #8]
 2962 00ac 20C0D4E5 		ldrb	ip, [r4, #32]	@ zero_extendqisi2
 2963 00b0 04C08DE5 		str	ip, [sp, #4]
 2964 00b4 1FC0D4E5 		ldrb	ip, [r4, #31]	@ zero_extendqisi2
 2965 00b8 00C08DE5 		str	ip, [sp]
 2966 00bc FEFFFFEB 		bl	r_spibsc_xip_set_option_data
 2967              	.LVL352:
1846:../generate/drivers/r_spibsc/src/lld/r_spibsc_lld_rza2m.c ****         r_spibsc_xip_set_datatransfer(p_xip_cmd_tbl->data_width, p_xip_cmd_tbl->data_ddr_enable);
 2968              		.loc 1 1846 0
 2969 00c0 2720D4E5 		ldrb	r2, [r4, #39]	@ zero_extendqisi2
 2970 00c4 2610D4E5 		ldrb	r1, [r4, #38]	@ zero_extendqisi2
 2971 00c8 2800D4E5 		ldrb	r0, [r4, #40]	@ zero_extendqisi2
 2972 00cc FEFFFFEB 		bl	r_spibsc_xip_set_dummy_cycle
 2973              	.LVL353:
1847:../generate/drivers/r_spibsc/src/lld/r_spibsc_lld_rza2m.c **** 
 2974              		.loc 1 1847 0
 2975 00d0 2A10D4E5 		ldrb	r1, [r4, #42]	@ zero_extendqisi2
 2976 00d4 2900D4E5 		ldrb	r0, [r4, #41]	@ zero_extendqisi2
 2977 00d8 FEFFFFEB 		bl	r_spibsc_xip_set_datatransfer
 2978              	.LVL354:
 2979              	.L208:
1851:../generate/drivers/r_spibsc/src/lld/r_spibsc_lld_rza2m.c **** /******************************************************************************
 2980              		.loc 1 1851 0
 2981 00dc 10D08DE2 		add	sp, sp, #16
 2982              		.cfi_remember_state
 2983              		.cfi_def_cfa_offset 16
 2984              		@ sp needed
 2985 00e0 7080BDE8 		pop	{r4, r5, r6, pc}
 2986              	.LVL355:
 2987              	.L212:
 2988              		.cfi_restore_state
1821:../generate/drivers/r_spibsc/src/lld/r_spibsc_lld_rza2m.c ****     }
 2989              		.loc 1 1821 0
 2990 00e4 0500A0E1 		mov	r0, r5
 2991 00e8 FEFFFFEB 		bl	r_spibsc_change_manual_mode
 2992              	.LVL356:
 2993 00ec FAFFFFEA 		b	.L208
 2994              		.cfi_endproc
 2995              	.LFE45:
 2997              		.section	.text.R_SPIBSC_SPICMDIssue,"ax",%progbits
 2998              		.align	2
 2999              		.global	R_SPIBSC_SPICMDIssue
 3000              		.syntax unified
 3001              		.arm
 3002              		.fpu neon
 3004              	R_SPIBSC_SPICMDIssue:
 3005              	.LFB46:
1871:../generate/drivers/r_spibsc/src/lld/r_spibsc_lld_rza2m.c **** 
 3006              		.loc 1 1871 0
 3007              		.cfi_startproc
 3008              		@ args = 8, pretend = 0, frame = 0
 3009              		@ frame_needed = 0, uses_anonymous_args = 0
 3010              	.LVL357:
 3011 0000 F0432DE9 		push	{r4, r5, r6, r7, r8, r9, lr}
 3012              		.cfi_def_cfa_offset 28
 3013              		.cfi_offset 4, -28
 3014              		.cfi_offset 5, -24
 3015              		.cfi_offset 6, -20
 3016              		.cfi_offset 7, -16
 3017              		.cfi_offset 8, -12
 3018              		.cfi_offset 9, -8
 3019              		.cfi_offset 14, -4
 3020 0004 14D04DE2 		sub	sp, sp, #20
 3021              		.cfi_def_cfa_offset 48
 3022 0008 0070A0E1 		mov	r7, r0
 3023 000c 0180A0E1 		mov	r8, r1
 3024 0010 0290A0E1 		mov	r9, r2
 3025 0014 0360A0E1 		mov	r6, r3
 3026 0018 34509DE5 		ldr	r5, [sp, #52]
 3027              	.LVL358:
1881:../generate/drivers/r_spibsc/src/lld/r_spibsc_lld_rza2m.c ****         p_spi_cmd_tbl->cmncr_moiio3,
 3028              		.loc 1 1881 0
 3029 001c 003000E3 		movw	r3, #:lower16:.LANCHOR0
 3030              	.LVL359:
 3031 0020 003040E3 		movt	r3, #:upper16:.LANCHOR0
 3032 0024 3240A0E3 		mov	r4, #50
 3033 0028 943024E0 		mla	r4, r4, r0, r3
 3034 002c 2E30D4E5 		ldrb	r3, [r4, #46]	@ zero_extendqisi2
 3035 0030 2D20D4E5 		ldrb	r2, [r4, #45]	@ zero_extendqisi2
 3036              	.LVL360:
 3037 0034 2C10D4E5 		ldrb	r1, [r4, #44]	@ zero_extendqisi2
 3038              	.LVL361:
 3039 0038 2B00D4E5 		ldrb	r0, [r4, #43]	@ zero_extendqisi2
 3040              	.LVL362:
 3041 003c 31C0D4E5 		ldrb	ip, [r4, #49]	@ zero_extendqisi2
 3042 0040 08C08DE5 		str	ip, [sp, #8]
 3043 0044 30C0D4E5 		ldrb	ip, [r4, #48]	@ zero_extendqisi2
 3044 0048 04C08DE5 		str	ip, [sp, #4]
 3045 004c 2FC0D4E5 		ldrb	ip, [r4, #47]	@ zero_extendqisi2
 3046 0050 00C08DE5 		str	ip, [sp]
 3047 0054 FEFFFFEB 		bl	r_spibsc_qspi_io_set_output_level
 3048              	.LVL363:
1892:../generate/drivers/r_spibsc/src/lld/r_spibsc_lld_rza2m.c **** 
 3049              		.loc 1 1892 0
 3050 0058 1620D4E5 		ldrb	r2, [r4, #22]	@ zero_extendqisi2
 3051 005c 1510D4E5 		ldrb	r1, [r4, #21]	@ zero_extendqisi2
 3052 0060 1400D4E5 		ldrb	r0, [r4, #20]	@ zero_extendqisi2
 3053 0064 FEFFFFEB 		bl	r_spibsc_manual_set_command
 3054              	.LVL364:
1895:../generate/drivers/r_spibsc/src/lld/r_spibsc_lld_rza2m.c **** 
 3055              		.loc 1 1895 0
 3056 0068 1920D4E5 		ldrb	r2, [r4, #25]	@ zero_extendqisi2
 3057 006c 1810D4E5 		ldrb	r1, [r4, #24]	@ zero_extendqisi2
 3058 0070 1700D4E5 		ldrb	r0, [r4, #23]	@ zero_extendqisi2
 3059 0074 FEFFFFEB 		bl	r_spibsc_manual_set_optional_command
 3060              	.LVL365:
1898:../generate/drivers/r_spibsc/src/lld/r_spibsc_lld_rza2m.c **** 
 3061              		.loc 1 1898 0
 3062 0078 1C30D4E5 		ldrb	r3, [r4, #28]	@ zero_extendqisi2
 3063 007c 1B20D4E5 		ldrb	r2, [r4, #27]	@ zero_extendqisi2
 3064 0080 1A10D4E5 		ldrb	r1, [r4, #26]	@ zero_extendqisi2
 3065 0084 0800A0E1 		mov	r0, r8
 3066 0088 FEFFFFEB 		bl	r_spibsc_manual_set_address
 3067              	.LVL366:
1901:../generate/drivers/r_spibsc/src/lld/r_spibsc_lld_rza2m.c ****                                      p_spi_cmd_tbl->opdata_width, p_spi_cmd_tbl->opdata_output_enab
 3068              		.loc 1 1901 0
 3069 008c 2330D4E5 		ldrb	r3, [r4, #35]	@ zero_extendqisi2
 3070 0090 2220D4E5 		ldrb	r2, [r4, #34]	@ zero_extendqisi2
 3071 0094 2110D4E5 		ldrb	r1, [r4, #33]	@ zero_extendqisi2
 3072 0098 2000D4E5 		ldrb	r0, [r4, #32]	@ zero_extendqisi2
 3073 009c 1FC0D4E5 		ldrb	ip, [r4, #31]	@ zero_extendqisi2
 3074 00a0 08C08DE5 		str	ip, [sp, #8]
 3075 00a4 1EC0D4E5 		ldrb	ip, [r4, #30]	@ zero_extendqisi2
 3076 00a8 04C08DE5 		str	ip, [sp, #4]
 3077 00ac 1DC0D4E5 		ldrb	ip, [r4, #29]	@ zero_extendqisi2
 3078 00b0 00C08DE5 		str	ip, [sp]
 3079 00b4 FEFFFFEB 		bl	r_spibsc_manual_set_option_data
 3080              	.LVL367:
1905:../generate/drivers/r_spibsc/src/lld/r_spibsc_lld_rza2m.c **** 
 3081              		.loc 1 1905 0
 3082 00b8 2520D4E5 		ldrb	r2, [r4, #37]	@ zero_extendqisi2
 3083 00bc 2410D4E5 		ldrb	r1, [r4, #36]	@ zero_extendqisi2
 3084 00c0 2600D4E5 		ldrb	r0, [r4, #38]	@ zero_extendqisi2
 3085 00c4 FEFFFFEB 		bl	r_spibsc_manual_set_dummy_cycle
 3086              	.LVL368:
1910:../generate/drivers/r_spibsc/src/lld/r_spibsc_lld_rza2m.c ****     {
 3087              		.loc 1 1910 0
 3088 00c8 063095E1 		orrs	r3, r5, r6
 3089 00cc 0E00000A 		beq	.L219
1928:../generate/drivers/r_spibsc/src/lld/r_spibsc_lld_rza2m.c ****     {
 3090              		.loc 1 1928 0
 3091 00d0 163F6FE1 		clz	r3, r6
 3092 00d4 A332A0E1 		lsr	r3, r3, #5
 3093 00d8 000055E3 		cmp	r5, #0
 3094 00dc 0030A003 		moveq	r3, #0
 3095 00e0 000053E3 		cmp	r3, #0
 3096 00e4 1300001A 		bne	.L220
1935:../generate/drivers/r_spibsc/src/lld/r_spibsc_lld_rza2m.c ****     {
 3097              		.loc 1 1935 0
 3098 00e8 155F6FE1 		clz	r5, r5
 3099 00ec A552A0E1 		lsr	r5, r5, #5
 3100 00f0 000056E3 		cmp	r6, #0
 3101 00f4 0050A003 		moveq	r5, #0
 3102 00f8 000055E3 		cmp	r5, #0
 3103 00fc 1300001A 		bne	.L221
1875:../generate/drivers/r_spibsc/src/lld/r_spibsc_lld_rza2m.c **** 
 3104              		.loc 1 1875 0
 3105 0100 0000A0E3 		mov	r0, #0
 3106              	.LVL369:
 3107              	.L215:
1942:../generate/drivers/r_spibsc/src/lld/r_spibsc_lld_rza2m.c **** /******************************************************************************
 3108              		.loc 1 1942 0
 3109 0104 14D08DE2 		add	sp, sp, #20
 3110              		.cfi_remember_state
 3111              		.cfi_def_cfa_offset 28
 3112              		@ sp needed
 3113 0108 F083BDE8 		pop	{r4, r5, r6, r7, r8, r9, pc}
 3114              	.LVL370:
 3115              	.L219:
 3116              		.cfi_restore_state
1914:../generate/drivers/r_spibsc/src/lld/r_spibsc_lld_rza2m.c ****                                           p_spi_cmd_tbl->transfer_data_width,
 3117              		.loc 1 1914 0
 3118 010c 2710D4E5 		ldrb	r1, [r4, #39]	@ zero_extendqisi2
 3119 0110 2830D4E5 		ldrb	r3, [r4, #40]	@ zero_extendqisi2
 3120 0114 00308DE5 		str	r3, [sp]
 3121 0118 0030A0E3 		mov	r3, #0
 3122 011c 0320A0E1 		mov	r2, r3
 3123 0120 0300A0E1 		mov	r0, r3
 3124 0124 FEFFFFEB 		bl	r_spibsc_manual_set_datatransfer
 3125              	.LVL371:
1921:../generate/drivers/r_spibsc/src/lld/r_spibsc_lld_rza2m.c **** 
 3126              		.loc 1 1921 0
 3127 0128 FEFFFFEB 		bl	r_spibsc_manual_start_transfer
 3128              	.LVL372:
1924:../generate/drivers/r_spibsc/src/lld/r_spibsc_lld_rza2m.c ****     }
 3129              		.loc 1 1924 0
 3130 012c FEFFFFEB 		bl	r_spibsc_wait_tend
 3131              	.LVL373:
1875:../generate/drivers/r_spibsc/src/lld/r_spibsc_lld_rza2m.c **** 
 3132              		.loc 1 1875 0
 3133 0130 0000A0E3 		mov	r0, #0
 3134 0134 F2FFFFEA 		b	.L215
 3135              	.L220:
1930:../generate/drivers/r_spibsc/src/lld/r_spibsc_lld_rza2m.c **** 
 3136              		.loc 1 1930 0
 3137 0138 0530A0E1 		mov	r3, r5
 3138 013c 30209DE5 		ldr	r2, [sp, #48]
 3139 0140 0810A0E1 		mov	r1, r8
 3140 0144 0700A0E1 		mov	r0, r7
 3141 0148 FEFFFFEB 		bl	r_spibsc_spi_cmd_issue_read
 3142              	.LVL374:
 3143 014c ECFFFFEA 		b	.L215
 3144              	.LVL375:
 3145              	.L221:
1937:../generate/drivers/r_spibsc/src/lld/r_spibsc_lld_rza2m.c **** 
 3146              		.loc 1 1937 0
 3147 0150 0630A0E1 		mov	r3, r6
 3148 0154 0920A0E1 		mov	r2, r9
 3149 0158 0810A0E1 		mov	r1, r8
 3150 015c 0700A0E1 		mov	r0, r7
 3151 0160 FEFFFFEB 		bl	r_spibsc_spi_cmd_issue_write
 3152              	.LVL376:
1875:../generate/drivers/r_spibsc/src/lld/r_spibsc_lld_rza2m.c **** 
 3153              		.loc 1 1875 0
 3154 0164 0000A0E3 		mov	r0, #0
 3155 0168 E5FFFFEA 		b	.L215
 3156              		.cfi_endproc
 3157              	.LFE46:
 3159              		.section	.text.R_SPIBSC_AdjustPhy,"ax",%progbits
 3160              		.align	2
 3161              		.global	R_SPIBSC_AdjustPhy
 3162              		.syntax unified
 3163              		.arm
 3164              		.fpu neon
 3166              	R_SPIBSC_AdjustPhy:
 3167              	.LFB43:
1705:../generate/drivers/r_spibsc/src/lld/r_spibsc_lld_rza2m.c ****     e_spibsc_err_t ret;
 3168              		.loc 1 1705 0
 3169              		.cfi_startproc
 3170              		@ args = 0, pretend = 0, frame = 8
 3171              		@ frame_needed = 0, uses_anonymous_args = 0
 3172 0000 30402DE9 		push	{r4, r5, lr}
 3173              		.cfi_def_cfa_offset 12
 3174              		.cfi_offset 4, -12
 3175              		.cfi_offset 5, -8
 3176              		.cfi_offset 14, -4
 3177 0004 14D04DE2 		sub	sp, sp, #20
 3178              		.cfi_def_cfa_offset 32
 3179              	.LVL377:
1713:../generate/drivers/r_spibsc/src/lld/r_spibsc_lld_rza2m.c ****     spibsc_io_reg_write_32(&SPIBSC.PHYADJ1.LONG, 0x80000000, IOREG_NONSHIFT_ACCESS, IOREG_NONMASK_A
 3180              		.loc 1 1713 0
 3181 0008 7450A0E3 		mov	r5, #116
 3182 000c 805F41E3 		movt	r5, 8064
 3183 0010 0030E0E3 		mvn	r3, #0
 3184 0014 0020A0E3 		mov	r2, #0
 3185 0018 0210A0E1 		mov	r1, r2
 3186 001c 39154AE3 		movt	r1, 42297
 3187 0020 0500A0E1 		mov	r0, r5
 3188 0024 FEFFFFEB 		bl	spibsc_io_reg_write_32
 3189              	.LVL378:
1714:../generate/drivers/r_spibsc/src/lld/r_spibsc_lld_rza2m.c **** 
 3190              		.loc 1 1714 0
 3191 0028 7040A0E3 		mov	r4, #112
 3192 002c 804F41E3 		movt	r4, 8064
 3193 0030 0030E0E3 		mvn	r3, #0
 3194 0034 0020A0E3 		mov	r2, #0
 3195 0038 0211A0E3 		mov	r1, #-2147483648
 3196 003c 0400A0E1 		mov	r0, r4
 3197 0040 FEFFFFEB 		bl	spibsc_io_reg_write_32
 3198              	.LVL379:
1717:../generate/drivers/r_spibsc/src/lld/r_spibsc_lld_rza2m.c ****     spibsc_io_reg_write_32(&SPIBSC.PHYADJ1.LONG, 0x80000022, IOREG_NONSHIFT_ACCESS, IOREG_NONMASK_A
 3199              		.loc 1 1717 0
 3200 0044 0030E0E3 		mvn	r3, #0
 3201 0048 0020A0E3 		mov	r2, #0
 3202 004c 911109E3 		movw	r1, #37265
 3203 0050 0500A0E1 		mov	r0, r5
 3204 0054 FEFFFFEB 		bl	spibsc_io_reg_write_32
 3205              	.LVL380:
1718:../generate/drivers/r_spibsc/src/lld/r_spibsc_lld_rza2m.c ****     spibsc_io_reg_write_32(&SPIBSC.PHYADJ2.LONG, 0x00009191, IOREG_NONSHIFT_ACCESS, IOREG_NONMASK_A
 3206              		.loc 1 1718 0
 3207 0058 0030E0E3 		mvn	r3, #0
 3208 005c 0020A0E3 		mov	r2, #0
 3209 0060 8A11A0E3 		mov	r1, #-2147483614
 3210 0064 0400A0E1 		mov	r0, r4
 3211 0068 FEFFFFEB 		bl	spibsc_io_reg_write_32
 3212              	.LVL381:
1719:../generate/drivers/r_spibsc/src/lld/r_spibsc_lld_rza2m.c ****     spibsc_io_reg_write_32(&SPIBSC.PHYADJ1.LONG, 0x80000024, IOREG_NONSHIFT_ACCESS, IOREG_NONMASK_A
 3213              		.loc 1 1719 0
 3214 006c 0030E0E3 		mvn	r3, #0
 3215 0070 0020A0E3 		mov	r2, #0
 3216 0074 911109E3 		movw	r1, #37265
 3217 0078 0500A0E1 		mov	r0, r5
 3218 007c FEFFFFEB 		bl	spibsc_io_reg_write_32
 3219              	.LVL382:
1720:../generate/drivers/r_spibsc/src/lld/r_spibsc_lld_rza2m.c **** 
 3220              		.loc 1 1720 0
 3221 0080 0030E0E3 		mvn	r3, #0
 3222 0084 0020A0E3 		mov	r2, #0
 3223 0088 9211A0E3 		mov	r1, #-2147483612
 3224 008c 0400A0E1 		mov	r0, r4
 3225 0090 FEFFFFEB 		bl	spibsc_io_reg_write_32
 3226              	.LVL383:
1723:../generate/drivers/r_spibsc/src/lld/r_spibsc_lld_rza2m.c ****     {
 3227              		.loc 1 1723 0
 3228 0094 0040A0E3 		mov	r4, #0
 3229 0098 040000EA 		b	.L223
 3230              	.LVL384:
 3231              	.L231:
1741:../generate/drivers/r_spibsc/src/lld/r_spibsc_lld_rza2m.c ****         }
 3232              		.loc 1 1741 0
 3233 009c 003000E3 		movw	r3, #:lower16:.LANCHOR3
 3234 00a0 003040E3 		movt	r3, #:upper16:.LANCHOR3
 3235 00a4 0120A0E3 		mov	r2, #1
 3236 00a8 0420C3E7 		strb	r2, [r3, r4]
 3237              	.L225:
1723:../generate/drivers/r_spibsc/src/lld/r_spibsc_lld_rza2m.c ****     {
 3238              		.loc 1 1723 0 discriminator 2
 3239 00ac 014084E2 		add	r4, r4, #1
 3240              	.LVL385:
 3241              	.L223:
1723:../generate/drivers/r_spibsc/src/lld/r_spibsc_lld_rza2m.c ****     {
 3242              		.loc 1 1723 0 is_stmt 0 discriminator 1
 3243 00b0 0C0054E3 		cmp	r4, #12
 3244 00b4 2F0000CA 		bgt	.L230
1727:../generate/drivers/r_spibsc/src/lld/r_spibsc_lld_rza2m.c **** 
 3245              		.loc 1 1727 0 is_stmt 1
 3246 00b8 FEFFFFEB 		bl	r_spibsc_wait_tend
 3247              	.LVL386:
1730:../generate/drivers/r_spibsc/src/lld/r_spibsc_lld_rza2m.c ****         spibsc_io_reg_write_32(&SPIBSC.PHYADJ2.LONG, gs_spibsc_phy_adj[index].xy, IOREG_NONSHIFT_AC
 3248              		.loc 1 1730 0
 3249 00bc 005000E3 		movw	r5, #:lower16:.LANCHOR2
 3250 00c0 005040E3 		movt	r5, #:upper16:.LANCHOR2
 3251 00c4 841085E0 		add	r1, r5, r4, lsl #1
 3252 00c8 0338A0E3 		mov	r3, #196608
 3253 00cc 1020A0E3 		mov	r2, #16
 3254 00d0 0110D1E5 		ldrb	r1, [r1, #1]	@ zero_extendqisi2
 3255 00d4 7C00A0E3 		mov	r0, #124
 3256 00d8 800F41E3 		movt	r0, 8064
 3257 00dc FEFFFFEB 		bl	spibsc_io_reg_write_32
 3258              	.LVL387:
1731:../generate/drivers/r_spibsc/src/lld/r_spibsc_lld_rza2m.c ****         spibsc_io_reg_write_32(&SPIBSC.PHYADJ1.LONG, 0x80000032, IOREG_NONSHIFT_ACCESS, IOREG_NONMA
 3259              		.loc 1 1731 0
 3260 00e0 0030E0E3 		mvn	r3, #0
 3261 00e4 0020A0E3 		mov	r2, #0
 3262 00e8 8410D5E7 		ldrb	r1, [r5, r4, lsl #1]	@ zero_extendqisi2
 3263 00ec 7400A0E3 		mov	r0, #116
 3264 00f0 800F41E3 		movt	r0, 8064
 3265 00f4 FEFFFFEB 		bl	spibsc_io_reg_write_32
 3266              	.LVL388:
1732:../generate/drivers/r_spibsc/src/lld/r_spibsc_lld_rza2m.c ****         spibsc_io_reg_read_32(&SPIBSC.PHYADJ1.LONG, IOREG_NONSHIFT_ACCESS, IOREG_NONMASK_ACCESS);  
 3267              		.loc 1 1732 0
 3268 00f8 7050A0E3 		mov	r5, #112
 3269 00fc 805F41E3 		movt	r5, 8064
 3270 0100 0030E0E3 		mvn	r3, #0
 3271 0104 0020A0E3 		mov	r2, #0
 3272 0108 CA11A0E3 		mov	r1, #-2147483598
 3273 010c 0500A0E1 		mov	r0, r5
 3274 0110 FEFFFFEB 		bl	spibsc_io_reg_write_32
 3275              	.LVL389:
1733:../generate/drivers/r_spibsc/src/lld/r_spibsc_lld_rza2m.c **** 
 3276              		.loc 1 1733 0
 3277 0114 0020E0E3 		mvn	r2, #0
 3278 0118 0010A0E3 		mov	r1, #0
 3279 011c 0500A0E1 		mov	r0, r5
 3280 0120 FEFFFFEB 		bl	spibsc_io_reg_read_32
 3281              	.LVL390:
1736:../generate/drivers/r_spibsc/src/lld/r_spibsc_lld_rza2m.c ****     	
 3282              		.loc 1 1736 0
 3283 0124 001000E3 		movw	r1, #:lower16:g_spibsc_test_pattern
 3284 0128 001040E3 		movt	r1, #:upper16:g_spibsc_test_pattern
 3285 012c 0430A0E3 		mov	r3, #4
 3286 0130 04308DE5 		str	r3, [sp, #4]
 3287 0134 0C308DE2 		add	r3, sp, #12
 3288 0138 00308DE5 		str	r3, [sp]
 3289 013c 0030A0E3 		mov	r3, #0
 3290 0140 0320A0E1 		mov	r2, r3
 3291 0144 0F12C1E3 		bic	r1, r1, #-268435456
 3292 0148 0500A0E3 		mov	r0, #5
 3293 014c FEFFFFEB 		bl	R_SPIBSC_SPICMDIssue
 3294              	.LVL391:
1739:../generate/drivers/r_spibsc/src/lld/r_spibsc_lld_rza2m.c ****         {
 3295              		.loc 1 1739 0
 3296 0150 553F0FE3 		movw	r3, #65365
 3297 0154 003A4AE3 		movt	r3, 43520
 3298 0158 0C209DE5 		ldr	r2, [sp, #12]
 3299 015c 030052E1 		cmp	r2, r3
 3300 0160 CDFFFF0A 		beq	.L231
1745:../generate/drivers/r_spibsc/src/lld/r_spibsc_lld_rza2m.c ****         }
 3301              		.loc 1 1745 0
 3302 0164 003000E3 		movw	r3, #:lower16:.LANCHOR3
 3303 0168 003040E3 		movt	r3, #:upper16:.LANCHOR3
 3304 016c 0020A0E3 		mov	r2, #0
 3305 0170 0420C3E7 		strb	r2, [r3, r4]
 3306 0174 CCFFFFEA 		b	.L225
 3307              	.L230:
1750:../generate/drivers/r_spibsc/src/lld/r_spibsc_lld_rza2m.c **** 
 3308              		.loc 1 1750 0
 3309 0178 000000E3 		movw	r0, #:lower16:.LANCHOR3
 3310 017c 000040E3 		movt	r0, #:upper16:.LANCHOR3
 3311 0180 FEFFFFEB 		bl	r_spibsc_get_ok_area_center
 3312              	.LVL392:
1752:../generate/drivers/r_spibsc/src/lld/r_spibsc_lld_rza2m.c ****     {
 3313              		.loc 1 1752 0
 3314 0184 005050E2 		subs	r5, r0, #0
 3315 0188 180000DA 		ble	.L228
1755:../generate/drivers/r_spibsc/src/lld/r_spibsc_lld_rza2m.c **** 
 3316              		.loc 1 1755 0
 3317 018c FEFFFFEB 		bl	r_spibsc_wait_tend
 3318              	.LVL393:
1758:../generate/drivers/r_spibsc/src/lld/r_spibsc_lld_rza2m.c ****         spibsc_io_reg_write_32(&SPIBSC.PHYADJ2.LONG, gs_spibsc_phy_adj[index_center].xy, IOREG_NONS
 3319              		.loc 1 1758 0
 3320 0190 004000E3 		movw	r4, #:lower16:.LANCHOR2
 3321              	.LVL394:
 3322 0194 004040E3 		movt	r4, #:upper16:.LANCHOR2
 3323 0198 851084E0 		add	r1, r4, r5, lsl #1
 3324 019c 0338A0E3 		mov	r3, #196608
 3325 01a0 1020A0E3 		mov	r2, #16
 3326 01a4 0110D1E5 		ldrb	r1, [r1, #1]	@ zero_extendqisi2
 3327 01a8 7C00A0E3 		mov	r0, #124
 3328 01ac 800F41E3 		movt	r0, 8064
 3329 01b0 FEFFFFEB 		bl	spibsc_io_reg_write_32
 3330              	.LVL395:
1759:../generate/drivers/r_spibsc/src/lld/r_spibsc_lld_rza2m.c ****         spibsc_io_reg_write_32(&SPIBSC.PHYADJ1.LONG, 0x80000032, IOREG_NONSHIFT_ACCESS, IOREG_NONMA
 3331              		.loc 1 1759 0
 3332 01b4 0030E0E3 		mvn	r3, #0
 3333 01b8 0020A0E3 		mov	r2, #0
 3334 01bc 8510D4E7 		ldrb	r1, [r4, r5, lsl #1]	@ zero_extendqisi2
 3335 01c0 7400A0E3 		mov	r0, #116
 3336 01c4 800F41E3 		movt	r0, 8064
 3337 01c8 FEFFFFEB 		bl	spibsc_io_reg_write_32
 3338              	.LVL396:
1760:../generate/drivers/r_spibsc/src/lld/r_spibsc_lld_rza2m.c **** 
 3339              		.loc 1 1760 0
 3340 01cc 0030E0E3 		mvn	r3, #0
 3341 01d0 0020A0E3 		mov	r2, #0
 3342 01d4 CA11A0E3 		mov	r1, #-2147483598
 3343 01d8 7000A0E3 		mov	r0, #112
 3344 01dc 800F41E3 		movt	r0, 8064
 3345 01e0 FEFFFFEB 		bl	spibsc_io_reg_write_32
 3346              	.LVL397:
1762:../generate/drivers/r_spibsc/src/lld/r_spibsc_lld_rza2m.c ****     }
 3347              		.loc 1 1762 0
 3348 01e4 0000A0E3 		mov	r0, #0
 3349              	.LVL398:
 3350              	.L227:
1770:../generate/drivers/r_spibsc/src/lld/r_spibsc_lld_rza2m.c **** /******************************************************************************
 3351              		.loc 1 1770 0
 3352 01e8 14D08DE2 		add	sp, sp, #20
 3353              		.cfi_remember_state
 3354              		.cfi_def_cfa_offset 12
 3355              		@ sp needed
 3356 01ec 3080BDE8 		pop	{r4, r5, pc}
 3357              	.LVL399:
 3358              	.L228:
 3359              		.cfi_restore_state
1766:../generate/drivers/r_spibsc/src/lld/r_spibsc_lld_rza2m.c ****     }
 3360              		.loc 1 1766 0
 3361 01f0 0000E0E3 		mvn	r0, #0
 3362              	.LVL400:
 3363 01f4 FBFFFFEA 		b	.L227
 3364              		.cfi_endproc
 3365              	.LFE43:
 3367              		.section	.text.R_SPIBSC_FlushReadCache,"ax",%progbits
 3368              		.align	2
 3369              		.global	R_SPIBSC_FlushReadCache
 3370              		.syntax unified
 3371              		.arm
 3372              		.fpu neon
 3374              	R_SPIBSC_FlushReadCache:
 3375              	.LFB49:
2234:../generate/drivers/r_spibsc/src/lld/r_spibsc_lld_rza2m.c **** /******************************************************************************
2235:../generate/drivers/r_spibsc/src/lld/r_spibsc_lld_rza2m.c ****  * End of function r_spibsc_spi_cmd_issue_write
2236:../generate/drivers/r_spibsc/src/lld/r_spibsc_lld_rza2m.c ****  ******************************************************************************/
2237:../generate/drivers/r_spibsc/src/lld/r_spibsc_lld_rza2m.c **** 
2238:../generate/drivers/r_spibsc/src/lld/r_spibsc_lld_rza2m.c **** 
2239:../generate/drivers/r_spibsc/src/lld/r_spibsc_lld_rza2m.c **** /*******************************************************************************
2240:../generate/drivers/r_spibsc/src/lld/r_spibsc_lld_rza2m.c **** * Function Name: R_SPIBSC_FlushReadCache
2241:../generate/drivers/r_spibsc/src/lld/r_spibsc_lld_rza2m.c **** * Description  : Flush Read Cache
2242:../generate/drivers/r_spibsc/src/lld/r_spibsc_lld_rza2m.c **** * Arguments    : none
2243:../generate/drivers/r_spibsc/src/lld/r_spibsc_lld_rza2m.c **** * Return Value : none
2244:../generate/drivers/r_spibsc/src/lld/r_spibsc_lld_rza2m.c **** *******************************************************************************/
2245:../generate/drivers/r_spibsc/src/lld/r_spibsc_lld_rza2m.c **** void R_SPIBSC_FlushReadCache(void)
2246:../generate/drivers/r_spibsc/src/lld/r_spibsc_lld_rza2m.c **** {
 3376              		.loc 1 2246 0
 3377              		.cfi_startproc
 3378              		@ args = 0, pretend = 0, frame = 0
 3379              		@ frame_needed = 0, uses_anonymous_args = 0
 3380 0000 10402DE9 		push	{r4, lr}
 3381              		.cfi_def_cfa_offset 8
 3382              		.cfi_offset 4, -8
 3383              		.cfi_offset 14, -4
2247:../generate/drivers/r_spibsc/src/lld/r_spibsc_lld_rza2m.c ****     r_spibsc_flush_read_cache();
 3384              		.loc 1 2247 0
 3385 0004 FEFFFFEB 		bl	r_spibsc_flush_read_cache
 3386              	.LVL401:
2248:../generate/drivers/r_spibsc/src/lld/r_spibsc_lld_rza2m.c **** }
 3387              		.loc 1 2248 0
 3388 0008 1080BDE8 		pop	{r4, pc}
 3389              		.cfi_endproc
 3390              	.LFE49:
 3392              		.section	.text.R_SPIBSC_XipStopAccess,"ax",%progbits
 3393              		.align	2
 3394              		.global	R_SPIBSC_XipStopAccess
 3395              		.syntax unified
 3396              		.arm
 3397              		.fpu neon
 3399              	R_SPIBSC_XipStopAccess:
 3400              	.LFB50:
2249:../generate/drivers/r_spibsc/src/lld/r_spibsc_lld_rza2m.c **** /*******************************************************************************
2250:../generate/drivers/r_spibsc/src/lld/r_spibsc_lld_rza2m.c **** End of function R_SPIBSC_FlushReadCache
2251:../generate/drivers/r_spibsc/src/lld/r_spibsc_lld_rza2m.c **** *******************************************************************************/
2252:../generate/drivers/r_spibsc/src/lld/r_spibsc_lld_rza2m.c **** 
2253:../generate/drivers/r_spibsc/src/lld/r_spibsc_lld_rza2m.c **** /*******************************************************************************
2254:../generate/drivers/r_spibsc/src/lld/r_spibsc_lld_rza2m.c **** * Function Name: R_SPIBSC_XipStopAccess
2255:../generate/drivers/r_spibsc/src/lld/r_spibsc_lld_rza2m.c **** * Description  : SSL negate
2256:../generate/drivers/r_spibsc/src/lld/r_spibsc_lld_rza2m.c **** * Arguments    : none
2257:../generate/drivers/r_spibsc/src/lld/r_spibsc_lld_rza2m.c **** * Return Value : none
2258:../generate/drivers/r_spibsc/src/lld/r_spibsc_lld_rza2m.c **** *******************************************************************************/
2259:../generate/drivers/r_spibsc/src/lld/r_spibsc_lld_rza2m.c **** void R_SPIBSC_XipStopAccess(void)
2260:../generate/drivers/r_spibsc/src/lld/r_spibsc_lld_rza2m.c **** {
 3401              		.loc 1 2260 0
 3402              		.cfi_startproc
 3403              		@ args = 0, pretend = 0, frame = 0
 3404              		@ frame_needed = 0, uses_anonymous_args = 0
 3405 0000 10402DE9 		push	{r4, lr}
 3406              		.cfi_def_cfa_offset 8
 3407              		.cfi_offset 4, -8
 3408              		.cfi_offset 14, -4
2261:../generate/drivers/r_spibsc/src/lld/r_spibsc_lld_rza2m.c ****     r_spibsc_xip_stop_access();
 3409              		.loc 1 2261 0
 3410 0004 FEFFFFEB 		bl	r_spibsc_xip_stop_access
 3411              	.LVL402:
2262:../generate/drivers/r_spibsc/src/lld/r_spibsc_lld_rza2m.c **** }
 3412              		.loc 1 2262 0
 3413 0008 1080BDE8 		pop	{r4, pc}
 3414              		.cfi_endproc
 3415              	.LFE50:
 3417              		.section	.text.R_SPIBSC_GetVersion,"ax",%progbits
 3418              		.align	2
 3419              		.global	R_SPIBSC_GetVersion
 3420              		.syntax unified
 3421              		.arm
 3422              		.fpu neon
 3424              	R_SPIBSC_GetVersion:
 3425              	.LFB51:
2263:../generate/drivers/r_spibsc/src/lld/r_spibsc_lld_rza2m.c **** /*******************************************************************************
2264:../generate/drivers/r_spibsc/src/lld/r_spibsc_lld_rza2m.c **** End of function R_SPIBSC_XipStopAccess
2265:../generate/drivers/r_spibsc/src/lld/r_spibsc_lld_rza2m.c **** *******************************************************************************/
2266:../generate/drivers/r_spibsc/src/lld/r_spibsc_lld_rza2m.c **** 
2267:../generate/drivers/r_spibsc/src/lld/r_spibsc_lld_rza2m.c **** 
2268:../generate/drivers/r_spibsc/src/lld/r_spibsc_lld_rza2m.c **** /**
2269:../generate/drivers/r_spibsc/src/lld/r_spibsc_lld_rza2m.c ****  * @brief          R_SPIBSC_GetVersion
2270:../generate/drivers/r_spibsc/src/lld/r_spibsc_lld_rza2m.c ****  *                 Obtains driver specific version information which is used for
2271:../generate/drivers/r_spibsc/src/lld/r_spibsc_lld_rza2m.c ****  *                 reporting
2272:../generate/drivers/r_spibsc/src/lld/r_spibsc_lld_rza2m.c ****  * @param[out]     p_ver_info: driver version information is populated into
2273:../generate/drivers/r_spibsc/src/lld/r_spibsc_lld_rza2m.c ****  *                               this structure
2274:../generate/drivers/r_spibsc/src/lld/r_spibsc_lld_rza2m.c ****  *                               @note the structure resources are created by
2275:../generate/drivers/r_spibsc/src/lld/r_spibsc_lld_rza2m.c ****  *                                     the application not this function.
2276:../generate/drivers/r_spibsc/src/lld/r_spibsc_lld_rza2m.c ****  * @retval         DRV_SUCCESS  Successful operation (always)
2277:../generate/drivers/r_spibsc/src/lld/r_spibsc_lld_rza2m.c ****  */
2278:../generate/drivers/r_spibsc/src/lld/r_spibsc_lld_rza2m.c **** int_t R_SPIBSC_GetVersion(st_ver_info_t *p_ver_info)
2279:../generate/drivers/r_spibsc/src/lld/r_spibsc_lld_rza2m.c **** {
 3426              		.loc 1 2279 0
 3427              		.cfi_startproc
 3428              		@ args = 0, pretend = 0, frame = 0
 3429              		@ frame_needed = 0, uses_anonymous_args = 0
 3430              		@ link register save eliminated.
 3431              	.LVL403:
 3432 0000 0030A0E1 		mov	r3, r0
2280:../generate/drivers/r_spibsc/src/lld/r_spibsc_lld_rza2m.c ****     p_ver_info->lld.p_szdriver_name = gs_lld_info.p_szdriver_name;
 3433              		.loc 1 2280 0
 3434 0004 002000E3 		movw	r2, #:lower16:.LC0
 3435 0008 002040E3 		movt	r2, #:upper16:.LC0
 3436 000c 142080E5 		str	r2, [r0, #20]
2281:../generate/drivers/r_spibsc/src/lld/r_spibsc_lld_rza2m.c ****     p_ver_info->lld.version.sub.major = gs_lld_info.version.sub.major;
 3437              		.loc 1 2281 0
 3438 0010 0120A0E3 		mov	r2, #1
 3439 0014 BE20C0E1 		strh	r2, [r0, #14]	@ movhi
2282:../generate/drivers/r_spibsc/src/lld/r_spibsc_lld_rza2m.c ****     p_ver_info->lld.version.sub.minor = gs_lld_info.version.sub.minor;
 3440              		.loc 1 2282 0
 3441 0018 BC20C0E1 		strh	r2, [r0, #12]	@ movhi
2283:../generate/drivers/r_spibsc/src/lld/r_spibsc_lld_rza2m.c ****     p_ver_info->lld.build = gs_lld_info.build;
 3442              		.loc 1 2283 0
 3443 001c 0000A0E3 		mov	r0, #0
 3444              	.LVL404:
 3445 0020 100083E5 		str	r0, [r3, #16]
2284:../generate/drivers/r_spibsc/src/lld/r_spibsc_lld_rza2m.c **** 
2285:../generate/drivers/r_spibsc/src/lld/r_spibsc_lld_rza2m.c ****     return DRV_SUCCESS;
2286:../generate/drivers/r_spibsc/src/lld/r_spibsc_lld_rza2m.c **** }
 3446              		.loc 1 2286 0
 3447 0024 1EFF2FE1 		bx	lr
 3448              		.cfi_endproc
 3449              	.LFE51:
 3451              		.section	.bss.gs_ok_ng_result,"aw",%nobits
 3452              		.align	2
 3453              		.set	.LANCHOR3,. + 0
 3456              	gs_ok_ng_result:
 3457 0000 00000000 		.space	13
 3457      00000000 
 3457      00000000 
 3457      00
 3458              		.section	.rodata.R_SPIBSC_GetVersion.str1.4,"aMS",%progbits,1
 3459              		.align	2
 3460              	.LC0:
 3461 0000 4C4C4420 		.ascii	"LLD EBK_RZA2M.SPIBSC\000"
 3461      45424B5F 
 3461      525A4132 
 3461      4D2E5350 
 3461      49425343 
 3462              		.section	.rodata.gs_command_table,"a",%progbits
 3463              		.align	2
 3464              		.set	.LANCHOR0,. + 0
 3467              	gs_command_table:
 3468 0000 52454144 		.ascii	"READ STATUS\000"
 3468      20535441 
 3468      54555300 
 3469 000c 00000000 		.space	8
 3469      00000000 
 3470 0014 05       		.byte	5
 3471 0015 00       		.byte	0
 3472 0016 01       		.byte	1
 3473 0017 00       		.byte	0
 3474 0018 00       		.byte	0
 3475 0019 00       		.byte	0
 3476 001a 00       		.byte	0
 3477 001b 00       		.byte	0
 3478 001c 00       		.byte	0
 3479 001d 00       		.byte	0
 3480 001e 00       		.byte	0
 3481 001f 00       		.byte	0
 3482 0020 00       		.byte	0
 3483 0021 00       		.byte	0
 3484 0022 00       		.byte	0
 3485 0023 00       		.byte	0
 3486 0024 00       		.byte	0
 3487 0025 00       		.byte	0
 3488 0026 00       		.byte	0
 3489 0027 00       		.byte	0
 3490 0028 00       		.byte	0
 3491 0029 00       		.byte	0
 3492 002a 00       		.byte	0
 3493 002b 03       		.byte	3
 3494 002c 03       		.byte	3
 3495 002d 03       		.byte	3
 3496 002e 03       		.byte	3
 3497 002f 03       		.byte	3
 3498 0030 03       		.byte	3
 3499 0031 03       		.byte	3
 3500 0032 52454144 		.ascii	"READ CONFIGURATION\000"
 3500      20434F4E 
 3500      46494755 
 3500      52415449 
 3500      4F4E00
 3501 0045 00       		.space	1
 3502 0046 15       		.byte	21
 3503 0047 00       		.byte	0
 3504 0048 01       		.byte	1
 3505 0049 00       		.byte	0
 3506 004a 00       		.byte	0
 3507 004b 00       		.byte	0
 3508 004c 00       		.byte	0
 3509 004d 00       		.byte	0
 3510 004e 00       		.byte	0
 3511 004f 00       		.byte	0
 3512 0050 00       		.byte	0
 3513 0051 00       		.byte	0
 3514 0052 00       		.byte	0
 3515 0053 00       		.byte	0
 3516 0054 00       		.byte	0
 3517 0055 00       		.byte	0
 3518 0056 00       		.byte	0
 3519 0057 00       		.byte	0
 3520 0058 00       		.byte	0
 3521 0059 00       		.byte	0
 3522 005a 00       		.byte	0
 3523 005b 00       		.byte	0
 3524 005c 00       		.byte	0
 3525 005d 03       		.byte	3
 3526 005e 03       		.byte	3
 3527 005f 03       		.byte	3
 3528 0060 03       		.byte	3
 3529 0061 03       		.byte	3
 3530 0062 03       		.byte	3
 3531 0063 03       		.byte	3
 3532 0064 57524954 		.ascii	"WRITE ENABLE\000"
 3532      4520454E 
 3532      41424C45 
 3532      00
 3533 0071 00000000 		.space	7
 3533      000000
 3534 0078 06       		.byte	6
 3535 0079 00       		.byte	0
 3536 007a 01       		.byte	1
 3537 007b 00       		.byte	0
 3538 007c 00       		.byte	0
 3539 007d 00       		.byte	0
 3540 007e 00       		.byte	0
 3541 007f 00       		.byte	0
 3542 0080 00       		.byte	0
 3543 0081 00       		.byte	0
 3544 0082 00       		.byte	0
 3545 0083 00       		.byte	0
 3546 0084 00       		.byte	0
 3547 0085 00       		.byte	0
 3548 0086 00       		.byte	0
 3549 0087 00       		.byte	0
 3550 0088 00       		.byte	0
 3551 0089 00       		.byte	0
 3552 008a 00       		.byte	0
 3553 008b 00       		.byte	0
 3554 008c 00       		.byte	0
 3555 008d 00       		.byte	0
 3556 008e 00       		.byte	0
 3557 008f 03       		.byte	3
 3558 0090 03       		.byte	3
 3559 0091 03       		.byte	3
 3560 0092 03       		.byte	3
 3561 0093 03       		.byte	3
 3562 0094 03       		.byte	3
 3563 0095 03       		.byte	3
 3564 0096 57524954 		.ascii	"WRITE STATUS\000"
 3564      45205354 
 3564      41545553 
 3564      00
 3565 00a3 00000000 		.space	7
 3565      000000
 3566 00aa 01       		.byte	1
 3567 00ab 00       		.byte	0
 3568 00ac 01       		.byte	1
 3569 00ad 00       		.byte	0
 3570 00ae 00       		.byte	0
 3571 00af 00       		.byte	0
 3572 00b0 00       		.byte	0
 3573 00b1 00       		.byte	0
 3574 00b2 00       		.byte	0
 3575 00b3 00       		.byte	0
 3576 00b4 00       		.byte	0
 3577 00b5 00       		.byte	0
 3578 00b6 00       		.byte	0
 3579 00b7 00       		.byte	0
 3580 00b8 00       		.byte	0
 3581 00b9 00       		.byte	0
 3582 00ba 00       		.byte	0
 3583 00bb 00       		.byte	0
 3584 00bc 00       		.byte	0
 3585 00bd 00       		.byte	0
 3586 00be 00       		.byte	0
 3587 00bf 00       		.byte	0
 3588 00c0 00       		.byte	0
 3589 00c1 03       		.byte	3
 3590 00c2 01       		.byte	1
 3591 00c3 03       		.byte	3
 3592 00c4 03       		.byte	3
 3593 00c5 03       		.byte	3
 3594 00c6 01       		.byte	1
 3595 00c7 03       		.byte	3
 3596 00c8 52444944 		.ascii	"RDID\000"
 3596      00
 3597 00cd 00000000 		.space	15
 3597      00000000 
 3597      00000000 
 3597      000000
 3598 00dc 9F       		.byte	-97
 3599 00dd 00       		.byte	0
 3600 00de 01       		.byte	1
 3601 00df 00       		.byte	0
 3602 00e0 00       		.byte	0
 3603 00e1 00       		.byte	0
 3604 00e2 00       		.byte	0
 3605 00e3 00       		.byte	0
 3606 00e4 00       		.byte	0
 3607 00e5 00       		.byte	0
 3608 00e6 00       		.byte	0
 3609 00e7 00       		.byte	0
 3610 00e8 00       		.byte	0
 3611 00e9 00       		.byte	0
 3612 00ea 00       		.byte	0
 3613 00eb 00       		.byte	0
 3614 00ec 00       		.byte	0
 3615 00ed 00       		.byte	0
 3616 00ee 00       		.byte	0
 3617 00ef 00       		.byte	0
 3618 00f0 00       		.byte	0
 3619 00f1 00       		.byte	0
 3620 00f2 00       		.byte	0
 3621 00f3 03       		.byte	3
 3622 00f4 03       		.byte	3
 3623 00f5 03       		.byte	3
 3624 00f6 03       		.byte	3
 3625 00f7 03       		.byte	3
 3626 00f8 03       		.byte	3
 3627 00f9 03       		.byte	3
 3628 00fa 34445452 		.ascii	"4DTRD4B\000"
 3628      44344200 
 3629 0102 00000000 		.space	12
 3629      00000000 
 3629      00000000 
 3630 010e EE       		.byte	-18
 3631 010f 00       		.byte	0
 3632 0110 01       		.byte	1
 3633 0111 00       		.byte	0
 3634 0112 00       		.byte	0
 3635 0113 00       		.byte	0
 3636 0114 02       		.byte	2
 3637 0115 0F       		.byte	15
 3638 0116 01       		.byte	1
 3639 0117 02       		.byte	2
 3640 0118 08       		.byte	8
 3641 0119 01       		.byte	1
 3642 011a 00       		.byte	0
 3643 011b 00       		.byte	0
 3644 011c 00       		.byte	0
 3645 011d 00       		.byte	0
 3646 011e 00       		.byte	0
 3647 011f 01       		.byte	1
 3648 0120 06       		.byte	6
 3649 0121 02       		.byte	2
 3650 0122 01       		.byte	1
 3651 0123 00       		.byte	0
 3652 0124 00       		.byte	0
 3653 0125 03       		.byte	3
 3654 0126 03       		.byte	3
 3655 0127 03       		.byte	3
 3656 0128 03       		.byte	3
 3657 0129 03       		.byte	3
 3658 012a 03       		.byte	3
 3659 012b 03       		.byte	3
 3660 012c 34524541 		.ascii	"4READ4B\000"
 3660      44344200 
 3661 0134 00000000 		.space	12
 3661      00000000 
 3661      00000000 
 3662 0140 EC       		.byte	-20
 3663 0141 00       		.byte	0
 3664 0142 01       		.byte	1
 3665 0143 00       		.byte	0
 3666 0144 00       		.byte	0
 3667 0145 00       		.byte	0
 3668 0146 02       		.byte	2
 3669 0147 0F       		.byte	15
 3670 0148 00       		.byte	0
 3671 0149 02       		.byte	2
 3672 014a 08       		.byte	8
 3673 014b 00       		.byte	0
 3674 014c 00       		.byte	0
 3675 014d 00       		.byte	0
 3676 014e 00       		.byte	0
 3677 014f 00       		.byte	0
 3678 0150 00       		.byte	0
 3679 0151 01       		.byte	1
 3680 0152 01       		.byte	1
 3681 0153 02       		.byte	2
 3682 0154 00       		.byte	0
 3683 0155 00       		.byte	0
 3684 0156 00       		.byte	0
 3685 0157 03       		.byte	3
 3686 0158 03       		.byte	3
 3687 0159 03       		.byte	3
 3688 015a 03       		.byte	3
 3689 015b 03       		.byte	3
 3690 015c 03       		.byte	3
 3691 015d 03       		.byte	3
 3692 015e 34505034 		.ascii	"4PP4B\000"
 3692      4200
 3693 0164 00000000 		.space	14
 3693      00000000 
 3693      00000000 
 3693      0000
 3694 0172 3E       		.byte	62
 3695 0173 00       		.byte	0
 3696 0174 01       		.byte	1
 3697 0175 00       		.byte	0
 3698 0176 00       		.byte	0
 3699 0177 00       		.byte	0
 3700 0178 02       		.byte	2
 3701 0179 0F       		.byte	15
 3702 017a 00       		.byte	0
 3703 017b 00       		.byte	0
 3704 017c 00       		.byte	0
 3705 017d 00       		.byte	0
 3706 017e 00       		.byte	0
 3707 017f 00       		.byte	0
 3708 0180 00       		.byte	0
 3709 0181 00       		.byte	0
 3710 0182 00       		.byte	0
 3711 0183 00       		.byte	0
 3712 0184 00       		.byte	0
 3713 0185 02       		.byte	2
 3714 0186 00       		.byte	0
 3715 0187 00       		.byte	0
 3716 0188 00       		.byte	0
 3717 0189 03       		.byte	3
 3718 018a 03       		.byte	3
 3719 018b 03       		.byte	3
 3720 018c 03       		.byte	3
 3721 018d 03       		.byte	3
 3722 018e 03       		.byte	3
 3723 018f 03       		.byte	3
 3724 0190 53453442 		.ascii	"SE4B\000"
 3724      00
 3725 0195 00000000 		.space	15
 3725      00000000 
 3725      00000000 
 3725      000000
 3726 01a4 21       		.byte	33
 3727 01a5 00       		.byte	0
 3728 01a6 01       		.byte	1
 3729 01a7 00       		.byte	0
 3730 01a8 00       		.byte	0
 3731 01a9 00       		.byte	0
 3732 01aa 00       		.byte	0
 3733 01ab 0F       		.byte	15
 3734 01ac 00       		.byte	0
 3735 01ad 00       		.byte	0
 3736 01ae 00       		.byte	0
 3737 01af 00       		.byte	0
 3738 01b0 00       		.byte	0
 3739 01b1 00       		.byte	0
 3740 01b2 00       		.byte	0
 3741 01b3 00       		.byte	0
 3742 01b4 00       		.byte	0
 3743 01b5 00       		.byte	0
 3744 01b6 00       		.byte	0
 3745 01b7 00       		.byte	0
 3746 01b8 00       		.byte	0
 3747 01b9 00       		.byte	0
 3748 01ba 00       		.byte	0
 3749 01bb 03       		.byte	3
 3750 01bc 03       		.byte	3
 3751 01bd 03       		.byte	3
 3752 01be 03       		.byte	3
 3753 01bf 03       		.byte	3
 3754 01c0 03       		.byte	3
 3755 01c1 03       		.byte	3
 3756              		.section	.rodata.gs_spibsc_phy_adj,"a",%progbits
 3757              		.align	2
 3758              		.set	.LANCHOR2,. + 0
 3761              	gs_spibsc_phy_adj:
 3762 0000 01       		.byte	1
 3763 0001 03       		.byte	3
 3764 0002 11       		.byte	17
 3765 0003 03       		.byte	3
 3766 0004 01       		.byte	1
 3767 0005 02       		.byte	2
 3768 0006 11       		.byte	17
 3769 0007 02       		.byte	2
 3770 0008 01       		.byte	1
 3771 0009 01       		.byte	1
 3772 000a 00       		.byte	0
 3773 000b 03       		.byte	3
 3774 000c 10       		.byte	16
 3775 000d 03       		.byte	3
 3776 000e 00       		.byte	0
 3777 000f 02       		.byte	2
 3778 0010 10       		.byte	16
 3779 0011 02       		.byte	2
 3780 0012 00       		.byte	0
 3781 0013 01       		.byte	1
 3782 0014 10       		.byte	16
 3783 0015 01       		.byte	1
 3784 0016 00       		.byte	0
 3785 0017 00       		.byte	0
 3786 0018 10       		.byte	16
 3787 0019 00       		.byte	0
 3788              		.section	.rodata.gs_xip_read_table,"a",%progbits
 3789              		.align	2
 3790              		.set	.LANCHOR1,. + 0
 3793              	gs_xip_read_table:
 3794 0000 34424954 		.ascii	"4BIT_DDR_READ\000"
 3794      5F444452 
 3794      5F524541 
 3794      4400
 3795 000e 00000000 		.space	6
 3795      0000
 3796 0014 EE       		.byte	-18
 3797 0015 00       		.byte	0
 3798 0016 01       		.byte	1
 3799 0017 00       		.byte	0
 3800 0018 00       		.byte	0
 3801 0019 00       		.byte	0
 3802 001a 02       		.byte	2
 3803 001b 0F       		.byte	15
 3804 001c 01       		.byte	1
 3805 001d 00       		.byte	0
 3806 001e 00       		.byte	0
 3807 001f 02       		.byte	2
 3808 0020 08       		.byte	8
 3809 0021 01       		.byte	1
 3810 0022 00       		.byte	0
 3811 0023 00       		.byte	0
 3812 0024 00       		.byte	0
 3813 0025 00       		.byte	0
 3814 0026 00       		.byte	0
 3815 0027 01       		.byte	1
 3816 0028 06       		.byte	6
 3817 0029 02       		.byte	2
 3818 002a 01       		.byte	1
 3819 002b 03       		.byte	3
 3820 002c 03       		.byte	3
 3821 002d 03       		.byte	3
 3822 002e 03       		.byte	3
 3823 002f 03       		.byte	3
 3824 0030 03       		.byte	3
 3825 0031 03       		.byte	3
 3826 0032 34424954 		.ascii	"4BIT_SDR_READ\000"
 3826      5F534452 
 3826      5F524541 
 3826      4400
 3827 0040 00000000 		.space	6
 3827      0000
 3828 0046 EC       		.byte	-20
 3829 0047 00       		.byte	0
 3830 0048 01       		.byte	1
 3831 0049 00       		.byte	0
 3832 004a 00       		.byte	0
 3833 004b 00       		.byte	0
 3834 004c 02       		.byte	2
 3835 004d 0F       		.byte	15
 3836 004e 00       		.byte	0
 3837 004f 00       		.byte	0
 3838 0050 00       		.byte	0
 3839 0051 02       		.byte	2
 3840 0052 08       		.byte	8
 3841 0053 00       		.byte	0
 3842 0054 00       		.byte	0
 3843 0055 00       		.byte	0
 3844 0056 00       		.byte	0
 3845 0057 00       		.byte	0
 3846 0058 00       		.byte	0
 3847 0059 01       		.byte	1
 3848 005a 01       		.byte	1
 3849 005b 02       		.byte	2
 3850 005c 00       		.byte	0
 3851 005d 03       		.byte	3
 3852 005e 03       		.byte	3
 3853 005f 03       		.byte	3
 3854 0060 03       		.byte	3
 3855 0061 03       		.byte	3
 3856 0062 03       		.byte	3
 3857 0063 03       		.byte	3
 3858              		.text
 3859              	.Letext0:
 3860              		.file 2 "D:/Project/e2_studio/workspace2/RZA2M_DRP_Benchmark_V1.0.0/RZA2M_DRP_Benchmark_V1.0.0/boo
 3861              		.file 3 "D:/Project/e2_studio/workspace2/RZA2M_DRP_Benchmark_V1.0.0/RZA2M_DRP_Benchmark_V1.0.0/boo
 3862              		.file 4 "D:/Project/e2_studio/workspace2/RZA2M_DRP_Benchmark_V1.0.0/RZA2M_DRP_Benchmark_V1.0.0/boo
 3863              		.file 5 "c:\\program files (x86)\\gnu tools arm embedded\\7 2017-q4-major\\arm-none-eabi\\include\
 3864              		.file 6 "c:\\program files (x86)\\gnu tools arm embedded\\7 2017-q4-major\\arm-none-eabi\\include\
 3865              		.file 7 "c:\\program files (x86)\\gnu tools arm embedded\\7 2017-q4-major\\arm-none-eabi\\include\
 3866              		.file 8 "c:\\program files (x86)\\gnu tools arm embedded\\7 2017-q4-major\\arm-none-eabi\\include\
 3867              		.file 9 "c:\\program files (x86)\\gnu tools arm embedded\\7 2017-q4-major\\lib\\gcc\\arm-none-eabi
 3868              		.file 10 "c:\\program files (x86)\\gnu tools arm embedded\\7 2017-q4-major\\arm-none-eabi\\include
 3869              		.file 11 "c:\\program files (x86)\\gnu tools arm embedded\\7 2017-q4-major\\arm-none-eabi\\include
 3870              		.file 12 "D:/Project/e2_studio/workspace2/RZA2M_DRP_Benchmark_V1.0.0/RZA2M_DRP_Benchmark_V1.0.0/bo
 3871              		.file 13 "D:/Project/e2_studio/workspace2/RZA2M_DRP_Benchmark_V1.0.0/RZA2M_DRP_Benchmark_V1.0.0/bo
 3872              		.file 14 "D:/Project/e2_studio/workspace2/RZA2M_DRP_Benchmark_V1.0.0/RZA2M_DRP_Benchmark_V1.0.0/bo
 3873              		.file 15 "D:/Project/e2_studio/workspace2/RZA2M_DRP_Benchmark_V1.0.0/RZA2M_DRP_Benchmark_V1.0.0/bo
 3874              		.file 16 "D:/Project/e2_studio/workspace2/RZA2M_DRP_Benchmark_V1.0.0/RZA2M_DRP_Benchmark_V1.0.0/bo
 3875              		.file 17 "D:/Project/e2_studio/workspace2/RZA2M_DRP_Benchmark_V1.0.0/RZA2M_DRP_Benchmark_V1.0.0/bo
DEFINED SYMBOLS
                            *ABS*:00000000 r_spibsc_lld_rza2m.c
C:\Users\10094\AppData\Local\Temp\ccMog9dl.s:17     .text.spibsc_io_reg_write_8:00000000 $a
C:\Users\10094\AppData\Local\Temp\ccMog9dl.s:22     .text.spibsc_io_reg_write_8:00000000 spibsc_io_reg_write_8
C:\Users\10094\AppData\Local\Temp\ccMog9dl.s:54     .text.spibsc_io_reg_write_16:00000000 $a
C:\Users\10094\AppData\Local\Temp\ccMog9dl.s:59     .text.spibsc_io_reg_write_16:00000000 spibsc_io_reg_write_16
C:\Users\10094\AppData\Local\Temp\ccMog9dl.s:90     .text.spibsc_io_reg_write_32:00000000 $a
C:\Users\10094\AppData\Local\Temp\ccMog9dl.s:95     .text.spibsc_io_reg_write_32:00000000 spibsc_io_reg_write_32
C:\Users\10094\AppData\Local\Temp\ccMog9dl.s:122    .text.spibsc_io_reg_read_8:00000000 $a
C:\Users\10094\AppData\Local\Temp\ccMog9dl.s:127    .text.spibsc_io_reg_read_8:00000000 spibsc_io_reg_read_8
C:\Users\10094\AppData\Local\Temp\ccMog9dl.s:155    .text.spibsc_io_reg_read_32:00000000 $a
C:\Users\10094\AppData\Local\Temp\ccMog9dl.s:160    .text.spibsc_io_reg_read_32:00000000 spibsc_io_reg_read_32
C:\Users\10094\AppData\Local\Temp\ccMog9dl.s:185    .text.r_spibsc_common_spiflash_init:00000000 $a
C:\Users\10094\AppData\Local\Temp\ccMog9dl.s:190    .text.r_spibsc_common_spiflash_init:00000000 r_spibsc_common_spiflash_init
C:\Users\10094\AppData\Local\Temp\ccMog9dl.s:510    .text.r_spibsc_port_voltage_setting:00000000 $a
C:\Users\10094\AppData\Local\Temp\ccMog9dl.s:515    .text.r_spibsc_port_voltage_setting:00000000 r_spibsc_port_voltage_setting
C:\Users\10094\AppData\Local\Temp\ccMog9dl.s:564    .text.r_spibsc_port_current_setting:00000000 $a
C:\Users\10094\AppData\Local\Temp\ccMog9dl.s:569    .text.r_spibsc_port_current_setting:00000000 r_spibsc_port_current_setting
C:\Users\10094\AppData\Local\Temp\ccMog9dl.s:702    .text.r_spibsc_manual_assert_ssl:00000000 $a
C:\Users\10094\AppData\Local\Temp\ccMog9dl.s:707    .text.r_spibsc_manual_assert_ssl:00000000 r_spibsc_manual_assert_ssl
C:\Users\10094\AppData\Local\Temp\ccMog9dl.s:731    .text.r_spibsc_manual_negate_ssl:00000000 $a
C:\Users\10094\AppData\Local\Temp\ccMog9dl.s:736    .text.r_spibsc_manual_negate_ssl:00000000 r_spibsc_manual_negate_ssl
C:\Users\10094\AppData\Local\Temp\ccMog9dl.s:760    .text.r_spibsc_manual_set_command:00000000 $a
C:\Users\10094\AppData\Local\Temp\ccMog9dl.s:765    .text.r_spibsc_manual_set_command:00000000 r_spibsc_manual_set_command
C:\Users\10094\AppData\Local\Temp\ccMog9dl.s:826    .text.r_spibsc_manual_set_optional_command:00000000 $a
C:\Users\10094\AppData\Local\Temp\ccMog9dl.s:831    .text.r_spibsc_manual_set_optional_command:00000000 r_spibsc_manual_set_optional_command
C:\Users\10094\AppData\Local\Temp\ccMog9dl.s:892    .text.r_spibsc_manual_set_address:00000000 $a
C:\Users\10094\AppData\Local\Temp\ccMog9dl.s:897    .text.r_spibsc_manual_set_address:00000000 r_spibsc_manual_set_address
C:\Users\10094\AppData\Local\Temp\ccMog9dl.s:1026   .text.r_spibsc_manual_set_option_data:00000000 $a
C:\Users\10094\AppData\Local\Temp\ccMog9dl.s:1031   .text.r_spibsc_manual_set_option_data:00000000 r_spibsc_manual_set_option_data
C:\Users\10094\AppData\Local\Temp\ccMog9dl.s:1185   .text.r_spibsc_manual_set_dummy_cycle:00000000 $a
C:\Users\10094\AppData\Local\Temp\ccMog9dl.s:1190   .text.r_spibsc_manual_set_dummy_cycle:00000000 r_spibsc_manual_set_dummy_cycle
C:\Users\10094\AppData\Local\Temp\ccMog9dl.s:1240   .text.r_spibsc_manual_set_datatransfer:00000000 $a
C:\Users\10094\AppData\Local\Temp\ccMog9dl.s:1245   .text.r_spibsc_manual_set_datatransfer:00000000 r_spibsc_manual_set_datatransfer
C:\Users\10094\AppData\Local\Temp\ccMog9dl.s:1354   .text.r_spibsc_manual_start_transfer:00000000 $a
C:\Users\10094\AppData\Local\Temp\ccMog9dl.s:1359   .text.r_spibsc_manual_start_transfer:00000000 r_spibsc_manual_start_transfer
C:\Users\10094\AppData\Local\Temp\ccMog9dl.s:1391   .text.r_spibsc_wait_tend:00000000 $a
C:\Users\10094\AppData\Local\Temp\ccMog9dl.s:1396   .text.r_spibsc_wait_tend:00000000 r_spibsc_wait_tend
C:\Users\10094\AppData\Local\Temp\ccMog9dl.s:1422   .text.r_spibsc_manual_read_data0_8:00000000 $a
C:\Users\10094\AppData\Local\Temp\ccMog9dl.s:1427   .text.r_spibsc_manual_read_data0_8:00000000 r_spibsc_manual_read_data0_8
C:\Users\10094\AppData\Local\Temp\ccMog9dl.s:1450   .text.r_spibsc_manual_read_data0_32:00000000 $a
C:\Users\10094\AppData\Local\Temp\ccMog9dl.s:1455   .text.r_spibsc_manual_read_data0_32:00000000 r_spibsc_manual_read_data0_32
C:\Users\10094\AppData\Local\Temp\ccMog9dl.s:1478   .text.r_spibsc_manual_write_data0_8:00000000 $a
C:\Users\10094\AppData\Local\Temp\ccMog9dl.s:1483   .text.r_spibsc_manual_write_data0_8:00000000 r_spibsc_manual_write_data0_8
C:\Users\10094\AppData\Local\Temp\ccMog9dl.s:1509   .text.r_spibsc_manual_write_data0_32:00000000 $a
C:\Users\10094\AppData\Local\Temp\ccMog9dl.s:1514   .text.r_spibsc_manual_write_data0_32:00000000 r_spibsc_manual_write_data0_32
C:\Users\10094\AppData\Local\Temp\ccMog9dl.s:1540   .text.r_spibsc_xip_set_command:00000000 $a
C:\Users\10094\AppData\Local\Temp\ccMog9dl.s:1545   .text.r_spibsc_xip_set_command:00000000 r_spibsc_xip_set_command
C:\Users\10094\AppData\Local\Temp\ccMog9dl.s:1606   .text.r_spibsc_xip_set_optional_command:00000000 $a
C:\Users\10094\AppData\Local\Temp\ccMog9dl.s:1611   .text.r_spibsc_xip_set_optional_command:00000000 r_spibsc_xip_set_optional_command
C:\Users\10094\AppData\Local\Temp\ccMog9dl.s:1672   .text.r_spibsc_xip_set_address:00000000 $a
C:\Users\10094\AppData\Local\Temp\ccMog9dl.s:1677   .text.r_spibsc_xip_set_address:00000000 r_spibsc_xip_set_address
C:\Users\10094\AppData\Local\Temp\ccMog9dl.s:1770   .text.r_spibsc_xip_set_option_data:00000000 $a
C:\Users\10094\AppData\Local\Temp\ccMog9dl.s:1775   .text.r_spibsc_xip_set_option_data:00000000 r_spibsc_xip_set_option_data
C:\Users\10094\AppData\Local\Temp\ccMog9dl.s:1926   .text.r_spibsc_xip_set_dummy_cycle:00000000 $a
C:\Users\10094\AppData\Local\Temp\ccMog9dl.s:1931   .text.r_spibsc_xip_set_dummy_cycle:00000000 r_spibsc_xip_set_dummy_cycle
C:\Users\10094\AppData\Local\Temp\ccMog9dl.s:1981   .text.r_spibsc_xip_set_datatransfer:00000000 $a
C:\Users\10094\AppData\Local\Temp\ccMog9dl.s:1986   .text.r_spibsc_xip_set_datatransfer:00000000 r_spibsc_xip_set_datatransfer
C:\Users\10094\AppData\Local\Temp\ccMog9dl.s:2035   .text.r_spibsc_change_manual_mode:00000000 $a
C:\Users\10094\AppData\Local\Temp\ccMog9dl.s:2040   .text.r_spibsc_change_manual_mode:00000000 r_spibsc_change_manual_mode
C:\Users\10094\AppData\Local\Temp\ccMog9dl.s:2119   .text.r_spibsc_change_xip_mode:00000000 $a
C:\Users\10094\AppData\Local\Temp\ccMog9dl.s:2124   .text.r_spibsc_change_xip_mode:00000000 r_spibsc_change_xip_mode
C:\Users\10094\AppData\Local\Temp\ccMog9dl.s:2203   .text.r_spibsc_flush_read_cache:00000000 $a
C:\Users\10094\AppData\Local\Temp\ccMog9dl.s:2208   .text.r_spibsc_flush_read_cache:00000000 r_spibsc_flush_read_cache
C:\Users\10094\AppData\Local\Temp\ccMog9dl.s:2239   .text.r_spibsc_xip_stop_access:00000000 $a
C:\Users\10094\AppData\Local\Temp\ccMog9dl.s:2244   .text.r_spibsc_xip_stop_access:00000000 r_spibsc_xip_stop_access
C:\Users\10094\AppData\Local\Temp\ccMog9dl.s:2293   .text.r_spibsc_qspi_io_set_output_level:00000000 $a
C:\Users\10094\AppData\Local\Temp\ccMog9dl.s:2298   .text.r_spibsc_qspi_io_set_output_level:00000000 r_spibsc_qspi_io_set_output_level
C:\Users\10094\AppData\Local\Temp\ccMog9dl.s:2373   .text.r_spibsc_get_ok_area_center:00000000 $a
C:\Users\10094\AppData\Local\Temp\ccMog9dl.s:2378   .text.r_spibsc_get_ok_area_center:00000000 r_spibsc_get_ok_area_center
C:\Users\10094\AppData\Local\Temp\ccMog9dl.s:2454   .text.r_spibsc_spi_cmd_issue_read:00000000 $a
C:\Users\10094\AppData\Local\Temp\ccMog9dl.s:2459   .text.r_spibsc_spi_cmd_issue_read:00000000 r_spibsc_spi_cmd_issue_read
C:\Users\10094\AppData\Local\Temp\ccMog9dl.s:3464   .rodata.gs_command_table:00000000 .LANCHOR0
C:\Users\10094\AppData\Local\Temp\ccMog9dl.s:2668   .text.r_spibsc_spi_cmd_issue_write:00000000 $a
C:\Users\10094\AppData\Local\Temp\ccMog9dl.s:2673   .text.r_spibsc_spi_cmd_issue_write:00000000 r_spibsc_spi_cmd_issue_write
C:\Users\10094\AppData\Local\Temp\ccMog9dl.s:2839   .text.R_SPIBSC_Init:00000000 $a
C:\Users\10094\AppData\Local\Temp\ccMog9dl.s:2845   .text.R_SPIBSC_Init:00000000 R_SPIBSC_Init
C:\Users\10094\AppData\Local\Temp\ccMog9dl.s:2884   .text.R_SPIBSC_ChangeMode:00000000 $a
C:\Users\10094\AppData\Local\Temp\ccMog9dl.s:2890   .text.R_SPIBSC_ChangeMode:00000000 R_SPIBSC_ChangeMode
C:\Users\10094\AppData\Local\Temp\ccMog9dl.s:3790   .rodata.gs_xip_read_table:00000000 .LANCHOR1
C:\Users\10094\AppData\Local\Temp\ccMog9dl.s:2998   .text.R_SPIBSC_SPICMDIssue:00000000 $a
C:\Users\10094\AppData\Local\Temp\ccMog9dl.s:3004   .text.R_SPIBSC_SPICMDIssue:00000000 R_SPIBSC_SPICMDIssue
C:\Users\10094\AppData\Local\Temp\ccMog9dl.s:3160   .text.R_SPIBSC_AdjustPhy:00000000 $a
C:\Users\10094\AppData\Local\Temp\ccMog9dl.s:3166   .text.R_SPIBSC_AdjustPhy:00000000 R_SPIBSC_AdjustPhy
C:\Users\10094\AppData\Local\Temp\ccMog9dl.s:3453   .bss.gs_ok_ng_result:00000000 .LANCHOR3
C:\Users\10094\AppData\Local\Temp\ccMog9dl.s:3758   .rodata.gs_spibsc_phy_adj:00000000 .LANCHOR2
C:\Users\10094\AppData\Local\Temp\ccMog9dl.s:3368   .text.R_SPIBSC_FlushReadCache:00000000 $a
C:\Users\10094\AppData\Local\Temp\ccMog9dl.s:3374   .text.R_SPIBSC_FlushReadCache:00000000 R_SPIBSC_FlushReadCache
C:\Users\10094\AppData\Local\Temp\ccMog9dl.s:3393   .text.R_SPIBSC_XipStopAccess:00000000 $a
C:\Users\10094\AppData\Local\Temp\ccMog9dl.s:3399   .text.R_SPIBSC_XipStopAccess:00000000 R_SPIBSC_XipStopAccess
C:\Users\10094\AppData\Local\Temp\ccMog9dl.s:3418   .text.R_SPIBSC_GetVersion:00000000 $a
C:\Users\10094\AppData\Local\Temp\ccMog9dl.s:3424   .text.R_SPIBSC_GetVersion:00000000 R_SPIBSC_GetVersion
C:\Users\10094\AppData\Local\Temp\ccMog9dl.s:3460   .rodata.R_SPIBSC_GetVersion.str1.4:00000000 .LC0
C:\Users\10094\AppData\Local\Temp\ccMog9dl.s:3452   .bss.gs_ok_ng_result:00000000 $d
C:\Users\10094\AppData\Local\Temp\ccMog9dl.s:3456   .bss.gs_ok_ng_result:00000000 gs_ok_ng_result
C:\Users\10094\AppData\Local\Temp\ccMog9dl.s:3459   .rodata.R_SPIBSC_GetVersion.str1.4:00000000 $d
C:\Users\10094\AppData\Local\Temp\ccMog9dl.s:3463   .rodata.gs_command_table:00000000 $d
C:\Users\10094\AppData\Local\Temp\ccMog9dl.s:3467   .rodata.gs_command_table:00000000 gs_command_table
C:\Users\10094\AppData\Local\Temp\ccMog9dl.s:3757   .rodata.gs_spibsc_phy_adj:00000000 $d
C:\Users\10094\AppData\Local\Temp\ccMog9dl.s:3761   .rodata.gs_spibsc_phy_adj:00000000 gs_spibsc_phy_adj
C:\Users\10094\AppData\Local\Temp\ccMog9dl.s:3789   .rodata.gs_xip_read_table:00000000 $d
C:\Users\10094\AppData\Local\Temp\ccMog9dl.s:3793   .rodata.gs_xip_read_table:00000000 gs_xip_read_table
                           .group:00000000 wm4.0.5abf75bd0eb20652be5d61cc56051b9b
                           .group:00000000 wm4.adc_iodefine.h.29.14c6f50dce37432a7d004e4b1ce33da7
                           .group:00000000 wm4.bsc_iodefine.h.29.9281d1f3639266933964d6d0c2d42c4f
                           .group:00000000 wm4.ceu_iodefine.h.29.2a669d0b46fdde030a50db9e3c307fbf
                           .group:00000000 wm4.cpg_iodefine.h.29.d6fdc9cb4798723afd88b251d64c2ce2
                           .group:00000000 wm4.csi2link_iodefine.h.29.221c4531636a409f24d307b16341ada8
                           .group:00000000 wm4.dmac_iodefine.h.29.578fccc2cc1da886ec95a029bf874f01
                           .group:00000000 wm4.drpk_iodefine.h.29.580eb8588a2b2d43d2726fbe791e513f
                           .group:00000000 wm4.drw_iodefine.h.29.df30f4a4a34a79f6a86c4df91353dffe
                           .group:00000000 wm4.edmac_iodefine.h.29.33e8759349004a722f42f5429c1353f6
                           .group:00000000 wm4.eptpc_iodefine.h.29.74d8f9fab0f5549b56097fb9e937dde8
                           .group:00000000 wm4.etherc_iodefine.h.29.14602750383a574f1c21f994ad33a366
                           .group:00000000 wm4.gpio_iodefine.h.29.3d0b021c56839cee4ae5149903684e4b
                           .group:00000000 wm4.gpt_iodefine.h.29.557ead75d7b0585b898d3898b64c7f87
                           .group:00000000 wm4.hyper_iodefine.h.29.000caadbb74d881e97db55b39b432154
                           .group:00000000 wm4.imr_iodefine.h.29.77c022f017e711c4d51cc0145db1dad3
                           .group:00000000 wm4.intc_iodefine.h.29.b68f5799a35a7495d63b4cd458e1ba57
                           .group:00000000 wm4.irda_iodefine.h.29.37e67bd2005173d68a74d1cc937d8444
                           .group:00000000 wm4.jcu_iodefine.h.29.3aca452908962e7a7ccf26164751feda
                           .group:00000000 wm4.lvds_iodefine.h.29.c11cbe1900e5209c8dcc76c2336c16bc
                           .group:00000000 wm4.mtu_iodefine.h.29.5498fb974bb53caf05aa143c2deec781
                           .group:00000000 wm4.nandc_iodefine.h.29.e0b343306750f017ee86e169ad98efe9
                           .group:00000000 wm4.octa_iodefine.h.29.07f258f06288ca2075168d59626c2aac
                           .group:00000000 wm4.ostm_iodefine.h.29.6914f7e330a1cf0008b34219adcdfed4
                           .group:00000000 wm4.pl_iodefine.h.29.abbb6d725aed990aa8343242bfe31416
                           .group:00000000 wm4.pmg_iodefine.h.29.8bcfbc4771a6f9b7dd4d6f504427219e
                           .group:00000000 wm4.poeg_iodefine.h.29.0d8e258d10986260cbc70cfb8c0ef273
                           .group:00000000 wm4.poe_iodefine.h.29.fe74e55e7b6b4afbe3596c74ba035e98
                           .group:00000000 wm4.prr_iodefine.h.29.c1f15576f7a27b9c83aa3b40f5b2f988
                           .group:00000000 wm4.ptpedmac_iodefine.h.29.cd24a93374ce35cebc41e26889d619ef
                           .group:00000000 wm4.rcanfd_iodefine.h.29.b6feaa6a7ae0ef05da408110e3fc69b1
                           .group:00000000 wm4.rcan_iodefine.h.29.a47a89db1b35c12b54af48fa1956acba
                           .group:00000000 wm4.riic_iodefine.h.29.f96943d49800d297612c4af3bba5c943
                           .group:00000000 wm4.rspi_iodefine.h.29.7efa041fe34a7d27db66a7b337879dfe
                           .group:00000000 wm4.rtc_iodefine.h.29.6dc76be5ca3df69cecb5a81d06cc46b5
                           .group:00000000 wm4.scifa_iodefine.h.29.b04ccd664d71baaf31c75761c45b9c4d
                           .group:00000000 wm4.scim_iodefine.h.29.87d0760abf94446b00d826c797bf0ff2
                           .group:00000000 wm4.sdmmc_iodefine.h.29.e67e9815445e8057a3262d1566bea0db
                           .group:00000000 wm4.spdif_iodefine.h.29.59f5d70150fa200a4d8ee50be1ee34c8
                           .group:00000000 wm4.spibsc_iodefine.h.29.f4930f8b8da1140200204513a363c76f
                           .group:00000000 wm4.sprite_iodefine.h.29.55796d1fa083a2457fea4ece974a192e
                           .group:00000000 wm4.ssif_iodefine.h.29.054ec6d95f487f631f16aee39c85c47a
                           .group:00000000 wm4.usb_iodefine.h.29.6dc44ea388ba227e8fdcfb33c315887b
                           .group:00000000 wm4.vdc_iodefine.h.29.db282ded1f052d8567fbbd3b61ce8f7a
                           .group:00000000 wm4.vin_iodefine.h.29.9b392e5601347d53e64be3272934e170
                           .group:00000000 wm4.wdt_iodefine.h.29.ed07bb44b797072f8c28b41c64fdca30
                           .group:00000000 wm4.stddef.h.39.a38874c8f8a57e66301090908ec2a69f
                           .group:00000000 wm4._newlib_version.h.4.3572908597b70d672d181fc7fc501c19
                           .group:00000000 wm4.features.h.33.d97f2d646536517df901beeb5b9993f5
                           .group:00000000 wm4._default_types.h.15.247e5cd201eca3442cbf5404108c4935
                           .group:00000000 wm4._intsup.h.10.cce27fed8484c08a33f522034c30d2b5
                           .group:00000000 wm4._stdint.h.10.c24fa3af3bc1706662bb5593a907e841
                           .group:00000000 wm4.stdint.h.23.d53047a68f4a85177f80b422d52785ed
                           .group:00000000 wm4.newlib.h.8.e0fd068ed40a600f7426443f865dd469
                           .group:00000000 wm4.ieeefp.h.77.49bcce8a603f3d93a95080d6a3573782
                           .group:00000000 wm4.config.h.220.6cac6a9685cfce5e83c17784171638d9
                           .group:00000000 wm4._ansi.h.23.9f8fcfa20193763fcf364fb91705c94b
                           .group:00000000 wm4.lock.h.2.1461d1fff82dffe8bfddc23307f6484f
                           .group:00000000 wm4._types.h.125.5cf8a495f1f7ef36777ad868a1e32068
                           .group:00000000 wm4.stddef.h.161.5349cb105733e8777bfb0cf53c4e3f34
                           .group:00000000 wm4._types.h.184.7120b8bb2e0149e2359704f4e2251b68
                           .group:00000000 wm4.reent.h.17.87376802c2b370b32a762f0a30482d9e
                           .group:00000000 wm4.cdefs.h.47.d5f52c0838d768c139d665d47892271a
                           .group:00000000 wm4.math.h.13.adb102f7bd7860b1f241e149d6914a1e
                           .group:00000000 wm4.r_typedefs.h.38.e90d9de5300d9ae020e5db8c5af88b3e
                           .group:00000000 wm4.r_spibsc_lld_rza2m_reg.h.41.976b0e72e154b02f742a03dc8c64dccd
                           .group:00000000 wm4.driver.h.36.e845ee112228a323a15767ba5ed55e32
                           .group:00000000 wm4.r_spibsc_lld_rza2m_api.h.50.f9c452986541e72f270c3a76fbeab96c
                           .group:00000000 wm4.iobitmask.h.29.773e8f8428b0c21e1206a8c47a6d3927
                           .group:00000000 wm4.adc_iobitmask.h.29.48ba2821c8a4fc20022447ad9316d399
                           .group:00000000 wm4.bsc_iobitmask.h.29.115d15c4ad4b48e00598dcd62d33c637
                           .group:00000000 wm4.ceu_iobitmask.h.29.413b5b68bb3c2148786493166a57173e
                           .group:00000000 wm4.cpg_iobitmask.h.29.58382d682aa9abf69ab653ac5fe9149b
                           .group:00000000 wm4.csi2link_iobitmask.h.29.701c130cb17627664fe7c147084057cf
                           .group:00000000 wm4.dmac_iobitmask.h.29.98850e876107975c53dc0bb8ebb53eb5
                           .group:00000000 wm4.drpk_iobitmask.h.29.167e7cf6b1feb4d38b8903a46d8c35ac
                           .group:00000000 wm4.drw_iobitmask.h.29.71d46f2244f6e7ae6117fe6c41c5567d
                           .group:00000000 wm4.edmac_iobitmask.h.29.4e406d859155ba914663e1cf61cad89a
                           .group:00000000 wm4.eptpc_iobitmask.h.29.64bcd0a67db3a886572992ae6da8898c
                           .group:00000000 wm4.etherc_iobitmask.h.29.07b13cb10c426023658e5c51f952b6de
                           .group:00000000 wm4.gpio_iobitmask.h.29.ea8c1464682eb61f2d0763b97ed530f9
                           .group:00000000 wm4.gpt_iobitmask.h.29.94173800a704c5ba32e348ba97cd23cf
                           .group:00000000 wm4.hyper_iobitmask.h.29.f09febbc7b835674abe34ae75f3c700d
                           .group:00000000 wm4.imr2_iobitmask.h.29.90b834f92ca4d39c49dda81fe096b5f0
                           .group:00000000 wm4.intc_iobitmask.h.29.6d3be2e47bf3d7eb7e91eeddcab863af
                           .group:00000000 wm4.irda_iobitmask.h.29.6f43dde454e599a1d4a8be2978ac9459
                           .group:00000000 wm4.jcu_iobitmask.h.29.9fd48851a81ff31733aa19b29e4846ad
                           .group:00000000 wm4.lvds_iobitmask.h.29.4a6f69c8911426fa05f0b05eab5f5e15
                           .group:00000000 wm4.mtu_iobitmask.h.29.7a98ba20f3fb30f35d72abcc74524cc2
                           .group:00000000 wm4.nandc_iobitmask.h.29.a3a0f4ae99fdf814aa6f25f430186b14
                           .group:00000000 wm4.octa_iobitmask.h.29.88d29c353902045cc5df621720d36632
                           .group:00000000 wm4.ostm_iobitmask.h.29.38ee9f4e1711e17bd3f38545ba631cde
                           .group:00000000 wm4.pl310_iobitmask.h.29.c1ef5625c0a9d67f24e89fe2fd7e4886
                           .group:00000000 wm4.pmg_iobitmask.h.29.d20cb8352080a58cf6cbf526935d968e
                           .group:00000000 wm4.poe3_iobitmask.h.29.3a3444cc2dbf606e2370573e16d57254
                           .group:00000000 wm4.poeg_iobitmask.h.29.5601eb8cf1161926d683c0720340f85d
                           .group:00000000 wm4.prr_iobitmask.h.29.52f8479a52e2236c122b5956e4bdbfce
                           .group:00000000 wm4.ptpedmac_iobitmask.h.29.494dcb2240ebba7fa20d0c2ab02007f7
                           .group:00000000 wm4.rcanfd_iobitmask.h.29.4376b1b7ff587ba618a622f2c4029df7
                           .group:00000000 wm4.rcan_iobitmask.h.29.c6f8b9b62e8fdc007f8b5f40c1f7e95d
                           .group:00000000 wm4.riic_iobitmask.h.29.b6e4a30b4a750b93bf8b54b204e41e8e
                           .group:00000000 wm4.rspi_iobitmask.h.29.2e257f44186c83ca40dbb0db2548623b
                           .group:00000000 wm4.rtc_iobitmask.h.29.83f9de1730e532ab7dfce6a57bb996ea
                           .group:00000000 wm4.scifa_iobitmask.h.29.c7af830569e0d6a26f3d66e3adc293d7
                           .group:00000000 wm4.scim_iobitmask.h.29.3b5e9d8b03a11c94acd93de96d2037f6
                           .group:00000000 wm4.sdmmc_iobitmask.h.29.023cb9ff953a162569769cc98970f23e
                           .group:00000000 wm4.spdif_iobitmask.h.29.c16f83f628828ab24aa2b72615b93e69
                           .group:00000000 wm4.spibsc_iobitmask.h.29.8ade4a581f57cd5b82569a69eb5f0d67
                           .group:00000000 wm4.sprite_iobitmask.h.29.82888597faf7ebb3bc86b5f1018a2253
                           .group:00000000 wm4.ssif_iobitmask.h.29.482529b431f1ad627a02168620c61eee
                           .group:00000000 wm4.usb_iobitmask.h.29.aae4dfd463dfdd120bf5855c9dc97483
                           .group:00000000 wm4.vdc6_iobitmask.h.29.3ce0a3f9d2209ce71e4fec48b4ecb79a
                           .group:00000000 wm4.vin_iobitmask.h.29.576a1d6e4b2cf6cbd353044865e437f2
                           .group:00000000 wm4.wdt_iobitmask.h.29.c612db09eac33fb3da8d8aaee67287a9
                           .group:00000000 wm4.rza_io_regrw.h.46.8ffd34a4c69bd0fad4b7b3d6d30a6855

UNDEFINED SYMBOLS
g_spibsc_test_pattern
