   1              		.cpu cortex-a9
   2              		.eabi_attribute 28, 1
   3              		.eabi_attribute 20, 1
   4              		.eabi_attribute 21, 1
   5              		.eabi_attribute 23, 3
   6              		.eabi_attribute 24, 1
   7              		.eabi_attribute 25, 1
   8              		.eabi_attribute 26, 1
   9              		.eabi_attribute 30, 1
  10              		.eabi_attribute 34, 0
  11              		.eabi_attribute 18, 4
  12              		.file	"r_cpg_drv_api.c"
  13              		.text
  14              	.Ltext0:
  15              		.cfi_sections	.debug_frame
  16              		.section	.text.cpg_close,"ax",%progbits
  17              		.align	2
  18              		.syntax unified
  19              		.arm
  20              		.fpu neon
  22              	cpg_close:
  23              	.LFB4:
  24              		.file 1 "../generate/drivers/r_cpg/src/hld/r_cpg_drv_api.c"
   1:../generate/drivers/r_cpg/src/hld/r_cpg_drv_api.c **** /*******************************************************************************
   2:../generate/drivers/r_cpg/src/hld/r_cpg_drv_api.c ****  * DISCLAIMER
   3:../generate/drivers/r_cpg/src/hld/r_cpg_drv_api.c ****  * This software is supplied by Renesas Electronics Corporation and is only
   4:../generate/drivers/r_cpg/src/hld/r_cpg_drv_api.c ****  * intended for use with Renesas products. No other uses are authorized. This
   5:../generate/drivers/r_cpg/src/hld/r_cpg_drv_api.c ****  * software is owned by Renesas Electronics Corporation and is protected under
   6:../generate/drivers/r_cpg/src/hld/r_cpg_drv_api.c ****  * all applicable laws, including copyright laws.
   7:../generate/drivers/r_cpg/src/hld/r_cpg_drv_api.c ****  * THIS SOFTWARE IS PROVIDED "AS IS" AND RENESAS MAKES NO WARRANTIES REGARDING
   8:../generate/drivers/r_cpg/src/hld/r_cpg_drv_api.c ****  * THIS SOFTWARE, WHETHER EXPRESS, IMPLIED OR STATUTORY, INCLUDING BUT NOT
   9:../generate/drivers/r_cpg/src/hld/r_cpg_drv_api.c ****  * LIMITED TO WARRANTIES OF MERCHANTABILITY, FITNESS FOR A PARTICULAR PURPOSE
  10:../generate/drivers/r_cpg/src/hld/r_cpg_drv_api.c ****  * AND NON-INFRINGEMENT. ALL SUCH WARRANTIES ARE EXPRESSLY DISCLAIMED.
  11:../generate/drivers/r_cpg/src/hld/r_cpg_drv_api.c ****  * TO THE MAXIMUM EXTENT PERMITTED NOT PROHIBITED BY LAW, NEITHER RENESAS
  12:../generate/drivers/r_cpg/src/hld/r_cpg_drv_api.c ****  * ELECTRONICS CORPORATION NOR ANY OF ITS AFFILIATED COMPANIES SHALL BE LIABLE
  13:../generate/drivers/r_cpg/src/hld/r_cpg_drv_api.c ****  * FOR ANY DIRECT, INDIRECT, SPECIAL, INCIDENTAL OR CONSEQUENTIAL DAMAGES FOR
  14:../generate/drivers/r_cpg/src/hld/r_cpg_drv_api.c ****  * ANY REASON RELATED TO THIS SOFTWARE, EVEN IF RENESAS OR ITS AFFILIATES HAVE
  15:../generate/drivers/r_cpg/src/hld/r_cpg_drv_api.c ****  * BEEN ADVISED OF THE POSSIBILITY OF SUCH DAMAGES.
  16:../generate/drivers/r_cpg/src/hld/r_cpg_drv_api.c ****  * Renesas reserves the right, without notice, to make changes to this software
  17:../generate/drivers/r_cpg/src/hld/r_cpg_drv_api.c ****  * and to discontinue the availability of this software. By using this software,
  18:../generate/drivers/r_cpg/src/hld/r_cpg_drv_api.c ****  * you agree to the additional terms and conditions found by accessing the
  19:../generate/drivers/r_cpg/src/hld/r_cpg_drv_api.c ****  * following link:
  20:../generate/drivers/r_cpg/src/hld/r_cpg_drv_api.c ****  * http://www.renesas.com/disclaimer
  21:../generate/drivers/r_cpg/src/hld/r_cpg_drv_api.c ****  * Copyright (C) 2012 - 2014 Renesas Electronics Corporation. All rights reserved.
  22:../generate/drivers/r_cpg/src/hld/r_cpg_drv_api.c ****  *******************************************************************************/
  23:../generate/drivers/r_cpg/src/hld/r_cpg_drv_api.c **** /*******************************************************************************
  24:../generate/drivers/r_cpg/src/hld/r_cpg_drv_api.c ****  * File Name   : r_cpg_drv_api.c
  25:../generate/drivers/r_cpg/src/hld/r_cpg_drv_api.c ****  * Description : Clock Pulse Generator high layer driver
  26:../generate/drivers/r_cpg/src/hld/r_cpg_drv_api.c ****  *******************************************************************************/
  27:../generate/drivers/r_cpg/src/hld/r_cpg_drv_api.c **** 
  28:../generate/drivers/r_cpg/src/hld/r_cpg_drv_api.c **** /******************************************************************************
  29:../generate/drivers/r_cpg/src/hld/r_cpg_drv_api.c ****  Includes   <System Includes> , "Project Includes"
  30:../generate/drivers/r_cpg/src/hld/r_cpg_drv_api.c ****  ******************************************************************************/
  31:../generate/drivers/r_cpg/src/hld/r_cpg_drv_api.c **** #include <string.h>
  32:../generate/drivers/r_cpg/src/hld/r_cpg_drv_api.c **** #include "r_cpg_drv_link.h"
  33:../generate/drivers/r_cpg/src/hld/r_cpg_drv_api.c **** #include "r_cpg_hld_api.h"
  34:../generate/drivers/r_cpg/src/hld/r_cpg_drv_api.c **** #include "r_cpg_drv_api.h"
  35:../generate/drivers/r_cpg/src/hld/r_cpg_drv_api.c **** #include "r_cpg_drv_sc_cfg.h"
  36:../generate/drivers/r_cpg/src/hld/r_cpg_drv_api.c **** 
  37:../generate/drivers/r_cpg/src/hld/r_cpg_drv_api.c **** /******************************************************************************
  38:../generate/drivers/r_cpg/src/hld/r_cpg_drv_api.c ****  Typedef definitions
  39:../generate/drivers/r_cpg/src/hld/r_cpg_drv_api.c ****  ******************************************************************************/
  40:../generate/drivers/r_cpg/src/hld/r_cpg_drv_api.c **** 
  41:../generate/drivers/r_cpg/src/hld/r_cpg_drv_api.c **** /******************************************************************************
  42:../generate/drivers/r_cpg/src/hld/r_cpg_drv_api.c ****  Macro definitions
  43:../generate/drivers/r_cpg/src/hld/r_cpg_drv_api.c ****  ******************************************************************************/
  44:../generate/drivers/r_cpg/src/hld/r_cpg_drv_api.c **** /* List channels supported */
  45:../generate/drivers/r_cpg/src/hld/r_cpg_drv_api.c **** #define R_CFG_CPG_CHANNELS_SUPPORTED         (0)
  46:../generate/drivers/r_cpg/src/hld/r_cpg_drv_api.c **** 
  47:../generate/drivers/r_cpg/src/hld/r_cpg_drv_api.c **** /* Maximum number of modules that can be granted simultaneous access to this driver  */
  48:../generate/drivers/r_cpg/src/hld/r_cpg_drv_api.c **** #define  R_CFG_CPG_DRV_MAXIMUM_ACCESS_PRV    (1)
  49:../generate/drivers/r_cpg/src/hld/r_cpg_drv_api.c **** 
  50:../generate/drivers/r_cpg/src/hld/r_cpg_drv_api.c **** /******************************************************************************
  51:../generate/drivers/r_cpg/src/hld/r_cpg_drv_api.c ****  Enumerated Types
  52:../generate/drivers/r_cpg/src/hld/r_cpg_drv_api.c ****  ******************************************************************************/
  53:../generate/drivers/r_cpg/src/hld/r_cpg_drv_api.c **** 
  54:../generate/drivers/r_cpg/src/hld/r_cpg_drv_api.c **** /******************************************************************************
  55:../generate/drivers/r_cpg/src/hld/r_cpg_drv_api.c ****  Typedefs
  56:../generate/drivers/r_cpg/src/hld/r_cpg_drv_api.c ****  ******************************************************************************/
  57:../generate/drivers/r_cpg/src/hld/r_cpg_drv_api.c **** typedef struct r_drvcpg
  58:../generate/drivers/r_cpg/src/hld/r_cpg_drv_api.c **** {
  59:../generate/drivers/r_cpg/src/hld/r_cpg_drv_api.c ****     uint32_t access_handles_available;
  60:../generate/drivers/r_cpg/src/hld/r_cpg_drv_api.c ****     uint8_t  drv_free;
  61:../generate/drivers/r_cpg/src/hld/r_cpg_drv_api.c **** } st_r_drv_res_map_t;
  62:../generate/drivers/r_cpg/src/hld/r_cpg_drv_api.c **** 
  63:../generate/drivers/r_cpg/src/hld/r_cpg_drv_api.c **** typedef struct
  64:../generate/drivers/r_cpg/src/hld/r_cpg_drv_api.c **** {
  65:../generate/drivers/r_cpg/src/hld/r_cpg_drv_api.c ****     uint16_t gs_channel_open;
  66:../generate/drivers/r_cpg/src/hld/r_cpg_drv_api.c **** } st_internal_configuration_t;
  67:../generate/drivers/r_cpg/src/hld/r_cpg_drv_api.c **** 
  68:../generate/drivers/r_cpg/src/hld/r_cpg_drv_api.c **** /*****************************************************************************
  69:../generate/drivers/r_cpg/src/hld/r_cpg_drv_api.c ****  Function Prototypes
  70:../generate/drivers/r_cpg/src/hld/r_cpg_drv_api.c ****  ******************************************************************************/
  71:../generate/drivers/r_cpg/src/hld/r_cpg_drv_api.c **** static int_t cpg_open (st_stream_ptr_t stream_ptr);
  72:../generate/drivers/r_cpg/src/hld/r_cpg_drv_api.c **** static void cpg_close (st_stream_ptr_t stream_ptr);
  73:../generate/drivers/r_cpg/src/hld/r_cpg_drv_api.c **** static int_t cpg_control (st_stream_ptr_t stream_ptr, uint32_t ctrl_code, void *ctrl_ptr);
  74:../generate/drivers/r_cpg/src/hld/r_cpg_drv_api.c **** static int_t cpg_get_version (st_stream_ptr_t stream_ptr, st_ver_info_t *pVerInfo);
  75:../generate/drivers/r_cpg/src/hld/r_cpg_drv_api.c **** /*****************************************************************************
  76:../generate/drivers/r_cpg/src/hld/r_cpg_drv_api.c ****  Constant Data
  77:../generate/drivers/r_cpg/src/hld/r_cpg_drv_api.c ****  ******************************************************************************/
  78:../generate/drivers/r_cpg/src/hld/r_cpg_drv_api.c **** 
  79:../generate/drivers/r_cpg/src/hld/r_cpg_drv_api.c **** /******************************************************************************
  80:../generate/drivers/r_cpg/src/hld/r_cpg_drv_api.c ****  Private global variables and functions
  81:../generate/drivers/r_cpg/src/hld/r_cpg_drv_api.c ****  ******************************************************************************/
  82:../generate/drivers/r_cpg/src/hld/r_cpg_drv_api.c **** /*! Version Information */
  83:../generate/drivers/r_cpg/src/hld/r_cpg_drv_api.c **** static const st_drv_info_t gs_hld_info =
  84:../generate/drivers/r_cpg/src/hld/r_cpg_drv_api.c **** {
  85:../generate/drivers/r_cpg/src/hld/r_cpg_drv_api.c **** { ((STDIO_CPG_RZ_HLD_VERSION_MAJOR << 16) + STDIO_CPG_RZ_HLD_VERSION_MINOR) },
  86:../generate/drivers/r_cpg/src/hld/r_cpg_drv_api.c **** STDIO_CPG_RZ_HLD_BUILD_NUM,
  87:../generate/drivers/r_cpg/src/hld/r_cpg_drv_api.c **** STDIO_CPG_RZ_HLD_DRV_NAME };
  88:../generate/drivers/r_cpg/src/hld/r_cpg_drv_api.c **** 
  89:../generate/drivers/r_cpg/src/hld/r_cpg_drv_api.c **** static bool_t gs_drv_cpg_is_initialized = false;
  90:../generate/drivers/r_cpg/src/hld/r_cpg_drv_api.c **** static st_internal_configuration_t s_drv_config =
  91:../generate/drivers/r_cpg/src/hld/r_cpg_drv_api.c **** { 0 /* R_CFG_CPG_DRV_MAXIMUM_ACCESS_PRV */
  92:../generate/drivers/r_cpg/src/hld/r_cpg_drv_api.c **** };
  93:../generate/drivers/r_cpg/src/hld/r_cpg_drv_api.c **** 
  94:../generate/drivers/r_cpg/src/hld/r_cpg_drv_api.c **** /* Define the driver function table for this implementation */
  95:../generate/drivers/r_cpg/src/hld/r_cpg_drv_api.c **** /* GSCE Warning (global variable 'g_cpg_Driver' not declared static [9.3a])
  96:../generate/drivers/r_cpg/src/hld/r_cpg_drv_api.c ****  * can be safely ignored */
  97:../generate/drivers/r_cpg/src/hld/r_cpg_drv_api.c **** const st_r_driver_t g_cpg_driver =
  98:../generate/drivers/r_cpg/src/hld/r_cpg_drv_api.c **** {
  99:../generate/drivers/r_cpg/src/hld/r_cpg_drv_api.c **** /* st_r_driver_t p_device */
 100:../generate/drivers/r_cpg/src/hld/r_cpg_drv_api.c **** "CPG Device Driver", cpg_open, cpg_close, no_dev_read, no_dev_write, cpg_control, cpg_get_version }
 101:../generate/drivers/r_cpg/src/hld/r_cpg_drv_api.c **** 
 102:../generate/drivers/r_cpg/src/hld/r_cpg_drv_api.c **** /******************************************************************************
 103:../generate/drivers/r_cpg/src/hld/r_cpg_drv_api.c ****  Function Name: cpg_open
 104:../generate/drivers/r_cpg/src/hld/r_cpg_drv_api.c ****  Description:   Function to open the CPG device driver
 105:../generate/drivers/r_cpg/src/hld/r_cpg_drv_api.c ****  Arguments:     IN  stream_ptr - Pointer to the file stream
 106:../generate/drivers/r_cpg/src/hld/r_cpg_drv_api.c ****  Return value:  DRV_SUCCESS : Success when attempting to initialise CPG
 107:../generate/drivers/r_cpg/src/hld/r_cpg_drv_api.c ****  *              DRV_ERROR   : Failure to initialise CPG
 108:../generate/drivers/r_cpg/src/hld/r_cpg_drv_api.c ****  ******************************************************************************/
 109:../generate/drivers/r_cpg/src/hld/r_cpg_drv_api.c **** static int_t cpg_open (st_stream_ptr_t stream_ptr)
 110:../generate/drivers/r_cpg/src/hld/r_cpg_drv_api.c **** {
 111:../generate/drivers/r_cpg/src/hld/r_cpg_drv_api.c ****     int_t ret = DRV_SUCCESS;
 112:../generate/drivers/r_cpg/src/hld/r_cpg_drv_api.c **** 
 113:../generate/drivers/r_cpg/src/hld/r_cpg_drv_api.c ****     if ( false == gs_drv_cpg_is_initialized)
 114:../generate/drivers/r_cpg/src/hld/r_cpg_drv_api.c ****     {
 115:../generate/drivers/r_cpg/src/hld/r_cpg_drv_api.c ****         gs_drv_cpg_is_initialized = true;
 116:../generate/drivers/r_cpg/src/hld/r_cpg_drv_api.c ****         R_CPG_InitialiseHwIf();
 117:../generate/drivers/r_cpg/src/hld/r_cpg_drv_api.c ****     }
 118:../generate/drivers/r_cpg/src/hld/r_cpg_drv_api.c **** 
 119:../generate/drivers/r_cpg/src/hld/r_cpg_drv_api.c ****     if (s_drv_config.gs_channel_open < R_CFG_CPG_DRV_MAXIMUM_ACCESS_PRV)
 120:../generate/drivers/r_cpg/src/hld/r_cpg_drv_api.c ****     {
 121:../generate/drivers/r_cpg/src/hld/r_cpg_drv_api.c ****         /* driver already opened, just store the reference count */
 122:../generate/drivers/r_cpg/src/hld/r_cpg_drv_api.c ****         s_drv_config.gs_channel_open++;
 123:../generate/drivers/r_cpg/src/hld/r_cpg_drv_api.c ****     }
 124:../generate/drivers/r_cpg/src/hld/r_cpg_drv_api.c ****     else
 125:../generate/drivers/r_cpg/src/hld/r_cpg_drv_api.c ****     {
 126:../generate/drivers/r_cpg/src/hld/r_cpg_drv_api.c ****         /* return DRV_ERROR when too many references to the driver are attempted */
 127:../generate/drivers/r_cpg/src/hld/r_cpg_drv_api.c ****         ret = DRV_ERROR;
 128:../generate/drivers/r_cpg/src/hld/r_cpg_drv_api.c ****     }
 129:../generate/drivers/r_cpg/src/hld/r_cpg_drv_api.c **** 
 130:../generate/drivers/r_cpg/src/hld/r_cpg_drv_api.c ****     return (ret);
 131:../generate/drivers/r_cpg/src/hld/r_cpg_drv_api.c **** }
 132:../generate/drivers/r_cpg/src/hld/r_cpg_drv_api.c **** /******************************************************************************
 133:../generate/drivers/r_cpg/src/hld/r_cpg_drv_api.c ****  End of function  cpg_open
 134:../generate/drivers/r_cpg/src/hld/r_cpg_drv_api.c ****  ******************************************************************************/
 135:../generate/drivers/r_cpg/src/hld/r_cpg_drv_api.c **** 
 136:../generate/drivers/r_cpg/src/hld/r_cpg_drv_api.c **** /******************************************************************************
 137:../generate/drivers/r_cpg/src/hld/r_cpg_drv_api.c ****  Function Name: cpg_close
 138:../generate/drivers/r_cpg/src/hld/r_cpg_drv_api.c ****  Description:   Function to close the standard IN driver. All open devices
 139:../generate/drivers/r_cpg/src/hld/r_cpg_drv_api.c ****  connected to the led are closed.
 140:../generate/drivers/r_cpg/src/hld/r_cpg_drv_api.c ****  Arguments:     IN  stream_ptr - Pointer to the file stream
 141:../generate/drivers/r_cpg/src/hld/r_cpg_drv_api.c ****  Return value:  none
 142:../generate/drivers/r_cpg/src/hld/r_cpg_drv_api.c ****  ******************************************************************************/
 143:../generate/drivers/r_cpg/src/hld/r_cpg_drv_api.c **** static void cpg_close (st_stream_ptr_t stream_ptr)
 144:../generate/drivers/r_cpg/src/hld/r_cpg_drv_api.c **** {
  25              		.loc 1 144 0
  26              		.cfi_startproc
  27              		@ args = 0, pretend = 0, frame = 0
  28              		@ frame_needed = 0, uses_anonymous_args = 0
  29              		@ link register save eliminated.
  30              	.LVL0:
 145:../generate/drivers/r_cpg/src/hld/r_cpg_drv_api.c ****     /* unused argument, kept to maintain defined api */
 146:../generate/drivers/r_cpg/src/hld/r_cpg_drv_api.c ****     (void) stream_ptr;
 147:../generate/drivers/r_cpg/src/hld/r_cpg_drv_api.c **** 
 148:../generate/drivers/r_cpg/src/hld/r_cpg_drv_api.c ****     if (0 != s_drv_config.gs_channel_open)
  31              		.loc 1 148 0
  32 0000 003000E3 		movw	r3, #:lower16:.LANCHOR0
  33 0004 003040E3 		movt	r3, #:upper16:.LANCHOR0
  34 0008 B030D3E1 		ldrh	r3, [r3]
  35 000c 000053E3 		cmp	r3, #0
 149:../generate/drivers/r_cpg/src/hld/r_cpg_drv_api.c ****     {
 150:../generate/drivers/r_cpg/src/hld/r_cpg_drv_api.c ****         s_drv_config.gs_channel_open--;
  36              		.loc 1 150 0
  37 0010 00200013 		movwne	r2, #:lower16:.LANCHOR0
  38 0014 00204013 		movtne	r2, #:upper16:.LANCHOR0
  39 0018 01304312 		subne	r3, r3, #1
  40 001c B030C211 		strhne	r3, [r2]	@ movhi
 151:../generate/drivers/r_cpg/src/hld/r_cpg_drv_api.c ****     }
 152:../generate/drivers/r_cpg/src/hld/r_cpg_drv_api.c **** }
  41              		.loc 1 152 0
  42 0020 1EFF2FE1 		bx	lr
  43              		.cfi_endproc
  44              	.LFE4:
  46              		.section	.text.cpg_get_version,"ax",%progbits
  47              		.align	2
  48              		.syntax unified
  49              		.arm
  50              		.fpu neon
  52              	cpg_get_version:
  53              	.LFB6:
 153:../generate/drivers/r_cpg/src/hld/r_cpg_drv_api.c **** /******************************************************************************
 154:../generate/drivers/r_cpg/src/hld/r_cpg_drv_api.c ****  End of function  cpg_close
 155:../generate/drivers/r_cpg/src/hld/r_cpg_drv_api.c ****  ******************************************************************************/
 156:../generate/drivers/r_cpg/src/hld/r_cpg_drv_api.c **** 
 157:../generate/drivers/r_cpg/src/hld/r_cpg_drv_api.c **** /******************************************************************************
 158:../generate/drivers/r_cpg/src/hld/r_cpg_drv_api.c ****  Function Name: cpg_control
 159:../generate/drivers/r_cpg/src/hld/r_cpg_drv_api.c ****  Description:   Function to handle custom controls for the standard IN device
 160:../generate/drivers/r_cpg/src/hld/r_cpg_drv_api.c ****  Arguments:     IN  stream_ptr - Pointer to the file stream
 161:../generate/drivers/r_cpg/src/hld/r_cpg_drv_api.c ****  IN  ctrl_code - The custom control code
 162:../generate/drivers/r_cpg/src/hld/r_cpg_drv_api.c ****  IN  ctrl_ptr - Pointer to the custom control structure
 163:../generate/drivers/r_cpg/src/hld/r_cpg_drv_api.c ****  Return value:  0 for success -1 on error
 164:../generate/drivers/r_cpg/src/hld/r_cpg_drv_api.c ****  ******************************************************************************/
 165:../generate/drivers/r_cpg/src/hld/r_cpg_drv_api.c **** static int_t cpg_control (st_stream_ptr_t stream_ptr, uint32_t ctrl_code, void *ctrl_ptr)
 166:../generate/drivers/r_cpg/src/hld/r_cpg_drv_api.c **** {
 167:../generate/drivers/r_cpg/src/hld/r_cpg_drv_api.c ****     int_t retval = DRV_ERROR;
 168:../generate/drivers/r_cpg/src/hld/r_cpg_drv_api.c **** 
 169:../generate/drivers/r_cpg/src/hld/r_cpg_drv_api.c ****     /* fail if the channel is not open */
 170:../generate/drivers/r_cpg/src/hld/r_cpg_drv_api.c ****     if (0 == s_drv_config.gs_channel_open)
 171:../generate/drivers/r_cpg/src/hld/r_cpg_drv_api.c ****     {
 172:../generate/drivers/r_cpg/src/hld/r_cpg_drv_api.c ****         return (retval);
 173:../generate/drivers/r_cpg/src/hld/r_cpg_drv_api.c ****     }
 174:../generate/drivers/r_cpg/src/hld/r_cpg_drv_api.c **** 
 175:../generate/drivers/r_cpg/src/hld/r_cpg_drv_api.c ****     switch (ctrl_code)
 176:../generate/drivers/r_cpg/src/hld/r_cpg_drv_api.c ****     {
 177:../generate/drivers/r_cpg/src/hld/r_cpg_drv_api.c ****         case CTL_CPG_SET_XTAL_KHZ :
 178:../generate/drivers/r_cpg/src/hld/r_cpg_drv_api.c ****         {
 179:../generate/drivers/r_cpg/src/hld/r_cpg_drv_api.c ****             retval = R_CPG_SetXtalClock(*(float64_t *) ctrl_ptr);
 180:../generate/drivers/r_cpg/src/hld/r_cpg_drv_api.c ****             break;
 181:../generate/drivers/r_cpg/src/hld/r_cpg_drv_api.c ****         }
 182:../generate/drivers/r_cpg/src/hld/r_cpg_drv_api.c **** 
 183:../generate/drivers/r_cpg/src/hld/r_cpg_drv_api.c ****         case CTL_CPG_SET_MAIN_CLK :
 184:../generate/drivers/r_cpg/src/hld/r_cpg_drv_api.c ****         {
 185:../generate/drivers/r_cpg/src/hld/r_cpg_drv_api.c **** 
 186:../generate/drivers/r_cpg/src/hld/r_cpg_drv_api.c ****                 /* set input clock */
 187:../generate/drivers/r_cpg/src/hld/r_cpg_drv_api.c ****                 retval = R_CPG_SetMainClock((st_r_drv_cpg_set_main_t *) ctrl_ptr);
 188:../generate/drivers/r_cpg/src/hld/r_cpg_drv_api.c ****             break;
 189:../generate/drivers/r_cpg/src/hld/r_cpg_drv_api.c ****         }
 190:../generate/drivers/r_cpg/src/hld/r_cpg_drv_api.c **** 
 191:../generate/drivers/r_cpg/src/hld/r_cpg_drv_api.c ****         case CTL_CPG_SET_SUB_CLK :
 192:../generate/drivers/r_cpg/src/hld/r_cpg_drv_api.c ****         {
 193:../generate/drivers/r_cpg/src/hld/r_cpg_drv_api.c ****                 retval = R_CPG_SetSubClockDividers((st_r_drv_cpg_set_sub_t *) ctrl_ptr, 1);
 194:../generate/drivers/r_cpg/src/hld/r_cpg_drv_api.c ****             break;
 195:../generate/drivers/r_cpg/src/hld/r_cpg_drv_api.c ****         }
 196:../generate/drivers/r_cpg/src/hld/r_cpg_drv_api.c **** 
 197:../generate/drivers/r_cpg/src/hld/r_cpg_drv_api.c ****         case CTL_CPG_SET_CLK_SRC :
 198:../generate/drivers/r_cpg/src/hld/r_cpg_drv_api.c ****         {
 199:../generate/drivers/r_cpg/src/hld/r_cpg_drv_api.c ****                 retval = R_CPG_SetSubClockSource((st_r_drv_cpg_set_src_t *) ctrl_ptr, 1);
 200:../generate/drivers/r_cpg/src/hld/r_cpg_drv_api.c ****             break;
 201:../generate/drivers/r_cpg/src/hld/r_cpg_drv_api.c ****         }
 202:../generate/drivers/r_cpg/src/hld/r_cpg_drv_api.c **** 
 203:../generate/drivers/r_cpg/src/hld/r_cpg_drv_api.c ****         case CTL_CPG_SET_EXT_CLK :
 204:../generate/drivers/r_cpg/src/hld/r_cpg_drv_api.c ****         {
 205:../generate/drivers/r_cpg/src/hld/r_cpg_drv_api.c ****                 retval = R_CPG_ConfigExtClockPin((st_r_drv_cpg_ext_clk_t *) ctrl_ptr);
 206:../generate/drivers/r_cpg/src/hld/r_cpg_drv_api.c ****             break;
 207:../generate/drivers/r_cpg/src/hld/r_cpg_drv_api.c ****         }
 208:../generate/drivers/r_cpg/src/hld/r_cpg_drv_api.c **** 
 209:../generate/drivers/r_cpg/src/hld/r_cpg_drv_api.c ****         default :
 210:../generate/drivers/r_cpg/src/hld/r_cpg_drv_api.c ****         {
 211:../generate/drivers/r_cpg/src/hld/r_cpg_drv_api.c ****             break;
 212:../generate/drivers/r_cpg/src/hld/r_cpg_drv_api.c ****         }
 213:../generate/drivers/r_cpg/src/hld/r_cpg_drv_api.c ****     }
 214:../generate/drivers/r_cpg/src/hld/r_cpg_drv_api.c **** 
 215:../generate/drivers/r_cpg/src/hld/r_cpg_drv_api.c ****     return (retval);
 216:../generate/drivers/r_cpg/src/hld/r_cpg_drv_api.c **** }
 217:../generate/drivers/r_cpg/src/hld/r_cpg_drv_api.c **** /******************************************************************************
 218:../generate/drivers/r_cpg/src/hld/r_cpg_drv_api.c ****  End of function  cpg_control
 219:../generate/drivers/r_cpg/src/hld/r_cpg_drv_api.c ****  ******************************************************************************/
 220:../generate/drivers/r_cpg/src/hld/r_cpg_drv_api.c **** 
 221:../generate/drivers/r_cpg/src/hld/r_cpg_drv_api.c **** /*******************************************************************************
 222:../generate/drivers/r_cpg/src/hld/r_cpg_drv_api.c ****  * Function Name: cpg_get_version
 223:../generate/drivers/r_cpg/src/hld/r_cpg_drv_api.c ****  * Description  : Provides build information even if driver fails to open
 224:../generate/drivers/r_cpg/src/hld/r_cpg_drv_api.c ****  *                version information is updated by developer
 225:../generate/drivers/r_cpg/src/hld/r_cpg_drv_api.c ****  * Arguments    : none
 226:../generate/drivers/r_cpg/src/hld/r_cpg_drv_api.c ****  * Return Value : 0 (never fails)
 227:../generate/drivers/r_cpg/src/hld/r_cpg_drv_api.c ****  ******************************************************************************/
 228:../generate/drivers/r_cpg/src/hld/r_cpg_drv_api.c **** static int_t cpg_get_version (st_stream_ptr_t stream_ptr, st_ver_info_t *pVerInfo)
 229:../generate/drivers/r_cpg/src/hld/r_cpg_drv_api.c **** {
  54              		.loc 1 229 0
  55              		.cfi_startproc
  56              		@ args = 0, pretend = 0, frame = 0
  57              		@ frame_needed = 0, uses_anonymous_args = 0
  58              	.LVL1:
  59 0000 10402DE9 		push	{r4, lr}
  60              		.cfi_def_cfa_offset 8
  61              		.cfi_offset 4, -8
  62              		.cfi_offset 14, -4
 230:../generate/drivers/r_cpg/src/hld/r_cpg_drv_api.c ****     pVerInfo->hld.version.sub.major = gs_hld_info.version.sub.major;
  63              		.loc 1 230 0
  64 0004 0130A0E3 		mov	r3, #1
  65 0008 B230C1E1 		strh	r3, [r1, #2]	@ movhi
 231:../generate/drivers/r_cpg/src/hld/r_cpg_drv_api.c ****     pVerInfo->hld.version.sub.minor = gs_hld_info.version.sub.minor;
  66              		.loc 1 231 0
  67 000c 0030A0E3 		mov	r3, #0
  68 0010 B030C1E1 		strh	r3, [r1]	@ movhi
 232:../generate/drivers/r_cpg/src/hld/r_cpg_drv_api.c ****     pVerInfo->hld.build = gs_hld_info.build;
  69              		.loc 1 232 0
  70 0014 043081E5 		str	r3, [r1, #4]
 233:../generate/drivers/r_cpg/src/hld/r_cpg_drv_api.c ****     pVerInfo->hld.p_szdriver_name = gs_hld_info.p_szdriver_name;
  71              		.loc 1 233 0
  72 0018 003000E3 		movw	r3, #:lower16:.LC0
  73 001c 003040E3 		movt	r3, #:upper16:.LC0
  74 0020 083081E5 		str	r3, [r1, #8]
 234:../generate/drivers/r_cpg/src/hld/r_cpg_drv_api.c **** 
 235:../generate/drivers/r_cpg/src/hld/r_cpg_drv_api.c ****     /* Obtain version information from Low layer Driver */
 236:../generate/drivers/r_cpg/src/hld/r_cpg_drv_api.c ****     return (R_CPG_GetVersion(pVerInfo));
  75              		.loc 1 236 0
  76 0024 0100A0E1 		mov	r0, r1
  77              	.LVL2:
  78 0028 FEFFFFEB 		bl	R_CPG_GetVersion
  79              	.LVL3:
 237:../generate/drivers/r_cpg/src/hld/r_cpg_drv_api.c **** }
  80              		.loc 1 237 0
  81 002c 1080BDE8 		pop	{r4, pc}
  82              		.cfi_endproc
  83              	.LFE6:
  85              		.section	.text.cpg_control,"ax",%progbits
  86              		.align	2
  87              		.syntax unified
  88              		.arm
  89              		.fpu neon
  91              	cpg_control:
  92              	.LFB5:
 166:../generate/drivers/r_cpg/src/hld/r_cpg_drv_api.c ****     int_t retval = DRV_ERROR;
  93              		.loc 1 166 0
  94              		.cfi_startproc
  95              		@ args = 0, pretend = 0, frame = 0
  96              		@ frame_needed = 0, uses_anonymous_args = 0
  97              	.LVL4:
 170:../generate/drivers/r_cpg/src/hld/r_cpg_drv_api.c ****     {
  98              		.loc 1 170 0
  99 0000 003000E3 		movw	r3, #:lower16:.LANCHOR0
 100 0004 003040E3 		movt	r3, #:upper16:.LANCHOR0
 101 0008 B030D3E1 		ldrh	r3, [r3]
 102 000c 000053E3 		cmp	r3, #0
 103 0010 1700000A 		beq	.L13
 166:../generate/drivers/r_cpg/src/hld/r_cpg_drv_api.c ****     int_t retval = DRV_ERROR;
 104              		.loc 1 166 0
 105 0014 10402DE9 		push	{r4, lr}
 106              		.cfi_def_cfa_offset 8
 107              		.cfi_offset 4, -8
 108              		.cfi_offset 14, -4
 109 0018 0200A0E1 		mov	r0, r2
 110              	.LVL5:
 175:../generate/drivers/r_cpg/src/hld/r_cpg_drv_api.c ****     {
 111              		.loc 1 175 0
 112 001c 011041E2 		sub	r1, r1, #1
 113              	.LVL6:
 114 0020 040051E3 		cmp	r1, #4
 115 0024 01F19F97 		ldrls	pc, [pc, r1, asl #2]
 116 0028 130000EA 		b	.L14
 117              	.L8:
 118 002c 40000000 		.word	.L7
 119 0030 4C000000 		.word	.L9
 120 0034 54000000 		.word	.L10
 121 0038 60000000 		.word	.L11
 122 003c 6C000000 		.word	.L12
 123              	.L7:
 179:../generate/drivers/r_cpg/src/hld/r_cpg_drv_api.c ****             break;
 124              		.loc 1 179 0
 125 0040 000B92ED 		vldr.64	d0, [r2]
 126 0044 FEFFFFEB 		bl	R_CPG_SetXtalClock
 127              	.LVL7:
 180:../generate/drivers/r_cpg/src/hld/r_cpg_drv_api.c ****         }
 128              		.loc 1 180 0
 129 0048 1080BDE8 		pop	{r4, pc}
 130              	.LVL8:
 131              	.L9:
 187:../generate/drivers/r_cpg/src/hld/r_cpg_drv_api.c ****             break;
 132              		.loc 1 187 0
 133 004c FEFFFFEB 		bl	R_CPG_SetMainClock
 134              	.LVL9:
 188:../generate/drivers/r_cpg/src/hld/r_cpg_drv_api.c ****         }
 135              		.loc 1 188 0
 136 0050 1080BDE8 		pop	{r4, pc}
 137              	.LVL10:
 138              	.L10:
 193:../generate/drivers/r_cpg/src/hld/r_cpg_drv_api.c ****             break;
 139              		.loc 1 193 0
 140 0054 0110A0E3 		mov	r1, #1
 141 0058 FEFFFFEB 		bl	R_CPG_SetSubClockDividers
 142              	.LVL11:
 194:../generate/drivers/r_cpg/src/hld/r_cpg_drv_api.c ****         }
 143              		.loc 1 194 0
 144 005c 1080BDE8 		pop	{r4, pc}
 145              	.LVL12:
 146              	.L11:
 199:../generate/drivers/r_cpg/src/hld/r_cpg_drv_api.c ****             break;
 147              		.loc 1 199 0
 148 0060 0110A0E3 		mov	r1, #1
 149 0064 FEFFFFEB 		bl	R_CPG_SetSubClockSource
 150              	.LVL13:
 200:../generate/drivers/r_cpg/src/hld/r_cpg_drv_api.c ****         }
 151              		.loc 1 200 0
 152 0068 1080BDE8 		pop	{r4, pc}
 153              	.LVL14:
 154              	.L12:
 205:../generate/drivers/r_cpg/src/hld/r_cpg_drv_api.c ****             break;
 155              		.loc 1 205 0
 156 006c FEFFFFEB 		bl	R_CPG_ConfigExtClockPin
 157              	.LVL15:
 206:../generate/drivers/r_cpg/src/hld/r_cpg_drv_api.c ****         }
 158              		.loc 1 206 0
 159 0070 1080BDE8 		pop	{r4, pc}
 160              	.LVL16:
 161              	.L13:
 162              		.cfi_def_cfa_offset 0
 163              		.cfi_restore 4
 164              		.cfi_restore 14
 172:../generate/drivers/r_cpg/src/hld/r_cpg_drv_api.c ****     }
 165              		.loc 1 172 0
 166 0074 0000E0E3 		mvn	r0, #0
 167              	.LVL17:
 216:../generate/drivers/r_cpg/src/hld/r_cpg_drv_api.c **** /******************************************************************************
 168              		.loc 1 216 0
 169 0078 1EFF2FE1 		bx	lr
 170              	.LVL18:
 171              	.L14:
 167:../generate/drivers/r_cpg/src/hld/r_cpg_drv_api.c **** 
 172              		.loc 1 167 0
 173 007c 0000E0E3 		mvn	r0, #0
 174              	.LVL19:
 216:../generate/drivers/r_cpg/src/hld/r_cpg_drv_api.c **** /******************************************************************************
 175              		.loc 1 216 0
 176 0080 1080BDE8 		pop	{r4, pc}
 177              		.cfi_endproc
 178              	.LFE5:
 180              		.section	.text.cpg_open,"ax",%progbits
 181              		.align	2
 182              		.syntax unified
 183              		.arm
 184              		.fpu neon
 186              	cpg_open:
 187              	.LFB3:
 110:../generate/drivers/r_cpg/src/hld/r_cpg_drv_api.c ****     int_t ret = DRV_SUCCESS;
 188              		.loc 1 110 0
 189              		.cfi_startproc
 190              		@ args = 0, pretend = 0, frame = 0
 191              		@ frame_needed = 0, uses_anonymous_args = 0
 192              	.LVL20:
 193 0000 10402DE9 		push	{r4, lr}
 194              		.cfi_def_cfa_offset 8
 195              		.cfi_offset 4, -8
 196              		.cfi_offset 14, -4
 197              	.LVL21:
 113:../generate/drivers/r_cpg/src/hld/r_cpg_drv_api.c ****     {
 198              		.loc 1 113 0
 199 0004 003000E3 		movw	r3, #:lower16:.LANCHOR1
 200 0008 003040E3 		movt	r3, #:upper16:.LANCHOR1
 201 000c 003093E5 		ldr	r3, [r3]
 202 0010 000053E3 		cmp	r3, #0
 203 0014 0A00000A 		beq	.L24
 204              	.LVL22:
 205              	.L20:
 119:../generate/drivers/r_cpg/src/hld/r_cpg_drv_api.c ****     {
 206              		.loc 1 119 0
 207 0018 003000E3 		movw	r3, #:lower16:.LANCHOR0
 208 001c 003040E3 		movt	r3, #:upper16:.LANCHOR0
 209 0020 B030D3E1 		ldrh	r3, [r3]
 210 0024 000053E3 		cmp	r3, #0
 211 0028 0B00001A 		bne	.L22
 122:../generate/drivers/r_cpg/src/hld/r_cpg_drv_api.c ****     }
 212              		.loc 1 122 0
 213 002c 002000E3 		movw	r2, #:lower16:.LANCHOR0
 214 0030 002040E3 		movt	r2, #:upper16:.LANCHOR0
 215 0034 013083E2 		add	r3, r3, #1
 216 0038 B030C2E1 		strh	r3, [r2]	@ movhi
 111:../generate/drivers/r_cpg/src/hld/r_cpg_drv_api.c **** 
 217              		.loc 1 111 0
 218 003c 0000A0E3 		mov	r0, #0
 219 0040 1080BDE8 		pop	{r4, pc}
 220              	.LVL23:
 221              	.L24:
 115:../generate/drivers/r_cpg/src/hld/r_cpg_drv_api.c ****         R_CPG_InitialiseHwIf();
 222              		.loc 1 115 0
 223 0044 003000E3 		movw	r3, #:lower16:.LANCHOR1
 224 0048 003040E3 		movt	r3, #:upper16:.LANCHOR1
 225 004c 0120A0E3 		mov	r2, #1
 226 0050 002083E5 		str	r2, [r3]
 116:../generate/drivers/r_cpg/src/hld/r_cpg_drv_api.c ****     }
 227              		.loc 1 116 0
 228 0054 FEFFFFEB 		bl	R_CPG_InitialiseHwIf
 229              	.LVL24:
 230 0058 EEFFFFEA 		b	.L20
 231              	.L22:
 127:../generate/drivers/r_cpg/src/hld/r_cpg_drv_api.c ****     }
 232              		.loc 1 127 0
 233 005c 0000E0E3 		mvn	r0, #0
 234              	.LVL25:
 131:../generate/drivers/r_cpg/src/hld/r_cpg_drv_api.c **** /******************************************************************************
 235              		.loc 1 131 0
 236 0060 1080BDE8 		pop	{r4, pc}
 237              		.cfi_endproc
 238              	.LFE3:
 240              		.global	g_cpg_driver
 241              		.section	.bss.gs_drv_cpg_is_initialized,"aw",%nobits
 242              		.align	2
 243              		.set	.LANCHOR1,. + 0
 246              	gs_drv_cpg_is_initialized:
 247 0000 00000000 		.space	4
 248              		.section	.bss.s_drv_config,"aw",%nobits
 249              		.align	2
 250              		.set	.LANCHOR0,. + 0
 253              	s_drv_config:
 254 0000 0000     		.space	2
 255              		.section	.rodata.cpg_get_version.str1.4,"aMS",%progbits,1
 256              		.align	2
 257              	.LC0:
 258 0000 484C4420 		.ascii	"HLD CPG\000"
 258      43504700 
 259              		.section	.rodata.g_cpg_driver,"a",%progbits
 260              		.align	2
 263              	g_cpg_driver:
 264 0000 00000000 		.word	.LC1
 265 0004 00000000 		.word	cpg_open
 266 0008 00000000 		.word	cpg_close
 267 000c 00000000 		.word	no_dev_read
 268 0010 00000000 		.word	no_dev_write
 269 0014 00000000 		.word	cpg_control
 270 0018 00000000 		.word	cpg_get_version
 271              		.section	.rodata.str1.4,"aMS",%progbits,1
 272              		.align	2
 273              	.LC1:
 274 0000 43504720 		.ascii	"CPG Device Driver\000"
 274      44657669 
 274      63652044 
 274      72697665 
 274      7200
 275              		.text
 276              	.Letext0:
 277              		.file 2 "c:\\program files (x86)\\gnu tools arm embedded\\7 2017-q4-major\\arm-none-eabi\\include\
 278              		.file 3 "c:\\program files (x86)\\gnu tools arm embedded\\7 2017-q4-major\\arm-none-eabi\\include\
 279              		.file 4 "c:\\program files (x86)\\gnu tools arm embedded\\7 2017-q4-major\\arm-none-eabi\\include\
 280              		.file 5 "c:\\program files (x86)\\gnu tools arm embedded\\7 2017-q4-major\\lib\\gcc\\arm-none-eabi
 281              		.file 6 "c:\\program files (x86)\\gnu tools arm embedded\\7 2017-q4-major\\arm-none-eabi\\include\
 282              		.file 7 "c:\\program files (x86)\\gnu tools arm embedded\\7 2017-q4-major\\arm-none-eabi\\include\
 283              		.file 8 "c:\\program files (x86)\\gnu tools arm embedded\\7 2017-q4-major\\arm-none-eabi\\include\
 284              		.file 9 "D:/Project/e2_studio/workspace2/RZA2M_DRP_Benchmark_V1.0.0/RZA2M_DRP_Benchmark_V1.0.0/boo
 285              		.file 10 "c:\\program files (x86)\\gnu tools arm embedded\\7 2017-q4-major\\arm-none-eabi\\include
 286              		.file 11 "c:\\program files (x86)\\gnu tools arm embedded\\7 2017-q4-major\\arm-none-eabi\\include
 287              		.file 12 "D:/Project/e2_studio/workspace2/RZA2M_DRP_Benchmark_V1.0.0/RZA2M_DRP_Benchmark_V1.0.0/bo
 288              		.file 13 "D:/Project/e2_studio/workspace2/RZA2M_DRP_Benchmark_V1.0.0/RZA2M_DRP_Benchmark_V1.0.0/bo
 289              		.file 14 "D:/Project/e2_studio/workspace2/RZA2M_DRP_Benchmark_V1.0.0/RZA2M_DRP_Benchmark_V1.0.0/bo
 290              		.file 15 "D:/Project/e2_studio/workspace2/RZA2M_DRP_Benchmark_V1.0.0/RZA2M_DRP_Benchmark_V1.0.0/bo